
final_project.elf:     file format elf32-littlenios2
final_project.elf
architecture: nios2:r1, flags 0x00000112:
EXEC_P, HAS_SYMS, D_PAGED
start address 0x10000238

Program Header:
    LOAD off    0x00001000 vaddr 0x10000000 paddr 0x10000000 align 2**12
         filesz 0x00000020 memsz 0x00000020 flags r-x
    LOAD off    0x00001020 vaddr 0x10000020 paddr 0x10000020 align 2**12
         filesz 0x00026764 memsz 0x00026764 flags r-x
    LOAD off    0x00027784 vaddr 0x10026784 paddr 0x10028640 align 2**12
         filesz 0x00001ebc memsz 0x00001ebc flags rw-
    LOAD off    0x0002a4fc vaddr 0x1002a4fc paddr 0x1002a4fc align 2**12
         filesz 0x00000000 memsz 0x00000290 flags rw-

Sections:
Idx Name          Size      VMA       LMA       File off  Algn
  0 .entry        00000020  10000000  10000000  00001000  2**5
                  CONTENTS, ALLOC, LOAD, READONLY, CODE
  1 .exceptions   00000218  10000020  10000020  00001020  2**2
                  CONTENTS, ALLOC, LOAD, READONLY, CODE
  2 .text         00024c74  10000238  10000238  00001238  2**2
                  CONTENTS, ALLOC, LOAD, READONLY, CODE
  3 .rodata       000018d8  10024eac  10024eac  00025eac  2**2
                  CONTENTS, ALLOC, LOAD, READONLY, DATA
  4 .rwdata       00001ebc  10026784  10028640  00027784  2**2
                  CONTENTS, ALLOC, LOAD, DATA, SMALL_DATA
  5 .bss          00000290  1002a4fc  1002a4fc  0002a4fc  2**2
                  ALLOC, SMALL_DATA
  6 .onchip_memory2_0 00000000  00000000  00000000  00029640  2**0
                  CONTENTS
  7 .sdram        00000000  1002a78c  1002a78c  00029640  2**0
                  CONTENTS
  8 .comment      0000002c  00000000  00000000  00029640  2**0
                  CONTENTS, READONLY
  9 .debug_aranges 00002a18  00000000  00000000  00029670  2**3
                  CONTENTS, READONLY, DEBUGGING
 10 .debug_info   000bd9f8  00000000  00000000  0002c088  2**0
                  CONTENTS, READONLY, DEBUGGING
 11 .debug_abbrev 0001cbff  00000000  00000000  000e9a80  2**0
                  CONTENTS, READONLY, DEBUGGING
 12 .debug_line   00035dd4  00000000  00000000  0010667f  2**0
                  CONTENTS, READONLY, DEBUGGING
 13 .debug_frame  00007ebc  00000000  00000000  0013c454  2**2
                  CONTENTS, READONLY, DEBUGGING
 14 .debug_str    0001fd65  00000000  00000000  00144310  2**0
                  CONTENTS, READONLY, DEBUGGING
 15 .debug_loc    00050ab9  00000000  00000000  00164075  2**0
                  CONTENTS, READONLY, DEBUGGING
 16 .debug_alt_sim_info 00000060  00000000  00000000  001b4b30  2**2
                  CONTENTS, READONLY, DEBUGGING
 17 .debug_ranges 0000a590  00000000  00000000  001b4b90  2**3
                  CONTENTS, READONLY, DEBUGGING
 18 .thread_model 00000003  00000000  00000000  001d07e8  2**0
                  CONTENTS, READONLY
 19 .cpu          0000000c  00000000  00000000  001d07eb  2**0
                  CONTENTS, READONLY
 20 .qsys         00000001  00000000  00000000  001d07f7  2**0
                  CONTENTS, READONLY
 21 .simulation_enabled 00000001  00000000  00000000  001d07f8  2**0
                  CONTENTS, READONLY
 22 .sysid_hash   00000004  00000000  00000000  001d07f9  2**0
                  CONTENTS, READONLY
 23 .sysid_base   00000004  00000000  00000000  001d07fd  2**0
                  CONTENTS, READONLY
 24 .sysid_time   00000004  00000000  00000000  001d0801  2**0
                  CONTENTS, READONLY
 25 .stderr_dev   0000000b  00000000  00000000  001d0805  2**0
                  CONTENTS, READONLY
 26 .stdin_dev    0000000b  00000000  00000000  001d0810  2**0
                  CONTENTS, READONLY
 27 .stdout_dev   0000000b  00000000  00000000  001d081b  2**0
                  CONTENTS, READONLY
 28 .sopc_system_name 00000011  00000000  00000000  001d0826  2**0
                  CONTENTS, READONLY
 29 .quartus_project_dir 00000015  00000000  00000000  001d0837  2**0
                  CONTENTS, READONLY
 30 .jdi          00006dc0  00000000  00000000  001d084c  2**0
                  CONTENTS, READONLY
SYMBOL TABLE:
10000000 l    d  .entry	00000000 .entry
10000020 l    d  .exceptions	00000000 .exceptions
10000238 l    d  .text	00000000 .text
10024eac l    d  .rodata	00000000 .rodata
10026784 l    d  .rwdata	00000000 .rwdata
1002a4fc l    d  .bss	00000000 .bss
00000000 l    d  .onchip_memory2_0	00000000 .onchip_memory2_0
1002a78c l    d  .sdram	00000000 .sdram
00000000 l    d  .comment	00000000 .comment
00000000 l    d  .debug_aranges	00000000 .debug_aranges
00000000 l    d  .debug_info	00000000 .debug_info
00000000 l    d  .debug_abbrev	00000000 .debug_abbrev
00000000 l    d  .debug_line	00000000 .debug_line
00000000 l    d  .debug_frame	00000000 .debug_frame
00000000 l    d  .debug_str	00000000 .debug_str
00000000 l    d  .debug_loc	00000000 .debug_loc
00000000 l    d  .debug_alt_sim_info	00000000 .debug_alt_sim_info
00000000 l    d  .debug_ranges	00000000 .debug_ranges
00000000 l    df *ABS*	00000000 C:/Lab7/final_project/software/final_project_bsp/obj/HAL/src/crt0.o
10000280 l       .text	00000000 alt_after_alt_main
00000000 l    df *ABS*	00000000 alt_irq_handler.c
00000000 l    df *ABS*	00000000 alt_instruction_exception_entry.c
00000000 l    df *ABS*	00000000 core.c
00000000 l    df *ABS*	00000000 io_handler.c
00000000 l    df *ABS*	00000000 logic.c
10001238 l     F .text	00000030 is_over
1002a548 l     O .bss	000000e1 distances
100013a8 l     F .text	0000005c stack_pop
10001404 l     F .text	00000028 stack_isempty
1002a4fc l     O .bss	00000002 goal_pos_x
1002a4fe l     O .bss	00000002 goal_pos_y
100285c8 l     O .rwdata	00000004 ikdirs
1002a500 l     O .bss	00000001 lastdirection
00000000 l    df *ABS*	00000000 main.c
10026865 l     O .rwdata	000000e1 GAME_BOARDS
1002a502 l     O .bss	00000002 ctl_reg.3891
1002a504 l     O .bss	00000002 no_device.3892
00000000 l    df *ABS*	00000000 tile_eng_driver.c
00000000 l    df *ABS*	00000000 usb.c
00000000 l    df *ABS*	00000000 updater.cpp
10026946 l     O .rwdata	000000e1 _ZL11GAME_BOARDS
100285cc l     O .rwdata	00000001 _ZStL19piecewise_construct
100068a0 l     F .text	00000074 _Z41__static_initialization_and_destruction_0ii
10006914 l     F .text	00000030 _GLOBAL__sub_I_workset
10006944 l     F .text	00000030 _GLOBAL__sub_D_workset
00000000 l    df *ABS*	00000000 new_op.cc
00000000 l    df *ABS*	00000000 new_handler.cc
1002a508 l     O .bss	00000004 _ZN12_GLOBAL__N_113__new_handlerE
00000000 l    df *ABS*	00000000 eh_catch.cc
00000000 l    df *ABS*	00000000 eh_terminate.cc
00000000 l    df *ABS*	00000000 eh_unex_handler.cc
00000000 l    df *ABS*	00000000 eh_throw.cc
10008c04 l     F .text	00000068 _ZL23__gxx_exception_cleanup19_Unwind_Reason_CodeP17_Unwind_Exception
00000000 l    df *ABS*	00000000 del_op.cc
00000000 l    df *ABS*	00000000 bad_alloc.cc
00000000 l    df *ABS*	00000000 eh_personality.cc
10008e40 l     F .text	00000088 _ZL16get_adjusted_ptrPKSt9type_infoS1_PPv
10008ec8 l     F .text	000001e8 _ZL28read_encoded_value_with_basehjPKhPj
100090b0 l     F .text	00000094 _ZL15get_ttype_entryP16lsda_header_infom
10009144 l     F .text	000000a0 _ZL20check_exception_specP16lsda_header_infoPKSt9type_infoPvl
100091e4 l     F .text	00000070 _ZL21base_of_encoded_valuehP15_Unwind_Context
10009254 l     F .text	0000012c _ZL17parse_lsda_headerP15_Unwind_ContextPKhP16lsda_header_info
00000000 l    df *ABS*	00000000 eh_alloc.cc
10009b24 l     F .text	000000ec _ZN12_GLOBAL__N_14pool4freeEPv.constprop.4
1002a644 l     O .bss	00000010 _ZN12_GLOBAL__N_114emergency_poolE
10009c10 l     F .text	000000a8 _ZN12_GLOBAL__N_14pool8allocateEj.constprop.5
10009ddc l     F .text	00000064 _GLOBAL__sub_I__ZN9__gnu_cxx9__freeresEv
00000000 l    df *ABS*	00000000 tree.cc
10009e40 l     F .text	00000064 _ZStL23local_Rb_tree_decrementPSt18_Rb_tree_node_base
00000000 l    df *ABS*	00000000 functexcept.cc
00000000 l    df *ABS*	00000000 snprintf_lite.cc
00000000 l    df *ABS*	00000000 cow-stdexcept.cc
00000000 l    df *ABS*	00000000 eh_call.cc
00000000 l    df *ABS*	00000000 si_class_type_info.cc
00000000 l    df *ABS*	00000000 eh_globals.cc
1002a50c l     O .bss	00000008 _ZL10eh_globals
00000000 l    df *ABS*	00000000 eh_exception.cc
00000000 l    df *ABS*	00000000 pure.cc
00000000 l    df *ABS*	00000000 eh_term_handler.cc
00000000 l    df *ABS*	00000000 del_ops.cc
00000000 l    df *ABS*	00000000 bad_cast.cc
00000000 l    df *ABS*	00000000 bad_typeid.cc
00000000 l    df *ABS*	00000000 class_type_info.cc
00000000 l    df *ABS*	00000000 tinfo.cc
00000000 l    df *ABS*	00000000 stdexcept.cc
00000000 l    df *ABS*	00000000 sso_string.cc
00000000 l    df *ABS*	00000000 cow-string-inst.cc
1000ed0c l     F .text	0000009c _ZNSs12_S_constructIPcEES0_T_S1_RKSaIcESt20forward_iterator_tag.part.22
1000ed0c l     F .text	0000009c _ZNSs12_S_constructIPKcEEPcT_S3_RKSaIcESt20forward_iterator_tag.part.25
1000edac l     F .text	00000018 _ZNSs4_Rep10_M_disposeERKSaIcE.part.12
00000000 l    df *ABS*	00000000 string-inst.cc
00000000 l    df *ABS*	00000000 lib2-divmod.c
00000000 l    df *ABS*	00000000 unwind-sjlj.c
100149f0 l     F .text	00000114 _Unwind_ForcedUnwind_Phase2
1002a514 l     O .bss	00000004 fc_static
10014b04 l     F .text	000000d8 _Unwind_RaiseException_Phase2
10014bdc l     F .text	00000024 uw_install_context.isra.4
00000000 l    df *ABS*	00000000 abort.c
00000000 l    df *ABS*	00000000 fflush.c
00000000 l    df *ABS*	00000000 findfp.c
100151e0 l     F .text	00000008 __fp_lock
100151f4 l     F .text	00000168 __sinit.part.0
1001535c l     F .text	00000008 __fp_unlock
00000000 l    df *ABS*	00000000 fopen.c
00000000 l    df *ABS*	00000000 mallocr.c
00000000 l    df *ABS*	00000000 fseek.c
00000000 l    df *ABS*	00000000 fseeko.c
00000000 l    df *ABS*	00000000 fstatr.c
00000000 l    df *ABS*	00000000 fwalk.c
00000000 l    df *ABS*	00000000 impure.c
10026a28 l     O .rwdata	00000424 impure_data
00000000 l    df *ABS*	00000000 int_errno.c
00000000 l    df *ABS*	00000000 makebuf.c
00000000 l    df *ABS*	00000000 malloc.c
00000000 l    df *ABS*	00000000 mallocr.c
00000000 l    df *ABS*	00000000 memchr.c
00000000 l    df *ABS*	00000000 memcmp.c
00000000 l    df *ABS*	00000000 memcpy.c
00000000 l    df *ABS*	00000000 memmove.c
00000000 l    df *ABS*	00000000 memset.c
00000000 l    df *ABS*	00000000 openr.c
00000000 l    df *ABS*	00000000 printf.c
00000000 l    df *ABS*	00000000 putchar.c
00000000 l    df *ABS*	00000000 puts.c
00000000 l    df *ABS*	00000000 rand.c
00000000 l    df *ABS*	00000000 refill.c
10017138 l     F .text	0000001c lflush
00000000 l    df *ABS*	00000000 sbrkr.c
00000000 l    df *ABS*	00000000 signal.c
10017378 l     F .text	0000004c _init_signal_r.part.0
00000000 l    df *ABS*	00000000 signalr.c
00000000 l    df *ABS*	00000000 stdio.c
00000000 l    df *ABS*	00000000 strcmp.c
00000000 l    df *ABS*	00000000 strlen.c
00000000 l    df *ABS*	00000000 strtoul.c
10017934 l     F .text	00000250 _strtoul_l.isra.0
00000000 l    df *ABS*	00000000 vfprintf.c
10019d30 l     F .text	000000c0 __sbprintf
1002625a l     O .rodata	00000010 blanks.5226
1002624a l     O .rodata	00000010 zeroes.5227
00000000 l    df *ABS*	00000000 writer.c
00000000 l    df *ABS*	00000000 wsetup.c
00000000 l    df *ABS*	00000000 closer.c
00000000 l    df *ABS*	00000000 ctype_.c
00000000 l    df *ABS*	00000000 dtoa.c
1001a00c l     F .text	00000210 quorem
00000000 l    df *ABS*	00000000 fclose.c
00000000 l    df *ABS*	00000000 flags.c
00000000 l    df *ABS*	00000000 fvwrite.c
00000000 l    df *ABS*	00000000 isattyr.c
00000000 l    df *ABS*	00000000 localeconv.c
00000000 l    df *ABS*	00000000 lseekr.c
00000000 l    df *ABS*	00000000 mprec.c
100264fc l     O .rodata	0000000c p05.4024
00000000 l    df *ABS*	00000000 putc.c
00000000 l    df *ABS*	00000000 readr.c
00000000 l    df *ABS*	00000000 mallocr.c
00000000 l    df *ABS*	00000000 vfprintf.c
1001d7a8 l     F .text	000000f4 __sprint_r.part.0
1001ebf8 l     F .text	000000c0 __sbprintf
10026630 l     O .rodata	00000010 blanks.5203
10026620 l     O .rodata	00000010 zeroes.5204
00000000 l    df *ABS*	00000000 wbuf.c
00000000 l    df *ABS*	00000000 mallocr.c
00000000 l    df *ABS*	00000000 fputwc.c
00000000 l    df *ABS*	00000000 locale.c
00000000 l    df *ABS*	00000000 mbtowc_r.c
00000000 l    df *ABS*	00000000 wcrtomb.c
00000000 l    df *ABS*	00000000 wctomb_r.c
00000000 l    df *ABS*	00000000 libgcc2.c
00000000 l    df *ABS*	00000000 libgcc2.c
00000000 l    df *ABS*	00000000 libgcc2.c
00000000 l    df *ABS*	00000000 adddf3.c
00000000 l    df *ABS*	00000000 divdf3.c
00000000 l    df *ABS*	00000000 eqdf2.c
00000000 l    df *ABS*	00000000 gedf2.c
00000000 l    df *ABS*	00000000 ledf2.c
00000000 l    df *ABS*	00000000 muldf3.c
00000000 l    df *ABS*	00000000 subdf3.c
00000000 l    df *ABS*	00000000 unorddf2.c
00000000 l    df *ABS*	00000000 fixdfsi.c
00000000 l    df *ABS*	00000000 floatsidf.c
00000000 l    df *ABS*	00000000 floatunsidf.c
00000000 l    df *ABS*	00000000 libgcc2.c
00000000 l    df *ABS*	00000000 libgcc2.c
00000000 l    df *ABS*	00000000 alt_close.c
1002252c l     F .text	0000003c alt_get_errno
00000000 l    df *ABS*	00000000 alt_dev.c
10022638 l     F .text	0000002c alt_dev_null_write
00000000 l    df *ABS*	00000000 alt_errno.c
00000000 l    df *ABS*	00000000 alt_exit.c
00000000 l    df *ABS*	00000000 alt_fstat.c
10022698 l     F .text	0000003c alt_get_errno
00000000 l    df *ABS*	00000000 alt_getpid.c
00000000 l    df *ABS*	00000000 alt_isatty.c
100227a4 l     F .text	0000003c alt_get_errno
00000000 l    df *ABS*	00000000 alt_kill.c
10022884 l     F .text	0000003c alt_get_errno
00000000 l    df *ABS*	00000000 alt_load.c
100229ec l     F .text	00000068 alt_load_section
00000000 l    df *ABS*	00000000 alt_lseek.c
10022ad8 l     F .text	0000003c alt_get_errno
00000000 l    df *ABS*	00000000 alt_main.c
00000000 l    df *ABS*	00000000 alt_malloc_lock.c
00000000 l    df *ABS*	00000000 alt_open.c
10022cac l     F .text	0000003c alt_get_errno
10022ce8 l     F .text	000000b8 alt_file_locked
00000000 l    df *ABS*	00000000 alt_read.c
10022ef4 l     F .text	0000003c alt_get_errno
00000000 l    df *ABS*	00000000 alt_release_fd.c
00000000 l    df *ABS*	00000000 alt_sbrk.c
10028630 l     O .rwdata	00000004 heap_end
00000000 l    df *ABS*	00000000 alt_usleep.c
00000000 l    df *ABS*	00000000 alt_write.c
10023164 l     F .text	0000003c alt_get_errno
00000000 l    df *ABS*	00000000 alt_sys_init.c
10023298 l     F .text	00000034 alt_dev_reg
10027568 l     O .rwdata	00001060 jtag_uart_0
00000000 l    df *ABS*	00000000 altera_avalon_jtag_uart_fd.c
00000000 l    df *ABS*	00000000 altera_avalon_jtag_uart_init.c
10023574 l     F .text	00000204 altera_avalon_jtag_uart_irq
10023778 l     F .text	000000a0 altera_avalon_jtag_uart_timeout
00000000 l    df *ABS*	00000000 altera_avalon_jtag_uart_ioctl.c
00000000 l    df *ABS*	00000000 altera_avalon_jtag_uart_read.c
00000000 l    df *ABS*	00000000 altera_avalon_jtag_uart_write.c
00000000 l    df *ABS*	00000000 alt_alarm_start.c
00000000 l    df *ABS*	00000000 alt_busy_sleep.c
00000000 l    df *ABS*	00000000 alt_dcache_flush_all.c
00000000 l    df *ABS*	00000000 alt_dev_llist_insert.c
10024050 l     F .text	0000003c alt_get_errno
00000000 l    df *ABS*	00000000 alt_do_ctors.c
00000000 l    df *ABS*	00000000 alt_do_dtors.c
00000000 l    df *ABS*	00000000 alt_find_dev.c
00000000 l    df *ABS*	00000000 alt_find_file.c
00000000 l    df *ABS*	00000000 alt_get_fd.c
00000000 l    df *ABS*	00000000 alt_icache_flush_all.c
00000000 l    df *ABS*	00000000 alt_iic.c
00000000 l    df *ABS*	00000000 alt_iic_isr_register.c
00000000 l    df *ABS*	00000000 alt_io_redirect.c
100246f0 l     F .text	000000b0 alt_open_fd
00000000 l    df *ABS*	00000000 alt_irq_vars.c
00000000 l    df *ABS*	00000000 alt_tick.c
00000000 l    df *ABS*	00000000 altera_nios2_gen2_irq.c
00000000 l    df *ABS*	00000000 alt_icache_flush.c
00000000 l    df *ABS*	00000000 atexit.c
00000000 l    df *ABS*	00000000 exit.c
00000000 l    df *ABS*	00000000 __atexit.c
00000000 l    df *ABS*	00000000 __call_atexit.c
1002a544 g     O .bss	00000004 alt_instruction_exception_handler
10011a90  w    F .text	00000010 _ZNKSt7__cxx1112basic_stringIcSt11char_traitsIcESaIcEE4cendEv
10009d40 g     F .text	00000028 __cxa_free_exception
10000284 g     F .text	00000290 screen_test
10010844  w    F .text	0000003c _ZNSsC1IN9__gnu_cxx17__normal_iteratorIPcSsEEEET_S4_RKSaIcE
10010910  w    F .text	00000074 _ZNSsC2ERKSsjj
10016fd0 g     F .text	00000018 putchar
1000d3c8 g     F .text	00000008 _ZNKSt9type_info15__is_function_pEv
1001ce18 g     F .text	00000074 _mprec_log10
10008bb0 g     F .text	00000014 _ZSt10unexpectedv
100081ec  w    F .text	00000044 _ZNSt8_Rb_treeI9TileGroupS0_St9_IdentityIS0_ESt4lessIS0_ESaIS0_EE3endEv
10011204  w    F .text	00000008 _ZNSt7__cxx1112basic_stringIcSt11char_traitsIcESaIcEE13_M_local_dataEv
100052e8 g     F .text	000000d4 writeSprite
1000a7a0 g     F .text	00000034 _ZSt18__throw_bad_typeidv
1001cef8 g     F .text	00000074 __any_on
1001bf54 g     F .text	00000058 _isatty_r
10026508 g     O .rodata	00000028 __mprec_tinytens
10013138  w    F .text	0000004c _ZNSt7__cxx1112basic_stringIcSt11char_traitsIcESaIcEE6appendERKS4_jj
1000d968 g     F .text	00000030 _ZNSt14overflow_errorC1ERKSs
1000b624 g     F .text	00000010 _ZNSt12__cow_stringC1Ev
10022be8 g     F .text	0000007c alt_main
1001120c  w    F .text	00000008 _ZNKSt7__cxx1112basic_stringIcSt11char_traitsIcESaIcEE13_M_local_dataEv
10016fe8 g     F .text	000000cc _puts_r
10012990  w    F .text	0000004c _ZNSt7__cxx1112basic_stringIcSt11char_traitsIcESaIcEE6insertEjPKcj
100079ac  w    F .text	00000030 _ZNK9__gnu_cxx16__aligned_membufI9TileGroupE6_M_ptrEv
1002a68c g     O .bss	00000100 alt_irq
1000cff0 g     F .text	00000004 _ZN10__cxxabiv115__forced_unwindD1Ev
1000c66c g     F .text	00000008 _ZGTtNKSt13runtime_error4whatEv
1001281c  w    F .text	00000028 _ZNSt7__cxx1112basic_stringIcSt11char_traitsIcESaIcEE6assignEPKcj
10028600  w    O .rwdata	00000004 _ZNSs4nposE
1000ca84 g     F .text	000000e0 _ZGTtNSt15underflow_errorC2EPKc
1001bfcc g     F .text	00000064 _lseek_r
1000f71c  w    F .text	000000e4 _ZNSs6assignEPKcj
1000e344  w    F .text	00000090 _ZNKSs13find_first_ofEPKcjj
10013a60  w    F .text	00000050 _ZNKSt7__cxx1112basic_stringIcSt11char_traitsIcESaIcEE17find_first_not_ofEcj
10014c80 g     F .text	00000020 .hidden _Unwind_GetIPInfo
10010e6c  w    F .text	00000010 _ZNSs7replaceEN9__gnu_cxx17__normal_iteratorIPcSsEES2_PKcj
10012a44  w    F .text	00000050 _ZNSt7__cxx1112basic_stringIcSt11char_traitsIcESaIcEE6insertEjRKS4_
10028640 g       *ABS*	00000000 __flash_rwdata_start
10014780  w    F .text	00000098 _ZNKSt7__cxx1112basic_stringIcSt11char_traitsIcESaIcEE6substrEjj
10012f00  w    F .text	00000054 _ZNSt7__cxx1112basic_stringIcSt11char_traitsIcESaIcEE6insertEN9__gnu_cxx17__normal_iteratorIPcS4_EESt16initializer_listIcE
1001b9ec g     F .text	000000a4 __sflags
10021048 g     F .text	00000080 .hidden __eqdf2
1000bc5c g     F .text	000000e0 _ZGTtNSt12domain_errorC1EPKc
1000b47c g     F .text	00000030 _ZNSt12length_errorC2EPKc
1001121c  w    F .text	00000014 _ZNSt7__cxx1112basic_stringIcSt11char_traitsIcESaIcEE13_M_set_lengthEj
10008d64 g     F .text	00000084 __cxa_rethrow
10014c18 g     F .text	00000010 .hidden _Unwind_SjLj_Unregister
1000de78  w    F .text	00000018 _ZNKSs6rbeginEv
10008be4 g     F .text	00000014 _ZSt14set_unexpectedPFvvE
10008430  w    F .text	00000054 _ZNSt8_Rb_treeI9TileGroupS0_St9_IdentityIS0_ESt4lessIS0_ESaIS0_EE14_M_create_nodeIJRKS0_EEEPSt13_Rb_tree_nodeIS0_EDpOT_
1000e9a4  w    F .text	000000b0 _ZNKSs7compareEjjPKc
1001079c  w    F .text	000000a8 _ZNSs12_S_constructIN9__gnu_cxx17__normal_iteratorIPcSsEEEES2_T_S4_RKSaIcESt20forward_iterator_tag
1000dd94  w    F .text	00000024 _ZNSs13_S_copy_charsEPcN9__gnu_cxx17__normal_iteratorIS_SsEES2_
10014c70 g     F .text	00000010 .hidden _Unwind_GetIP
1002a78c g       *ABS*	00000000 __alt_heap_start
10012080  w    F .text	00000044 _ZNSt7__cxx1112basic_stringIcSt11char_traitsIcESaIcEE5eraseEN9__gnu_cxx17__normal_iteratorIPKcS4_EE
1000ba20 g     F .text	00000004 _Z23_txnal_cow_string_c_strPKv
1000d830 g     F .text	00000030 _ZNSt12length_errorC1ERKSs
10017620 g     F .text	00000060 _kill_r
1000dcb8  w    F .text	00000030 _ZNKSs15_M_check_lengthEjjPKc
1000f0b0  w    F .text	00000038 _ZNSs5beginEv
10008df8 g     F .text	00000010 _ZNSt9bad_allocD2Ev
10016f90 g     F .text	00000038 printf
1000ded0  w    F .text	00000010 _ZNKSs5crendEv
10014420  w    F .text	000000f8 _ZStplIcSt11char_traitsIcESaIcEENSt7__cxx1112basic_stringIT_T0_T1_EERKS8_SA_
10008318  w    F .text	00000038 _ZNSt13_Rb_tree_nodeI9TileGroupE9_M_valptrEv
1000fa84  w    F .text	0000000c _ZNSs6insertEN9__gnu_cxx17__normal_iteratorIPcSsEESt16initializer_listIcE
1001f19c g     F .text	0000006c _wcrtomb_r
1000c248 g     F .text	0000002c _ZGTtNSt12length_errorD0Ev
1000f8e8  w    F .text	0000019c _ZNSs6insertEjPKcj
100173d8 g     F .text	00000084 _signal_r
1000c848 g     F .text	00000008 _ZGTtNSt11range_errorD2Ev
10025e70  w    O .rodata	00000013 _ZTSSt14overflow_error
10006eb8  w    F .text	00000034 _ZNSaISt13_Rb_tree_nodeI9TileGroupEEC2Ev
1000df5c  w    F .text	00000014 _ZNKSs4backEv
10017760 g     F .text	0000005c __sseek
100154dc g     F .text	00000010 __sinit
1001ecb8 g     F .text	00000148 __swbuf_r
10007978  w    F .text	00000034 _ZNSt23_Rb_tree_const_iteratorI9TileGroupEC2EPKSt18_Rb_tree_node_base
10011dac  w    F .text	00000014 _ZNKSt7__cxx1112basic_stringIcSt11char_traitsIcESaIcEE4backEv
10009db0 g     F .text	0000002c __cxa_free_dependent_exception
1000cce4 g     F .text	00000010 _ZN10__cxxabiv120__si_class_type_infoD2Ev
1001f0bc g     F .text	00000070 _setlocale_r
10025b08  w    O .rodata	00000025 _ZTSN10__cxxabiv120__si_class_type_infoE
10013f5c  w    F .text	00000008 _ZNSt7__cxx1112basic_stringIcSt11char_traitsIcESaIcEE12_Alloc_hiderC2EPcRKS3_
10015364 g     F .text	00000068 __sfmoreglue
1000c14c g     F .text	000000f4 _ZGTtNSt12length_errorC2ERKNSt7__cxx1112basic_stringIcSt11char_traitsIcESaIcEEE
10022c88 g     F .text	00000024 __malloc_unlock
1000b1c0 g     F .text	00000070 _ZNSt11logic_errorC1ERKS_
1000ca84 g     F .text	000000e0 _ZGTtNSt15underflow_errorC1EPKc
1000cff0 g     F .text	00000004 _ZN10__cxxabiv115__forced_unwindD2Ev
10007f24  w    F .text	00000048 _ZNSt8_Rb_treeI9TileGroupS0_St9_IdentityIS0_ESt4lessIS0_ESaIS0_EE6_S_keyEPKSt18_Rb_tree_node_base
1000ea54  w    F .text	00000094 _ZNKSs7compareEjjPKcj
10010eac  w    F .text	00000060 _ZNSs7replaceEN9__gnu_cxx17__normal_iteratorIPcSsEES2_PKc
1000b588 g     F .text	00000030 _ZNSt11range_errorC2EPKc
10008a88 g     F .text	00000020 _ZSt18uncaught_exceptionv
10012b28  w    F .text	00000078 _ZNSt7__cxx1112basic_stringIcSt11char_traitsIcESaIcEE6insertEjPKc
10025ea4  w    O .rodata	0000000c _ZTISt15underflow_error
10011240  w    F .text	00000054 _ZNSt7__cxx1112basic_stringIcSt11char_traitsIcESaIcEE9_M_createERjj
10013854  w    F .text	00000040 _ZNKSt7__cxx1112basic_stringIcSt11char_traitsIcESaIcEE13find_first_ofEPKcj
1000b4ac g     F .text	00000030 _ZNSt12out_of_rangeC2EPKc
1000ecbc  w    F .text	00000040 _ZNSsC1EjcRKSaIcE
1000ede8  w    F .text	00000044 _ZNSsD2Ev
10006548 g     F .text	00000080 UsbGetRetryCnt
100079dc  w    F .text	000001a0 _ZNSt8_Rb_treeI9TileGroupS0_St9_IdentityIS0_ESt4lessIS0_ESaIS0_EE11equal_rangeERKS0_
1000885c  w    F .text	00000038 _ZNSt3setI9TileGroupSt4lessIS0_ESaIS0_EED2Ev
1000d030 g     F .text	00000020 __cxa_deleted_virtual
10011b00  w    F .text	00000100 _ZNSt7__cxx1112basic_stringIcSt11char_traitsIcESaIcEE7reserveEj
100138a4  w    F .text	0000008c _ZNKSt7__cxx1112basic_stringIcSt11char_traitsIcESaIcEE12find_last_ofEPKcjj
10010304  w    F .text	000000a8 _ZNSspLEc
10013184  w    F .text	0000002c _ZNSt7__cxx1112basic_stringIcSt11char_traitsIcESaIcEE6appendEPKcj
1000d9fc g     F .text	00000014 _ZNSt12__sso_stringC2EPKcj
1000bc20 g     F .text	00000008 _ZGTtNSt11logic_errorD1Ev
10013e14  w    F .text	000000b4 _ZNKSt7__cxx1112basic_stringIcSt11char_traitsIcESaIcEE7compareEjjPKc
10016ce0 g     F .text	0000012c memmove
10000514 g     F .text	000000fc IO_init
10006eb8  w    F .text	00000034 _ZNSaISt13_Rb_tree_nodeI9TileGroupEEC1Ev
1000daec g     F .text	00000018 _ZNSt12__sso_stringD2Ev
1000d9c8 g     F .text	00000014 _ZNSt12__sso_stringC1Ev
1000cfc0 g     F .text	00000004 _ZNSt9exceptionD2Ev
100154c8 g     F .text	00000014 _cleanup
10012180  w    F .text	0000013c _ZNSt7__cxx1112basic_stringIcSt11char_traitsIcESaIcEE14_M_replace_auxEjjjc
10010e20  w    F .text	0000004c _ZNSs7replaceEjjPKc
100050c4 g     F .text	000000c4 writePalette
1001c030 g     F .text	000000a4 _Balloc
1000e2a8  w    F .text	0000000c _ZNKSs5rfindERKSsj
10012844  w    F .text	00000038 _ZNSt7__cxx1112basic_stringIcSt11char_traitsIcESaIcEEaSESt16initializer_listIcE
1000ddb8  w    F .text	00000024 _ZNSs13_S_copy_charsEPcN9__gnu_cxx17__normal_iteratorIPKcSsEES4_
10011a68  w    F .text	00000010 _ZNSt7__cxx1112basic_stringIcSt11char_traitsIcESaIcEE4rendEv
1000faf0  w    F .text	00000040 _ZNSs6insertEjPKc
10025e14  w    O .rodata	00000011 _ZTSSt12out_of_range
10007e24  w    F .text	0000003c _ZNKSt4lessI9TileGroupEclERKS0_S3_
10025ca8  w    O .rodata	0000000c _ZTISt8bad_cast
10007edc  w    F .text	00000048 _ZNSt17_Rb_tree_iteratorI9TileGroupEmmEv
1000f8ac  w    F .text	00000038 _ZNSsaSEPKc
100146f8  w    F .text	00000014 _ZNSt7__cxx1112basic_stringIcSt11char_traitsIcESaIcEEC1EPKcjRKS3_
10007864  w    F .text	00000024 _ZSt7forwardISt17_Rb_tree_iteratorI9TileGroupEEOT_RNSt16remove_referenceIS3_E4typeE
100080ac  w    F .text	000000a4 _ZNSt8_Rb_treeI9TileGroupS0_St9_IdentityIS0_ESt4lessIS0_ESaIS0_EE14_M_upper_boundEPSt13_Rb_tree_nodeIS0_EPSt18_Rb_tree_node_baseRKS0_
1000ba64 g     F .text	000000d4 _ZGTtNSt11logic_errorC2EPKc
1000b634 g     F .text	00000004 _ZNSt12__cow_stringC2ERKSs
100210c8 g     F .text	000000f0 .hidden __gtdf2
10025c14  w    O .rodata	00000014 _ZTVSt13bad_exception
100249c0 g     F .text	00000024 altera_nios2_gen2_irq_init
10009f08 g     F .text	00000004 _ZSt18_Rb_tree_decrementPSt18_Rb_tree_node_base
10011934  w    F .text	000000d4 _ZNSt7__cxx1112basic_stringIcSt11char_traitsIcESaIcEEaSEOS4_
1000686c g     F .text	00000034 clearQueue
1000d6b0 g     F .text	00000034 _ZNSt14overflow_errorD0Ev
1000876c  w    F .text	00000060 _ZN9__gnu_cxx13new_allocatorISt13_Rb_tree_nodeI9TileGroupEE8allocateEjPKv
10011a10  w    F .text	00000008 _ZNKSt7__cxx1112basic_stringIcSt11char_traitsIcESaIcEE5beginEv
10000000 g     F .entry	0000001c __reset
1001bfac g     F .text	00000008 __localeconv_l
1000c06c g     F .text	000000e0 _ZGTtNSt12length_errorC2EPKc
1000bf44 g     F .text	000000f4 _ZGTtNSt16invalid_argumentC2ERKNSt7__cxx1112basic_stringIcSt11char_traitsIcESaIcEEE
100285f8  w    O .rwdata	00000001 _ZNSs4_Rep11_S_terminalE
1000d6a0 g     F .text	00000010 _ZNSt14overflow_errorD2Ev
10014cbc g     F .text	00000008 .hidden _Unwind_GetRegionStart
1000df70  w    F .text	00000088 _ZNKSs4copyEPcjj
1000b5e8 g     F .text	00000030 _ZNSt15underflow_errorC1EPKc
10000020 g       *ABS*	00000000 __flash_exceptions_start
10012cc8  w    F .text	00000064 _ZNSt7__cxx1112basic_stringIcSt11char_traitsIcESaIcEE7replaceEN9__gnu_cxx17__normal_iteratorIPKcS4_EES9_St16initializer_listIcE
1000d58c g     F .text	00000010 _ZNSt12out_of_rangeD2Ev
100113a4  w    F .text	0000002c _ZNKSt7__cxx1112basic_stringIcSt11char_traitsIcESaIcEE15_M_check_lengthEjjPKc
10015ecc g     F .text	00000060 _fstat_r
10007728  w    F .text	00000034 _ZNSt8_Rb_treeI9TileGroupS0_St9_IdentityIS0_ESt4lessIS0_ESaIS0_EE11_Alloc_nodeC2ERS6_
1000edc4  w    F .text	00000024 _ZNSs4_Rep10_M_disposeERKSaIcE
1002a518 g     O .bss	00000004 errno
1000f650  w    F .text	00000018 _ZNSs7replaceEN9__gnu_cxx17__normal_iteratorIPcSsEES2_jc
10001ecc g     F .text	000002e0 det_goal_pos
100176d8 g     F .text	00000008 __seofread
1000775c  w    F .text	00000108 _ZNSt8_Rb_treeI9TileGroupS0_St9_IdentityIS0_ESt4lessIS0_ESaIS0_EE10_M_insert_IRKS0_NS6_11_Alloc_nodeEEESt17_Rb_tree_iteratorIS0_EPSt18_Rb_tree_node_baseSE_OT_RT0_
10006e80  w    F .text	00000038 _ZNSt3setI9TileGroupSt4lessIS0_ESaIS0_EE5clearEv
1000e930  w    F .text	00000074 _ZNKSs7compareEPKc
100103e0  w    F .text	0000005c _ZNSsC1ERKSs
1000c040 g     F .text	0000002c _ZGTtNSt16invalid_argumentD0Ev
100084dc  w    F .text	0000003c _ZN9__gnu_cxx13new_allocatorISt13_Rb_tree_nodeI9TileGroupEE10deallocateEPS3_j
10014e90 g     F .text	00000088 .hidden _Unwind_Backtrace
10007700  w    F .text	00000028 _ZNKSt9_IdentityI9TileGroupEclERKS0_
10011e5c  w    F .text	0000009c _ZNSt7__cxx1112basic_stringIcSt11char_traitsIcESaIcEE9push_backEc
1002a530 g     O .bss	00000004 alt_argv
1000f6a0  w    F .text	0000007c _ZNSs15_M_replace_safeEjjPKcj
100145f0  w    F .text	00000048 _ZNSt7__cxx1112basic_stringIcSt11char_traitsIcESaIcEEC2ERKS4_jRKS3_
10006648 g     F .text	00000058 addToSet
100305c8 g       *ABS*	00000000 _gp
10023134 g     F .text	00000030 usleep
10014638  w    F .text	00000060 _ZNSt7__cxx1112basic_stringIcSt11char_traitsIcESaIcEEC1ERKS4_jj
1000d0c4 g     F .text	00000038 _ZNSt10bad_typeidD0Ev
1000d6a0 g     F .text	00000010 _ZNSt14overflow_errorD1Ev
100073b8  w    F .text	00000028 _ZNSt8_Rb_treeI9TileGroupS0_St9_IdentityIS0_ESt4lessIS0_ESaIS0_EE8_S_rightEPSt18_Rb_tree_node_base
10007f6c  w    F .text	00000050 _ZNKSt8_Rb_treeI9TileGroupS0_St9_IdentityIS0_ESt4lessIS0_ESaIS0_EE11_Alloc_nodeclIRKS0_EEPSt13_Rb_tree_nodeIS0_EOT_
10013894  w    F .text	00000010 _ZNKSt7__cxx1112basic_stringIcSt11char_traitsIcESaIcEE13find_first_ofEcj
1000d070 g     F .text	00000038 _ZNSt8bad_castD0Ev
1000142c g     F .text	00000aa0 blinkys_move
10022784 g     F .text	00000020 getpid
1000eafc  w    F .text	0000000c _ZNKSs4_Rep12_M_is_leakedEv
1001397c  w    F .text	00000010 _ZNKSt7__cxx1112basic_stringIcSt11char_traitsIcESaIcEE12find_last_ofEcj
100099a4 g     F .text	00000180 __cxa_call_unexpected
10008924 g     F .text	00000008 __cxa_get_exception_ptr
10013f64  w    F .text	00000008 _ZNSt7__cxx1112basic_stringIcSt11char_traitsIcESaIcEE12_Alloc_hiderC2EPcOS3_
1000754c  w    F .text	000001b4 _ZNSt8_Rb_treeI9TileGroupS0_St9_IdentityIS0_ESt4lessIS0_ESaIS0_EE24_M_get_insert_unique_posERKS0_
10010ff4  w    F .text	0000003c _ZNSsC2ESt16initializer_listIcERKSaIcE
1000da10 g     F .text	0000007c _ZNSt12__sso_stringC2ERKS_
100273e8 g     O .rwdata	00000180 alt_fd_list
1000d548 g     F .text	00000010 _ZNSt12length_errorD2Ev
1001470c  w    F .text	00000050 _ZNSt7__cxx1112basic_stringIcSt11char_traitsIcESaIcEEC2EPKcRKS3_
1000b44c g     F .text	00000030 _ZNSt16invalid_argumentC1EPKc
100071f0  w    F .text	00000044 _ZNKSt8_Rb_treeI9TileGroupS0_St9_IdentityIS0_ESt4lessIS0_ESaIS0_EE3endEv
10014400  w    F .text	00000020 _ZNSt7__cxx1112basic_stringIcSt11char_traitsIcESaIcEEC1ERKS4_
1000699c  w    F .text	0000003c _ZNSt15_Rb_tree_headerC2Ev
10025f00  w    O .rodata	00000014 _ZTVSt12out_of_range
10016fc8 g     F .text	00000008 _putchar_r
10014da4 g     F .text	00000044 .hidden _Unwind_SjLj_ForcedUnwind
1000db04 g     F .text	00000078 _ZNSt12__sso_stringC1EOS_
10014c40 g     F .text	00000018 .hidden _Unwind_GetCFA
10008bc4 g     F .text	00000014 _ZSt13set_terminatePFvvE
100241f0 g     F .text	00000090 alt_find_dev
10016be0 g     F .text	00000100 memcpy
1000de38  w    F .text	00000010 _ZNSsC2Ev
100122bc  w    F .text	00000034 _ZNSt7__cxx1112basic_stringIcSt11char_traitsIcESaIcEE6appendEjc
10009d68 g     F .text	00000048 __cxa_allocate_dependent_exception
10006810 g     F .text	0000005c hasRemain
10011030  w    F .text	0000003c _ZNSsC1IPKcEET_S2_RKSaIcE
100151e8 g     F .text	0000000c _cleanup_r
1000d174 g     F .text	00000018 _ZNK10__cxxabiv117__class_type_info20__do_find_public_srcEiPKvPKS0_S2_
10022374 g     F .text	000000c8 .hidden __floatsidf
10011730  w    F .text	00000084 _ZNSt7__cxx1112basic_stringIcSt11char_traitsIcESaIcEE8_M_eraseEjj
100247a0 g     F .text	0000007c alt_io_redirect
100211b8 g     F .text	000000f0 .hidden __ltdf2
10025f28  w    O .rodata	00000014 _ZTVSt11range_error
1000d5d0 g     F .text	00000064 _ZNSt13runtime_errorD2Ev
10007fbc  w    F .text	00000024 _ZSt7forwardIbEOT_RNSt16remove_referenceIS0_E4typeE
1000ac24 g     F .text	000000ac _ZSt21__throw_runtime_errorPKc
10024eac g       *ABS*	00000000 __DTOR_END__
1000e2b4  w    F .text	00000040 _ZNKSs5rfindEPKcj
1000d728 g     F .text	000000a8 _ZNSt11logic_errorC2ERKSs
1000d18c g     F .text	00000010 _ZN10__cxxabiv117__class_type_infoD1Ev
10025ed8  w    O .rodata	00000014 _ZTVSt16invalid_argument
1000e420  w    F .text	00000010 _ZNKSs13find_first_ofEcj
1001107c  w    F .text	00000010 _ZN9__gnu_cxxeqIPKcSsEEbRKNS_17__normal_iteratorIT_T0_EES8_
100170b4 g     F .text	00000010 puts
10024a74 g     F .text	00000098 alt_exception_cause_generated_bad_addr
100104e0  w    F .text	00000100 _ZStplIcSt11char_traitsIcESaIcEESbIT_T0_T1_EPKS3_RKS6_
1000c638 g     F .text	00000008 _ZGTtNSt13runtime_errorD1Ev
1000d938 g     F .text	00000030 _ZNSt11range_errorC2ERKSs
1000e08c  w    F .text	000000d8 _ZNKSs4findEPKcjj
1000bf44 g     F .text	000000f4 _ZGTtNSt16invalid_argumentC1ERKNSt7__cxx1112basic_stringIcSt11char_traitsIcESaIcEEE
10011294  w    F .text	00000018 _ZNSt7__cxx1112basic_stringIcSt11char_traitsIcESaIcEE10_M_disposeEv
1000db7c g     F .text	000000d4 _ZNSt12__sso_stringaSEOS_
1001cd70 g     F .text	000000a8 __ratio
100104dc  w    F .text	00000004 _ZNSsaSERKSs
1000bc28 g     F .text	0000002c _ZGTtNSt11logic_errorD0Ev
10025e28  w    O .rodata	0000000c _ZTISt12out_of_range
1001ebe0 g     F .text	00000018 __vfiprintf_internal
1001371c  w    F .text	0000000c _ZNKSt7__cxx1112basic_stringIcSt11char_traitsIcESaIcEE5rfindERKS4_j
10008230  w    F .text	00000058 _ZNSt23_Rb_tree_const_iteratorI9TileGroupEppEi
100137b8  w    F .text	00000090 _ZNKSt7__cxx1112basic_stringIcSt11char_traitsIcESaIcEE13find_first_ofEPKcjj
100112ac  w    F .text	00000008 _ZNSt7__cxx1112basic_stringIcSt11char_traitsIcESaIcEE10_M_destroyEj
10010aac  w    F .text	0000003c _ZNSsC2EPKcjRKSaIcE
1000c638 g     F .text	00000008 _ZGTtNSt13runtime_errorD2Ev
10023974 g     F .text	0000021c altera_avalon_jtag_uart_read
10016258 g     F .text	00000010 malloc
10016f60 g     F .text	00000030 _printf_r
10006c68  w    F .text	00000080 _ZNSt8_Rb_treeI9TileGroupS0_St9_IdentityIS0_ESt4lessIS0_ESaIS0_EED2Ev
00000000 g       *ABS*	00000000 __alt_mem_onchip_memory2_0
10014930 g     F .text	00000064 .hidden __udivsi3
1000f828  w    F .text	0000004c _ZNSs6assignERKSsjj
100227e0 g     F .text	000000a4 isatty
10012fe0  w    F .text	0000009c _ZNSt7__cxx1112basic_stringIcSt11char_traitsIcESaIcEE7replaceEjjRKS4_jj
1001745c g     F .text	000000bc _raise_r
1000dce8  w    F .text	00000018 _ZNKSs8_M_limitEjj
10026558 g     O .rodata	000000c8 __mprec_tens
1000ad7c g     F .text	000000ac _ZSt22__throw_overflow_errorPKc
10006d6c  w    F .text	00000034 _ZNKSt3setI9TileGroupSt4lessIS0_ESaIS0_EE5beginEv
1000d860 g     F .text	00000030 _ZNSt12out_of_rangeC2ERKSs
10011ae4  w    F .text	0000001c _ZNKSt7__cxx1112basic_stringIcSt11char_traitsIcESaIcEE8capacityEv
1000dd60  w    F .text	00000034 _ZNSs9_M_assignEPcjc
10007450  w    F .text	0000005c _ZNSt4pairIPSt18_Rb_tree_node_baseS1_EC2IRPSt13_Rb_tree_nodeI9TileGroupERS1_Lb1EEEOT_OT0_
10006fcc  w    F .text	00000024 _ZSt7forwardIRK9TileGroupEOT_RNSt16remove_referenceIS3_E4typeE
100124d8  w    F .text	00000018 _ZNSt7__cxx1112basic_stringIcSt11char_traitsIcESaIcEE7replaceEN9__gnu_cxx17__normal_iteratorIPKcS4_EES9_jc
100249e4 g     F .text	00000090 alt_icache_flush
1000dee0  w    F .text	0000000c _ZNKSs4sizeEv
100134e8  w    F .text	00000008 _ZNKSt7__cxx1112basic_stringIcSt11char_traitsIcESaIcEE4dataEv
1002a524 g     O .bss	00000004 __malloc_top_pad
10005bd4 g     F .text	00000268 UsbGetConfigDesc2
10008518  w    F .text	0000003c _ZNSt8_Rb_treeI9TileGroupS0_St9_IdentityIS0_ESt4lessIS0_ESaIS0_EE11_M_get_nodeEv
10017680 g     F .text	00000004 _getpid_r
1000b370 g     F .text	000000ac _ZNSt11logic_errorC2EPKc
1000bb38 g     F .text	000000e8 _ZGTtNSt11logic_errorC2ERKNSt7__cxx1112basic_stringIcSt11char_traitsIcESaIcEEE
10017ba0 g     F .text	00000018 strtoul
1000838c  w    F .text	00000044 _ZNSt16allocator_traitsISaISt13_Rb_tree_nodeI9TileGroupEEE10deallocateERS3_PS2_j
100078e8  w    F .text	00000034 _ZNSt17_Rb_tree_iteratorI9TileGroupEC1EPSt18_Rb_tree_node_base
100100ac  w    F .text	00000038 _ZNSs6appendEPKc
100134e0  w    F .text	00000008 _ZNKSt7__cxx1112basic_stringIcSt11char_traitsIcESaIcEE5c_strEv
1000c754 g     F .text	000000f4 _ZGTtNSt11range_errorC1ERKNSt7__cxx1112basic_stringIcSt11char_traitsIcESaIcEEE
1001bfb4 g     F .text	0000000c _localeconv_r
10009cb8 g     F .text	00000030 _ZN9__gnu_cxx9__freeresEv
10008aa8 g     F .text	0000001c _ZSt19uncaught_exceptionsv
1001c430 g     F .text	00000034 __i2b
1001ba90 g     F .text	000004c4 __sfvwrite_r
10013c30  w    F .text	00000098 _ZNKSt7__cxx1112basic_stringIcSt11char_traitsIcESaIcEE7compareEjjRKS4_
1000d30c g     F .text	000000b8 _ZNK10__cxxabiv117__class_type_info10__do_catchEPKSt9type_infoPPvj
10017518 g     F .text	000000b8 __sigtramp_r
1000dc70  w    F .text	00000008 _ZNKSs9_M_ibeginEv
1000d890 g     F .text	000000a8 _ZNSt13runtime_errorC2ERKSs
1000e430  w    F .text	0000008c _ZNKSs12find_last_ofEPKcjj
100131b0  w    F .text	00000060 _ZNSt7__cxx1112basic_stringIcSt11char_traitsIcESaIcEE6appendEPKc
1000c850 g     F .text	0000002c _ZGTtNSt11range_errorD0Ev
10017320 g     F .text	00000058 _sbrk_r
100109d0  w    F .text	00000074 _ZNSsC2ERKSsjjRKSaIcE
100108ac  w    F .text	00000064 _ZNSsC1ERKSsjRKSaIcE
1000cfc8 g     F .text	0000000c _ZGTtNKSt9exception4whatEv
10010258  w    F .text	00000008 _ZNSs6resizeEj
10025d74  w    O .rodata	00000020 _ZTVSt9type_info
10008350  w    F .text	0000003c _ZNSt16allocator_traitsISaISt13_Rb_tree_nodeI9TileGroupEEE7destroyIS1_EEvRS3_PT_
10025dd0  w    O .rodata	00000015 _ZTSSt16invalid_argument
1000a738 g     F .text	00000034 _ZSt17__throw_bad_allocv
1001108c g     F .text	000000a4 _ZNSt13random_device7_M_initERKSs
1000bc5c g     F .text	000000e0 _ZGTtNSt12domain_errorC2EPKc
1001d118 g     F .text	00000064 _read_r
1000cfc8 g     F .text	0000000c _ZNKSt9exception4whatEv
1000fa90  w    F .text	00000060 _ZNSs6insertEjRKSsjj
100123c8  w    F .text	00000058 _ZNSt7__cxx1112basic_stringIcSt11char_traitsIcESaIcEE6insertEjjc
1000ba64 g     F .text	000000d4 _ZGTtNSt11logic_errorC1EPKc
10008150  w    F .text	00000064 _ZNSt4pairISt17_Rb_tree_iteratorI9TileGroupES2_EC2IS2_S2_Lb1EEEOT_OT0_
10028628 g     O .rwdata	00000004 alt_max_fd
1001b8e4 g     F .text	000000f8 _fclose_r
10025a70  w    O .rodata	0000000c _ZTISt9bad_alloc
1000dc64  w    F .text	0000000c _ZNKSs6_M_repEv
100151b8 g     F .text	00000028 fflush
10006f10  w    F .text	00000024 _ZN9__gnu_cxx13new_allocatorISt13_Rb_tree_nodeI9TileGroupEED2Ev
1002a520 g     O .bss	00000004 __malloc_max_sbrked_mem
1000f360  w    F .text	00000050 _ZNSs5eraseEN9__gnu_cxx17__normal_iteratorIPcSsEE
10012944  w    F .text	0000004c _ZNSt7__cxx1112basic_stringIcSt11char_traitsIcESaIcEEaSEPKc
1000c038 g     F .text	00000008 _ZGTtNSt16invalid_argumentD1Ev
1001043c  w    F .text	000000a0 _ZNSs6assignERKSs
10008554  w    F .text	0000016c _ZNSt8_Rb_treeI9TileGroupS0_St9_IdentityIS0_ESt4lessIS0_ESaIS0_EE17_M_construct_nodeIJRKS0_EEEvPSt13_Rb_tree_nodeIS0_EDpOT_
1000b47c g     F .text	00000030 _ZNSt12length_errorC1EPKc
10003448 g     F .text	00000088 gbPalette
100128f0  w    F .text	00000054 _ZNSt7__cxx1112basic_stringIcSt11char_traitsIcESaIcEE7replaceEjjPKcj
1000bc20 g     F .text	00000008 _ZGTtNSt11logic_errorD2Ev
1000a6d0 g     F .text	00000034 _ZSt20_Rb_tree_black_countPKSt18_Rb_tree_node_baseS1_
1000e04c  w    F .text	00000028 _ZNSs6assignEOSs
1001fe00 g     F .text	000009a0 .hidden __adddf3
10025b3c  w    O .rodata	0000002c _ZTVN10__cxxabiv120__si_class_type_infoE
10006be4  w    F .text	00000050 _ZNSt8_Rb_treeI9TileGroupS0_St9_IdentityIS0_ESt4lessIS0_ESaIS0_EE13_Rb_tree_implIS4_Lb1EEC1Ev
10006b74  w    F .text	00000038 _ZNSt8_Rb_treeI9TileGroupS0_St9_IdentityIS0_ESt4lessIS0_ESaIS0_EEC2Ev
1000ede8  w    F .text	00000044 _ZNSsD1Ev
1001cb24 g     F .text	00000104 __b2d
10011404  w    F .text	00000020 _ZNSt7__cxx1112basic_stringIcSt11char_traitsIcESaIcEE7_S_copyEPcPKcj
1000ba28 g     F .text	0000002c _Z20_txnal_cow_string_D1Pv
10007394  w    F .text	00000024 _ZN9__gnu_cxx13new_allocatorISt13_Rb_tree_nodeI9TileGroupEEC1Ev
1000b624 g     F .text	00000010 _ZNSt12__cow_stringC2Ev
1000d060 g     F .text	00000010 _ZNSt8bad_castD1Ev
1001f8c0 g     F .text	00000540 .hidden __umoddi3
1000f668  w    F .text	00000038 _ZNSs6insertEN9__gnu_cxx17__normal_iteratorIPcSsEEjc
10022b14 g     F .text	000000d4 lseek
10012c64  w    F .text	00000064 _ZNSt7__cxx1112basic_stringIcSt11char_traitsIcESaIcEE7replaceEN9__gnu_cxx17__normal_iteratorIPKcS4_EES9_S8_S8_
10007450  w    F .text	0000005c _ZNSt4pairIPSt18_Rb_tree_node_baseS1_EC1IRPSt13_Rb_tree_nodeI9TileGroupERS1_Lb1EEEOT_OT0_
1000f134  w    F .text	00000048 _ZNSs3endEv
1000d9c8 g     F .text	00000014 _ZNSt12__sso_stringC2Ev
1000d2a0 g     F .text	0000006c _ZNK10__cxxabiv117__class_type_info11__do_upcastEPKS0_PKvRNS0_15__upcast_resultE
10025eb0  w    O .rodata	00000014 _ZTVSt11logic_error
10008de8 g     F .text	00000004 _ZdlPv
1000d558 g     F .text	00000034 _ZNSt12length_errorD0Ev
10028608 g     O .rwdata	00000004 _global_impure_ptr
1001d17c g     F .text	0000062c _realloc_r
1000b034 g     F .text	00000150 _ZN9__gnu_cxx15__snprintf_liteEPcjPKcPv
10006c34  w    F .text	00000034 _ZNSaISt13_Rb_tree_nodeI9TileGroupEED2Ev
1002a78c g       *ABS*	00000000 __bss_end
10008918 g     F .text	0000000c _ZSt15get_new_handlerv
1002460c g     F .text	000000e4 alt_iic_isr_register
100248b8 g     F .text	00000108 alt_tick
10014c00 g     F .text	00000018 .hidden _Unwind_SjLj_Register
100134f8  w    F .text	000000d8 _ZNKSt7__cxx1112basic_stringIcSt11char_traitsIcESaIcEE4findEPKcjj
10014828  w    F .text	00000010 _ZN9__gnu_cxxeqIPKcNSt7__cxx1112basic_stringIcSt11char_traitsIcESaIcEEEEEbRKNS_17__normal_iteratorIT_T0_EESE_
1000cb64 g     F .text	000000f4 _ZGTtNSt15underflow_errorC2ERKNSt7__cxx1112basic_stringIcSt11char_traitsIcESaIcEEE
1001f328 g     F .text	00000598 .hidden __udivdi3
100124f0  w    F .text	00000058 _ZNSt7__cxx1112basic_stringIcSt11char_traitsIcESaIcEE6insertEN9__gnu_cxx17__normal_iteratorIPKcS4_EEjc
10011214  w    F .text	00000008 _ZNSt7__cxx1112basic_stringIcSt11char_traitsIcESaIcEE11_M_capacityEj
10025f3c  w    O .rodata	00000014 _ZTVSt14overflow_error
1000b618 g     F .text	0000000c _ZNSt12__sso_stringC2ERKSs
1001f01c g     F .text	00000024 _fputwc_r
1000a9d8 g     F .text	000000ac _ZSt20__throw_length_errorPKc
10009f04 g     F .text	00000004 _ZSt18_Rb_tree_incrementPKSt18_Rb_tree_node_base
10026530 g     O .rodata	00000028 __mprec_bigtens
1001c20c g     F .text	00000110 __s2b
1000b5b8 g     F .text	00000030 _ZNSt14overflow_errorC2EPKc
10014f18 g     F .text	00000018 abort
100134f0  w    F .text	00000008 _ZNKSt7__cxx1112basic_stringIcSt11char_traitsIcESaIcEE13get_allocatorEv
1002243c g     F .text	0000009c .hidden __floatunsidf
1000dc88  w    F .text	00000030 _ZNKSs8_M_checkEjPKc
1000fb7c  w    F .text	00000024 _ZNSs4_Rep10_M_refcopyEv
1001c8b4 g     F .text	00000058 __mcmp
10007120  w    F .text	00000024 _ZSt7forwardIRSt17_Rb_tree_iteratorI9TileGroupEEOT_RNSt16remove_referenceIS4_E4typeE
10005624 g     F .text	00000100 UsbSetAddress
100089d8 g     F .text	000000b0 __cxa_end_catch
10007394  w    F .text	00000024 _ZN9__gnu_cxx13new_allocatorISt13_Rb_tree_nodeI9TileGroupEEC2Ev
10012d2c  w    F .text	0000006c _ZNSt7__cxx1112basic_stringIcSt11char_traitsIcESaIcEE7replaceEN9__gnu_cxx17__normal_iteratorIPKcS4_EES9_RKS4_
100154fc g     F .text	00000014 __fp_lock_all
1000cc60 g     F .text	0000002c _ZGTtNSt15underflow_errorD0Ev
100245c0 g     F .text	0000004c alt_ic_irq_enabled
10011d60  w    F .text	00000028 _ZNSt7__cxx1112basic_stringIcSt11char_traitsIcESaIcEE2atEj
10006fa4  w    F .text	00000028 _ZNSt8_Rb_treeI9TileGroupS0_St9_IdentityIS0_ESt4lessIS0_ESaIS0_EE8_M_beginEv
1000cfc4 g     F .text	00000004 _ZNSt13bad_exceptionD2Ev
10010ff4  w    F .text	0000003c _ZNSsC1ESt16initializer_listIcERKSaIcE
1002481c g     F .text	0000009c alt_alarm_stop
10011378  w    F .text	0000002c _ZNKSt7__cxx1112basic_stringIcSt11char_traitsIcESaIcEE8_M_checkEjPKc
1000eb08  w    F .text	0000000c _ZNKSs4_Rep12_M_is_sharedEv
1000dc50  w    F .text	00000008 _ZNKSs7_M_dataEv
1002a538 g     O .bss	00000004 alt_irq_active
10014638  w    F .text	00000060 _ZNSt7__cxx1112basic_stringIcSt11char_traitsIcESaIcEEC2ERKS4_jj
10011d2c  w    F .text	0000000c _ZNSt7__cxx1112basic_stringIcSt11char_traitsIcESaIcEEixEj
10015a5c g     F .text	00000458 _fseeko_r
10008b8c g     F .text	00000014 _ZSt9terminatev
1000ab30 g     F .text	000000f4 _ZSt24__throw_out_of_range_fmtPKcz
10012c00  w    F .text	00000064 _ZNSt7__cxx1112basic_stringIcSt11char_traitsIcESaIcEE7replaceEN9__gnu_cxx17__normal_iteratorIPKcS4_EES9_PcSA_
1000d6e4 g     F .text	00000010 _ZNSt15underflow_errorD1Ev
1000a92c g     F .text	000000ac _ZSt24__throw_invalid_argumentPKc
10006c68  w    F .text	00000080 _ZNSt8_Rb_treeI9TileGroupS0_St9_IdentityIS0_ESt4lessIS0_ESaIS0_EED1Ev
100000fc g     F .exceptions	000000c8 alt_irq_handler
1000f874  w    F .text	00000038 _ZNSs6assignEPKc
100273c0 g     O .rwdata	00000028 alt_dev_null
100103ac  w    F .text	00000034 _ZNSs4_Rep7_M_grabERKSaIcES2_
10011a88  w    F .text	00000008 _ZNKSt7__cxx1112basic_stringIcSt11char_traitsIcESaIcEE6cbeginEv
10007d38  w    F .text	0000007c _ZNSt8_Rb_treeI9TileGroupS0_St9_IdentityIS0_ESt4lessIS0_ESaIS0_EE11_M_put_nodeEPSt13_Rb_tree_nodeIS0_E
1000df54  w    F .text	00000008 _ZNKSs5frontEv
1000c640 g     F .text	0000002c _ZGTtNSt13runtime_errorD0Ev
1000d498 g     F .text	00000028 _ZNSt11logic_errorD0Ev
10010ae8  w    F .text	000002ac _ZNSs7replaceEjjPKcj
1000cffc g     F .text	00000004 _ZN10__cxxabiv119__foreign_exceptionD2Ev
10011ff4  w    F .text	0000008c _ZNSt7__cxx1112basic_stringIcSt11char_traitsIcESaIcEE5eraseEjj
100128a4  w    F .text	0000004c _ZNSt7__cxx1112basic_stringIcSt11char_traitsIcESaIcEE6assignEPKc
1000b5e8 g     F .text	00000030 _ZNSt15underflow_errorC2EPKc
10007ddc  w    F .text	00000048 _ZNSt8_Rb_treeI9TileGroupS0_St9_IdentityIS0_ESt4lessIS0_ESaIS0_EE6_S_keyEPKSt13_Rb_tree_nodeIS0_E
1001186c  w    F .text	00000088 _ZNSt7__cxx1112basic_stringIcSt11char_traitsIcESaIcEEC2EOS4_RKS3_
1000b184 g     F .text	0000003c _Z27_txnal_cow_string_D1_commitPv
1001312c  w    F .text	0000000c _ZNSt7__cxx1112basic_stringIcSt11char_traitsIcESaIcEEpLERKS4_
1000b618 g     F .text	0000000c _ZNSt12__sso_stringC1ERKSs
10025d08  w    O .rodata	00000022 _ZTSN10__cxxabiv117__class_type_infoE
100086e4  w    F .text	0000003c _ZNSt16allocator_traitsISaISt13_Rb_tree_nodeI9TileGroupEEE8allocateERS3_j
10006c34  w    F .text	00000034 _ZNSaISt13_Rb_tree_nodeI9TileGroupEED1Ev
10024008 g     F .text	00000048 alt_dcache_flush_all
1001c31c g     F .text	00000064 __hi0bits
1001186c  w    F .text	00000088 _ZNSt7__cxx1112basic_stringIcSt11char_traitsIcESaIcEEC1EOS4_RKS3_
10011424  w    F .text	00000020 _ZNSt7__cxx1112basic_stringIcSt11char_traitsIcESaIcEE7_S_moveEPcPKcj
100285d4  w    O .rwdata	00000008 _ZTISt9exception
10000684 g     F .text	00000068 IO_read
100222f4 g     F .text	00000080 .hidden __fixdfsi
1000de90  w    F .text	00000010 _ZNKSs4rendEv
10010d94  w    F .text	00000024 _ZNSs7replaceEjjRKSs
1000ca50 g     F .text	00000008 _ZGTtNSt14overflow_errorD1Ev
100112b4  w    F .text	000000a4 _ZNSt7__cxx1112basic_stringIcSt11char_traitsIcESaIcEE12_M_constructEjc
100117dc  w    F .text	00000018 _ZNSt7__cxx1112basic_stringIcSt11char_traitsIcESaIcEEC2EjcRKS3_
100083d0  w    F .text	00000030 _ZNSt8_Rb_treeI9TileGroupS0_St9_IdentityIS0_ESt4lessIS0_ESaIS0_EE8_S_valueEPKSt13_Rb_tree_nodeIS0_E
10013da0  w    F .text	00000074 _ZNKSt7__cxx1112basic_stringIcSt11char_traitsIcESaIcEE7compareEPKc
1000885c  w    F .text	00000038 _ZNSt3setI9TileGroupSt4lessIS0_ESaIS0_EED1Ev
1000fc4c  w    F .text	00000094 _ZNSs7reserveEj
1000bc54 g     F .text	00000008 _ZGTtNKSt11logic_error4whatEv
10006f10  w    F .text	00000024 _ZN9__gnu_cxx13new_allocatorISt13_Rb_tree_nodeI9TileGroupEED1Ev
100087cc  w    F .text	00000068 _ZN9__gnu_cxx13new_allocatorISt13_Rb_tree_nodeI9TileGroupEE9constructIS2_JRKS2_EEEvPT_DpOT0_
10028640 g       *ABS*	00000000 __ram_rwdata_end
10011368  w    F .text	00000008 _ZNSt7__cxx1112basic_stringIcSt11char_traitsIcESaIcEE16_M_get_allocatorEv
1000d3c4 g     F .text	00000004 _ZNSt9type_infoD1Ev
1000da10 g     F .text	0000007c _ZNSt12__sso_stringC1ERKS_
10028620 g     O .rwdata	00000008 alt_dev_list
1000cffc g     F .text	00000004 _ZN10__cxxabiv119__foreign_exceptionD1Ev
10025db0  w    O .rodata	00000011 _ZTSSt12domain_error
100231a0 g     F .text	000000f8 write
1000b230 g     F .text	00000068 _ZNSt11logic_erroraSERKS_
1001cf6c g     F .text	000000cc _putc_r
1000c240 g     F .text	00000008 _ZGTtNSt12length_errorD1Ev
10007528  w    F .text	00000024 _ZSt7forwardIRPSt18_Rb_tree_node_baseEOT_RNSt16remove_referenceIS3_E4typeE
10008484  w    F .text	00000030 _ZN9__gnu_cxx16__aligned_membufI9TileGroupE6_M_ptrEv
10006e0c  w    F .text	00000038 _ZNKSt23_Rb_tree_const_iteratorI9TileGroupEdeEv
10007fe0  w    F .text	00000024 _ZNK9__gnu_cxx16__aligned_membufI9TileGroupE7_M_addrEv
1000f0e8  w    F .text	0000004c _ZNSs4rendEv
100117b4  w    F .text	00000014 _ZNSt7__cxx1112basic_stringIcSt11char_traitsIcESaIcEEC1Ev
1000d3d8 g     F .text	00000008 _ZNSt9type_infoD0Ev
1001475c  w    F .text	00000014 _ZNSt7__cxx1112basic_stringIcSt11char_traitsIcESaIcEEC2ESt16initializer_listIcERKS3_
1000d5d0 g     F .text	00000064 _ZNSt13runtime_errorD1Ev
1000c06c g     F .text	000000e0 _ZGTtNSt12length_errorC1EPKc
100135dc  w    F .text	00000040 _ZNKSt7__cxx1112basic_stringIcSt11char_traitsIcESaIcEE4findEPKcj
10026784 g       *ABS*	00000000 __ram_rodata_end
1000d050 g     F .text	00000004 _ZdlPvj
10011ad8  w    F .text	0000000c _ZNKSt7__cxx1112basic_stringIcSt11char_traitsIcESaIcEE8max_sizeEv
100226d4 g     F .text	000000b0 fstat
10011508  w    F .text	00000008 _ZNSt7__cxx1112basic_stringIcSt11char_traitsIcESaIcEE10_S_compareEjj
1000eae8  w    F .text	00000008 _ZNSs12_Alloc_hiderC2EPcRKSaIcE
100228c0 g     F .text	0000012c kill
100111f4  w    F .text	00000008 _ZNSt7__cxx1112basic_stringIcSt11char_traitsIcESaIcEE9_M_lengthEj
1000c47c g     F .text	000000d4 _ZGTtNSt13runtime_errorC1EPKc
1000d7d0 g     F .text	00000030 _ZNSt12domain_errorC2ERKSs
100211b8 g     F .text	000000f0 .hidden __ledf2
1000d7d0 g     F .text	00000030 _ZNSt12domain_errorC1ERKSs
1000d4c0 g     F .text	00000010 _ZNSt12domain_errorD1Ev
10010a44  w    F .text	0000003c _ZNSsC2IPcEET_S1_RKSaIcE
10006b40  w    F .text	00000034 _ZNSt8_Rb_treeI9TileGroupS0_St9_IdentityIS0_ESt4lessIS0_ESaIS0_EE13_Rb_tree_implIS4_Lb1EED2Ev
10006da0  w    F .text	00000034 _ZNKSt3setI9TileGroupSt4lessIS0_ESaIS0_EE3endEv
100065c8 g     F .text	00000080 UsbPrintMem
1001c650 g     F .text	00000128 __pow5mult
100105e0  w    F .text	000000f0 _ZStplIcSt11char_traitsIcESaIcEESbIT_T0_T1_ES3_RKS6_
10006974  w    F .text	00000028 _ZnwjPv
1000af54 g     F .text	000000e0 _ZN9__gnu_cxx15__concat_size_tEPcjj
1001d8b4 g     F .text	0000132c ___vfiprintf_internal_r
1000d6f4 g     F .text	00000034 _ZNSt15underflow_errorD0Ev
10014994 g     F .text	0000005c .hidden __umodsi3
1000d3d0 g     F .text	00000008 _ZNKSt9type_info11__do_upcastEPKN10__cxxabiv117__class_type_infoEPPv
1000d65c g     F .text	00000010 _ZNSt11range_errorD2Ev
10011a50  w    F .text	00000018 _ZNKSt7__cxx1112basic_stringIcSt11char_traitsIcESaIcEE6rbeginEv
100084b4  w    F .text	00000028 _ZN9__gnu_cxx13new_allocatorISt13_Rb_tree_nodeI9TileGroupEE7destroyIS2_EEvPT_
1000c674 g     F .text	000000e0 _ZGTtNSt11range_errorC1EPKc
10008c6c g     F .text	00000064 __cxa_init_primary_exception
1000e170  w    F .text	00000040 _ZNKSs4findEPKcj
10008bd8 g     F .text	0000000c _ZSt13get_terminatev
10012348  w    F .text	00000008 _ZNSt7__cxx1112basic_stringIcSt11char_traitsIcESaIcEE6resizeEj
1000e6c8  w    F .text	0000000c _ZNKSs16find_last_not_ofERKSsj
1002a78c g       *ABS*	00000000 end
1000d998 g     F .text	00000030 _ZNSt15underflow_errorC2ERKSs
10007cac  w    F .text	0000008c _ZNSt8_Rb_treeI9TileGroupS0_St9_IdentityIS0_ESt4lessIS0_ESaIS0_EE15_M_destroy_nodeEPSt13_Rb_tree_nodeIS0_E
10011478  w    F .text	00000024 _ZNSt7__cxx1112basic_stringIcSt11char_traitsIcESaIcEE13_S_copy_charsEPcN9__gnu_cxx17__normal_iteratorIS5_S4_EES8_
10015eb4 g     F .text	00000018 fseeko
10010a44  w    F .text	0000003c _ZNSsC1IPcEET_S1_RKSaIcE
1000dc78  w    F .text	00000010 _ZNKSs7_M_iendEv
100032a8 g     F .text	00000068 blinkyPalette
10014e78 g     F .text	00000018 .hidden _Unwind_DeleteException
10003790 g     F .text	0000049c drawBoard
10015a44 g     F .text	00000018 fseek
100234b4 g     F .text	000000c0 altera_avalon_jtag_uart_init
100001c4 g     F .exceptions	00000074 alt_instruction_exception_entry
1001190c  w    F .text	00000028 _ZNSt7__cxx1112basic_stringIcSt11char_traitsIcESaIcEEaSERKS4_
1000b638 g     F .text	0000001c _ZNSt12__cow_stringC1EPKcj
1000d9dc g     F .text	00000020 _ZNSt12__sso_stringC1ERKNSt7__cxx1112basic_stringIcSt11char_traitsIcESaIcEEE
1000e508  w    F .text	00000010 _ZNKSs12find_last_ofEcj
1000de60  w    F .text	00000008 _ZNKSs5beginEv
1000d1d4 g     F .text	000000cc _ZNK10__cxxabiv117__class_type_info12__do_dyncastEiNS0_10__sub_kindEPKS0_PKvS3_S5_RNS0_16__dyncast_resultE
10007b7c  w    F .text	00000028 _ZNKSt8_Rb_treeI9TileGroupS0_St9_IdentityIS0_ESt4lessIS0_ESaIS0_EE4sizeEv
10024e9e g       *ABS*	00000000 __CTOR_LIST__
10007144  w    F .text	00000068 _ZNSt4pairISt23_Rb_tree_const_iteratorI9TileGroupEbEC2IRSt17_Rb_tree_iteratorIS1_ERbLb1EEEOT_OT0_
18000000 g       *ABS*	00000000 __alt_stack_pointer
1000fba0  w    F .text	000000ac _ZNSs4_Rep8_M_cloneERKSaIcEj
1002a654  w    O .bss	00000010 _ZNSs4_Rep20_S_empty_rep_storageE
1000d42c g     F .text	00000008 _ZNKSt13runtime_error4whatEv
100224d8 g     F .text	00000054 .hidden __clzsi2
10025e48  w    O .rodata	0000000c _ZTISt13runtime_error
1000d0fc g     F .text	00000078 _ZNK10__cxxabiv117__class_type_info11__do_upcastEPKS0_PPv
10023b90 g     F .text	00000224 altera_avalon_jtag_uart_write
100117f4  w    F .text	00000078 _ZNSt7__cxx1112basic_stringIcSt11char_traitsIcESaIcEEC2EOS4_
100154ec g     F .text	00000004 __sfp_lock_acquire
10025b9c  w    O .rodata	00000012 _ZTSSt13bad_exception
10016a6c g     F .text	000000e8 memchr
10017bb8 g     F .text	00002160 ___vfprintf_internal_r
10025eec  w    O .rodata	00000014 _ZTVSt12length_error
10007888  w    F .text	00000060 _ZNSt4pairISt17_Rb_tree_iteratorI9TileGroupEbEC2IS2_bLb1EEEOT_OT0_
10005f3c g     F .text	00000100 UsbClassRequest
10015744 g     F .text	000002fc _free_r
1000d054 g     F .text	0000000c _ZNKSt8bad_cast4whatEv
1000e858  w    F .text	000000d8 _ZNKSs7compareEjjRKSsjj
10008150  w    F .text	00000064 _ZNSt4pairISt17_Rb_tree_iteratorI9TileGroupES2_EC1IS2_S2_Lb1EEEOT_OT0_
1002636b g     O .rodata	00000180 _ctype_b
10010f60  w    F .text	0000001c _ZNSs7replaceEN9__gnu_cxx17__normal_iteratorIPcSsEES2_S2_S2_
1001f12c g     F .text	0000000c __locale_mb_cur_max
1000ec88  w    F .text	00000034 _ZNSsC1ERKSaIcE
100135d0  w    F .text	0000000c _ZNKSt7__cxx1112basic_stringIcSt11char_traitsIcESaIcEE4findERKS4_j
10024be4 g     F .text	00000118 __call_exitprocs
10006b40  w    F .text	00000034 _ZNSt8_Rb_treeI9TileGroupS0_St9_IdentityIS0_ESt4lessIS0_ESaIS0_EE13_Rb_tree_implIS4_Lb1EED1Ev
1000eb20  w    F .text	00000008 _ZNSs4_Rep15_M_set_sharableEv
1000f24c  w    F .text	00000048 _ZNSs4backEv
10013ab0  w    F .text	0000008c _ZNKSt7__cxx1112basic_stringIcSt11char_traitsIcESaIcEE16find_last_not_ofEPKcjj
100285fc  w    O .rwdata	00000004 _ZNSs4_Rep11_S_max_sizeE
1000d504 g     F .text	00000010 _ZNSt16invalid_argumentD2Ev
10006dd4  w    F .text	00000038 _ZNKSt23_Rb_tree_const_iteratorI9TileGroupEneERKS1_
10006a24  w    F .text	0000003c _ZN9TileGroupC2E10__tile_col
1000d548 g     F .text	00000010 _ZNSt12length_errorD1Ev
1000c87c g     F .text	000000e0 _ZGTtNSt14overflow_errorC1EPKc
1000e210  w    F .text	00000098 _ZNKSs5rfindEPKcjj
10028610 g     O .rwdata	00000004 __malloc_sbrk_base
10000238 g     F .text	0000004c _start
10025da4  w    O .rodata	0000000c _ZTISt11logic_error
1000e07c  w    F .text	00000008 _ZNKSs4dataEv
1000b1c0 g     F .text	00000070 _ZNSt11logic_errorC2ERKS_
1002a53c g     O .bss	00000004 _alt_tick_rate
10014260  w    F .text	00000010 _ZNSt7__cxx1112basic_stringIcSt11char_traitsIcESaIcEEC2IN9__gnu_cxx17__normal_iteratorIPcS4_EEvEET_SA_RKS3_
10006a60  w    F .text	00000058 _ZN9TileGroupC2Ess
10009f0c g     F .text	00000004 _ZSt18_Rb_tree_decrementPKSt18_Rb_tree_node_base
10013f5c  w    F .text	00000008 _ZNSt7__cxx1112basic_stringIcSt11char_traitsIcESaIcEE12_Alloc_hiderC1EPcRKS3_
10025d64  w    O .rodata	0000000d _ZTSSt9type_info
1000dea8  w    F .text	00000010 _ZNKSs4cendEv
1000df04  w    F .text	0000000c _ZNKSs8capacityEv
1000dc58  w    F .text	0000000c _ZNSs7_M_dataEPc
1000d998 g     F .text	00000030 _ZNSt15underflow_errorC1ERKSs
10008dec g     F .text	0000000c _ZNKSt9bad_alloc4whatEv
100170d8 g     F .text	00000060 rand
1000d010 g     F .text	00000020 __cxa_pure_virtual
1001c778 g     F .text	0000013c __lshift
10025a7c  w    O .rodata	00000014 _ZTVSt9bad_alloc
1002a540 g     O .bss	00000004 _alt_nticks
100175e0 g     F .text	00000014 signal
1000deb8  w    F .text	00000018 _ZNKSs7crbeginEv
10022f30 g     F .text	000000fc read
10023304 g     F .text	0000004c alt_sys_init
100103e0  w    F .text	0000005c _ZNSsC2ERKSs
10011358  w    F .text	00000010 _ZNSt7__cxx1112basic_stringIcSt11char_traitsIcESaIcEE18_M_construct_aux_2Ejc
1000e084  w    F .text	00000008 _ZNKSs13get_allocatorEv
1000cc58 g     F .text	00000008 _ZGTtNSt15underflow_errorD2Ev
10025ce8  w    O .rodata	0000000c _ZTISt10bad_typeid
10009f6c g     F .text	0000005c _ZSt21_Rb_tree_rotate_rightPSt18_Rb_tree_node_baseRS0_
10016efc g     F .text	00000064 _open_r
1000f1cc  w    F .text	00000048 _ZNSsixEj
1000ecbc  w    F .text	00000040 _ZNSsC2EjcRKSaIcE
10024b54 g     F .text	00000090 __register_exitproc
10025a60  w    O .rodata	0000000d _ZTSSt9bad_alloc
10005270 g     F .text	00000078 parseSprite
10011d04  w    F .text	00000010 _ZNSt7__cxx1112basic_stringIcSt11char_traitsIcESaIcEE5clearEv
100021ac g     F .text	00000ab8 pinkys_move
1000cfd4 g     F .text	0000000c _ZGTtNKSt13bad_exception4whatEv
10006eec  w    F .text	00000024 _ZNSt20_Rb_tree_key_compareISt4lessI9TileGroupEEC1Ev
1000c848 g     F .text	00000008 _ZGTtNSt11range_errorD1Ev
1000cdc8 g     F .text	0000015c _ZNK10__cxxabiv120__si_class_type_info12__do_dyncastEiNS_17__class_type_info10__sub_kindEPKS1_PKvS4_S6_RNS1_16__dyncast_resultE
10011d20  w    F .text	0000000c _ZNKSt7__cxx1112basic_stringIcSt11char_traitsIcESaIcEEixEj
10013a20  w    F .text	00000040 _ZNKSt7__cxx1112basic_stringIcSt11char_traitsIcESaIcEE17find_first_not_ofEPKcj
100114c0  w    F .text	00000024 _ZNSt7__cxx1112basic_stringIcSt11char_traitsIcESaIcEE13_S_copy_charsEPcS5_S5_
10011a28  w    F .text	00000010 _ZNKSt7__cxx1112basic_stringIcSt11char_traitsIcESaIcEE3endEv
1000f3b0  w    F .text	0000005c _ZNSs5eraseEN9__gnu_cxx17__normal_iteratorIPcSsEES2_
1000c550 g     F .text	000000e8 _ZGTtNSt13runtime_errorC1ERKNSt7__cxx1112basic_stringIcSt11char_traitsIcESaIcEEE
100074d0  w    F .text	00000058 _ZNSt4pairIPSt18_Rb_tree_node_baseS1_EC1IRS1_Lb1EEEOT_RKS1_
1000c754 g     F .text	000000f4 _ZGTtNSt11range_errorC2ERKNSt7__cxx1112basic_stringIcSt11char_traitsIcESaIcEEE
1001c464 g     F .text	000001ec __multiply
100118f4  w    F .text	00000018 _ZNSt7__cxx1112basic_stringIcSt11char_traitsIcESaIcEED2Ev
100120c4  w    F .text	0000005c _ZNSt7__cxx1112basic_stringIcSt11char_traitsIcESaIcEE5eraseEN9__gnu_cxx17__normal_iteratorIPKcS4_EES9_
10023818 g     F .text	00000068 altera_avalon_jtag_uart_close
10006ce8  w    F .text	00000084 _ZNSt3setI9TileGroupSt4lessIS0_ESaIS0_EE6insertERKS0_
1001475c  w    F .text	00000014 _ZNSt7__cxx1112basic_stringIcSt11char_traitsIcESaIcEEC1ESt16initializer_listIcERKS3_
10014698  w    F .text	00000060 _ZNSt7__cxx1112basic_stringIcSt11char_traitsIcESaIcEEC2ERKS4_jjRKS3_
10026784 g       *ABS*	00000000 __ram_rwdata_start
1000d4c0 g     F .text	00000010 _ZNSt12domain_errorD2Ev
10014cdc g     F .text	000000c8 .hidden _Unwind_SjLj_RaiseException
10024eac g       *ABS*	00000000 __ram_rodata_start
1000e768  w    F .text	00000054 _ZNKSs7compareERKSs
1002a664 g     O .bss	00000028 __malloc_current_mallinfo
10014de8 g     F .text	00000044 .hidden _Unwind_SjLj_Resume
10013cc8  w    F .text	000000d8 _ZNKSt7__cxx1112basic_stringIcSt11char_traitsIcESaIcEE7compareEjjRKS4_jj
1000f09c  w    F .text	00000014 _ZNSs7_M_leakEv
1001cc28 g     F .text	00000148 __d2b
10025c3c  w    O .rodata	00000014 _ZTVN10__cxxabiv119__foreign_exceptionE
1000d3c4 g     F .text	00000004 _ZNSt9type_infoD2Ev
1001393c  w    F .text	00000040 _ZNKSt7__cxx1112basic_stringIcSt11char_traitsIcESaIcEE12find_last_ofEPKcj
10007234  w    F .text	00000038 _ZNKSt13_Rb_tree_nodeI9TileGroupE9_M_valptrEv
1000d000 g     F .text	00000008 _ZN10__cxxabiv119__foreign_exceptionD0Ev
1000ee7c  w    F .text	000001b8 _ZNSs9_M_mutateEjjj
1000cf24 g     F .text	00000084 _ZNK10__cxxabiv120__si_class_type_info11__do_upcastEPKNS_17__class_type_infoEPKvRNS1_15__upcast_resultE
1000d504 g     F .text	00000010 _ZNSt16invalid_argumentD1Ev
1000de68  w    F .text	00000010 _ZNKSs3endEv
10005724 g     F .text	00000148 UsbGetDeviceDesc1
10011130 g     F .text	000000bc _ZNSt13random_device14_M_init_pretr1ERKSs
10023350 g     F .text	00000060 altera_avalon_jtag_uart_read_fd
10017b84 g     F .text	00000004 _strtoul_r
10024388 g     F .text	000000a0 alt_get_fd
10023ee0 g     F .text	00000128 alt_busy_sleep
10006bac  w    F .text	00000038 _ZNSt3setI9TileGroupSt4lessIS0_ESaIS0_EEC1Ev
10025e90  w    O .rodata	00000014 _ZTSSt15underflow_error
100285e4  w    O .rwdata	00000008 _ZTIN10__cxxabiv119__foreign_exceptionE
10006b74  w    F .text	00000038 _ZNSt8_Rb_treeI9TileGroupS0_St9_IdentityIS0_ESt4lessIS0_ESaIS0_EEC1Ev
10019fb4 g     F .text	00000058 _close_r
100122f0  w    F .text	00000058 _ZNSt7__cxx1112basic_stringIcSt11char_traitsIcESaIcEE6resizeEjc
1000d6e4 g     F .text	00000010 _ZNSt15underflow_errorD2Ev
1000b5b8 g     F .text	00000030 _ZNSt14overflow_errorC1EPKc
10010120  w    F .text	000000e4 _ZNSs6appendEjc
10014528  w    F .text	000000c8 _ZNSt7__cxx1112basic_stringIcSt11char_traitsIcESaIcEE12_M_constructIPKcEEvT_S8_St20forward_iterator_tag
1000fe9c  w    F .text	00000108 _ZNSs6appendERKSsjj
10006ff0  w    F .text	00000130 _ZNSt8_Rb_treeI9TileGroupS0_St9_IdentityIS0_ESt4lessIS0_ESaIS0_EE16_M_insert_uniqueIRKS0_EESt4pairISt17_Rb_tree_iteratorIS0_EbEOT_
1000e4bc  w    F .text	0000000c _ZNKSs12find_last_ofERKSsj
10016b54 g     F .text	0000008c memcmp
10023410 g     F .text	00000050 altera_avalon_jtag_uart_close_fd
1002a78c g       *ABS*	00000000 __alt_stack_base
10023460 g     F .text	00000054 altera_avalon_jtag_uart_ioctl_fd
10008e08 g     F .text	00000038 _ZNSt9bad_allocD0Ev
10013b48  w    F .text	00000040 _ZNKSt7__cxx1112basic_stringIcSt11char_traitsIcESaIcEE16find_last_not_ofEPKcj
1000cce4 g     F .text	00000010 _ZN10__cxxabiv120__si_class_type_infoD1Ev
1000b710 g     F .text	00000044 _ZNSt12__cow_stringD1Ev
1000fce0  w    F .text	000000f0 _ZNSs13shrink_to_fitEv
1000d65c g     F .text	00000010 _ZNSt11range_errorD1Ev
10019e54 g     F .text	00000160 __swsetup_r
10013120  w    F .text	0000000c _ZNSt7__cxx1112basic_stringIcSt11char_traitsIcESaIcEE6appendERKS4_
10025e54  w    O .rodata	00000010 _ZTSSt11range_error
1000ca58 g     F .text	0000002c _ZGTtNSt14overflow_errorD0Ev
10014e2c g     F .text	0000004c .hidden _Unwind_SjLj_Resume_or_Rethrow
10012478  w    F .text	00000060 _ZNSt7__cxx1112basic_stringIcSt11char_traitsIcESaIcEE7replaceEjjjc
100207a0 g     F .text	000008a8 .hidden __divdf3
100153cc g     F .text	000000fc __sfp
1001ce8c g     F .text	0000006c __copybits
100118f4  w    F .text	00000018 _ZNSt7__cxx1112basic_stringIcSt11char_traitsIcESaIcEED1Ev
10025dc4  w    O .rodata	0000000c _ZTISt12domain_error
10025c9c  w    O .rodata	0000000c _ZTSSt8bad_cast
1000d3c8 g     F .text	00000008 _ZNKSt9type_info14__is_pointer_pEv
10013bdc  w    F .text	00000054 _ZNKSt7__cxx1112basic_stringIcSt11char_traitsIcESaIcEE7compareERKS4_
10014518  w    F .text	00000010 _ZNSt7__cxx1112basic_stringIcSt11char_traitsIcESaIcEEC2IPcvEET_S7_RKS3_
10010f7c  w    F .text	0000001c _ZNSs7replaceEN9__gnu_cxx17__normal_iteratorIPcSsEES2_NS0_IPKcSsEES5_
10025e84  w    O .rodata	0000000c _ZTISt14overflow_error
10026e4c g     O .rwdata	00000408 __malloc_av_
10007940  w    F .text	00000038 _ZNSt23_Rb_tree_const_iteratorI9TileGroupEC2ERKSt17_Rb_tree_iteratorIS0_E
100154f8 g     F .text	00000004 __sinit_lock_release
1000b4dc g     F .text	000000ac _ZNSt13runtime_errorC2EPKc
1000e6d4  w    F .text	00000040 _ZNKSs16find_last_not_ofEPKcj
100212a8 g     F .text	0000068c .hidden __muldf3
10017684 g     F .text	00000054 __sread
100064c4 g     F .text	00000084 UsbWaitTDListDone
10025c00  w    O .rodata	00000014 _ZTVSt9exception
1000cff4 g     F .text	00000008 _ZN10__cxxabiv115__forced_unwindD0Ev
10010204  w    F .text	00000054 _ZNSs6resizeEjc
10024280 g     F .text	00000108 alt_find_file
10010e7c  w    F .text	00000030 _ZNSs7replaceEN9__gnu_cxx17__normal_iteratorIPcSsEES2_RKSs
10028604  w    O .rwdata	00000004 _ZNSt7__cxx1112basic_stringIcSt11char_traitsIcESaIcEE4nposE
100082f4  w    F .text	00000024 _ZNSt8_Rb_treeI9TileGroupS0_St9_IdentityIS0_ESt4lessIS0_ESaIS0_EE21_M_get_Node_allocatorEv
1000bb38 g     F .text	000000e8 _ZGTtNSt11logic_errorC1ERKNSt7__cxx1112basic_stringIcSt11char_traitsIcESaIcEEE
100073e0  w    F .text	00000028 _ZNSt8_Rb_treeI9TileGroupS0_St9_IdentityIS0_ESt4lessIS0_ESaIS0_EE7_S_leftEPSt18_Rb_tree_node_base
1000ee2c  w    F .text	00000050 _ZNSs5clearEv
10003310 g     F .text	00000068 pinkyPalette
1002408c g     F .text	000000a4 alt_dev_llist_insert
10022c64 g     F .text	00000024 __malloc_lock
10023084 g     F .text	000000b0 sbrk
1000b634 g     F .text	00000004 _ZNSt12__cow_stringC1ERKSs
1000a880 g     F .text	000000ac _ZSt20__throw_domain_errorPKc
1000a7d4 g     F .text	000000ac _ZSt19__throw_logic_errorPKc
100113e4  w    F .text	00000020 _ZNKSt7__cxx1112basic_stringIcSt11char_traitsIcESaIcEE11_M_disjunctEPKc
10025d38  w    O .rodata	0000002c _ZTVN10__cxxabiv117__class_type_infoE
10006e44  w    F .text	0000003c _ZNSt3setI9TileGroupSt4lessIS0_ESaIS0_EE5eraseERKS0_
10008cd0 g     F .text	00000094 __cxa_throw
10006f34  w    F .text	00000070 _ZNSt8_Rb_treeI9TileGroupS0_St9_IdentityIS0_ESt4lessIS0_ESaIS0_EE8_M_eraseEPSt13_Rb_tree_nodeIS0_E
10015158 g     F .text	00000060 _fflush_r
10014ca0 g     F .text	00000010 .hidden _Unwind_SetIP
1001ee14 g     F .text	000000b8 _calloc_r
1001307c  w    F .text	000000a4 _ZNSt7__cxx1112basic_stringIcSt11char_traitsIcESaIcEE9_M_appendEPKcj
10006ab8  w    F .text	00000088 _ZNK9TileGroupltERKS_
1000da8c g     F .text	00000060 _ZNSt12__sso_stringaSERKS_
10025e08  w    O .rodata	0000000c _ZTISt12length_error
1000eb14  w    F .text	0000000c _ZNSs4_Rep13_M_set_leakedEv
1000c274 g     F .text	000000e0 _ZGTtNSt12out_of_rangeC1EPKc
1000acd0 g     F .text	000000ac _ZSt19__throw_range_errorPKc
1000d800 g     F .text	00000030 _ZNSt16invalid_argumentC1ERKSs
10005188 g     F .text	000000e8 parseSpriteLine
10015614 g     F .text	00000014 fopen
1002a4fc g       *ABS*	00000000 __bss_start
10007408  w    F .text	00000048 _ZNSt8_Rb_treeI9TileGroupS0_St9_IdentityIS0_ESt4lessIS0_ESaIS0_EE12_M_drop_nodeEPSt13_Rb_tree_nodeIS0_E
100111ec  w    F .text	00000008 _ZNSt7__cxx1112basic_stringIcSt11char_traitsIcESaIcEE7_M_dataEPc
10012a94  w    F .text	00000094 _ZNSt7__cxx1112basic_stringIcSt11char_traitsIcESaIcEE7replaceEjjPKc
10016e0c g     F .text	000000f0 memset
1000de2c  w    F .text	0000000c _ZNSs12_S_empty_repEv
10004120 g     F .text	00000e78 main
10025e34  w    O .rodata	00000012 _ZTSSt13runtime_error
1000c038 g     F .text	00000008 _ZGTtNSt16invalid_argumentD2Ev
1000e7bc  w    F .text	0000009c _ZNKSs7compareEjjRKSs
10008288  w    F .text	0000006c _ZNSt8_Rb_treeI9TileGroupS0_St9_IdentityIS0_ESt4lessIS0_ESaIS0_EE12_M_erase_auxESt23_Rb_tree_const_iteratorIS0_E
1000e5ac  w    F .text	00000040 _ZNKSs17find_first_not_ofEPKcj
1000b654 g     F .text	0000005c _ZNSt12__cow_stringC1ERKS_
1000501c g     F .text	000000a8 writePaletteHelper
1002a534 g     O .bss	00000004 alt_envp
1000ba54 g     F .text	00000008 _Z26_txnal_logic_error_get_msgPv
1002a51c g     O .bss	00000004 __malloc_max_total_mem
10025cf4  w    O .rodata	00000014 _ZTVSt10bad_typeid
10014318  w    F .text	00000020 _ZNSt7__cxx1112basic_stringIcSt11char_traitsIcESaIcEEC1ERKS4_RKS3_
100233b0 g     F .text	00000060 altera_avalon_jtag_uart_write_fd
100146f8  w    F .text	00000014 _ZNSt7__cxx1112basic_stringIcSt11char_traitsIcESaIcEEC2EPKcjRKS3_
10005e3c g     F .text	00000100 UsbSetConfig
1001ee00 g     F .text	00000014 __swbuf
100170c4 g     F .text	00000014 srand
1000d008 g     F .text	00000004 _ZGTtNKSt9exceptionD1Ev
1000a704 g     F .text	00000034 _ZSt21__throw_bad_exceptionv
1000cfa8 g     F .text	0000000c __cxa_get_globals_fast
10014698  w    F .text	00000060 _ZNSt7__cxx1112basic_stringIcSt11char_traitsIcESaIcEEC1ERKS4_jjRKS3_
1000e024  w    F .text	00000028 _ZNSsaSEOSs
10013210  w    F .text	00000060 _ZNSt7__cxx1112basic_stringIcSt11char_traitsIcESaIcEEpLEPKc
100117f4  w    F .text	00000078 _ZNSt7__cxx1112basic_stringIcSt11char_traitsIcESaIcEEC1EOS4_
1000ebe0  w    F .text	000000a8 _ZNSs12_S_constructEjcRKSaIcE
10013728  w    F .text	00000040 _ZNKSt7__cxx1112basic_stringIcSt11char_traitsIcESaIcEE5rfindEPKcj
10006a24  w    F .text	0000003c _ZN9TileGroupC1E10__tile_col
10025cb4  w    O .rodata	00000014 _ZTVSt8bad_cast
100177bc g     F .text	00000008 __sclose
18000000 g       *ABS*	00000000 __alt_heap_limit
1000dd20  w    F .text	00000020 _ZNSs7_M_copyEPcPKcj
1000d0a8 g     F .text	0000000c _ZNKSt10bad_typeid4whatEv
1001b9dc g     F .text	00000010 fclose
1000e164  w    F .text	0000000c _ZNKSs4findERKSsj
10008400  w    F .text	00000030 _ZNSt8_Rb_treeI9TileGroupS0_St9_IdentityIS0_ESt4lessIS0_ESaIS0_EE8_S_valueEPKSt18_Rb_tree_node_base
1000d58c g     F .text	00000010 _ZNSt12out_of_rangeD1Ev
1001a21c g     F .text	000016c8 _dtoa_r
10016278 g     F .text	000007f4 _malloc_r
1000ba24 g     F .text	00000004 _Z23_txnal_sso_string_c_strPKv
10009fc8 g     F .text	00000254 _ZSt29_Rb_tree_insert_and_rebalancebPSt18_Rb_tree_node_baseS0_RS_
10003378 g     F .text	00000068 inkyPalette
10011030  w    F .text	0000003c _ZNSsC2IPKcEET_S2_RKSaIcE
1001f298 g     F .text	00000030 __ascii_wctomb
10014518  w    F .text	00000010 _ZNSt7__cxx1112basic_stringIcSt11char_traitsIcESaIcEEC1IPcvEET_S7_RKS3_
1000cfd4 g     F .text	0000000c _ZNKSt13bad_exception4whatEv
100100a8  w    F .text	00000004 _ZNSspLESt16initializer_listIcE
1000ec88  w    F .text	00000034 _ZNSsC2ERKSaIcE
1002862c g     O .rwdata	00000004 alt_errno
10014338  w    F .text	000000c8 _ZNSt7__cxx1112basic_stringIcSt11char_traitsIcESaIcEE12_M_constructIPcEEvT_S7_St20forward_iterator_tag
10010f0c  w    F .text	0000001c _ZNSs7replaceEN9__gnu_cxx17__normal_iteratorIPcSsEES2_S1_S1_
1000b6b0 g     F .text	00000060 _ZNSt12__cow_stringaSERKS_
1000d968 g     F .text	00000030 _ZNSt14overflow_errorC2ERKSs
1000e4c8  w    F .text	00000040 _ZNKSs12find_last_ofEPKcj
1000d66c g     F .text	00000034 _ZNSt11range_errorD0Ev
100175f4 g     F .text	0000001c _init_signal
10025d2c  w    O .rodata	0000000c _ZTIN10__cxxabiv117__class_type_infoE
10015f2c g     F .text	000000a4 _fwalk
10001268 g     F .text	0000004c recur_free
1001f14c g     F .text	0000000c _mbtowc_r
1000cfc4 g     F .text	00000004 _ZNSt13bad_exceptionD1Ev
1000be64 g     F .text	000000e0 _ZGTtNSt16invalid_argumentC1EPKc
1001d038 g     F .text	000000e0 putc
10014838 g     F .text	00000080 .hidden __divsi3
10015628 g     F .text	0000011c _malloc_trim_r
10006714 g     F .text	000000fc getOne
1000603c g     F .text	00000148 UsbGetHidDesc
10024ea8 g       *ABS*	00000000 __CTOR_END__
1000dd40  w    F .text	00000020 _ZNSs7_M_moveEPcPKcj
1000fdd0  w    F .text	000000c8 _ZNSs6appendERKSs
10010260  w    F .text	000000a4 _ZNSs9push_backEc
100177c4 g     F .text	000000d8 strcmp
1000b4ac g     F .text	00000030 _ZNSt12out_of_rangeC1EPKc
1000de00  w    F .text	00000024 _ZNSs13_S_copy_charsEPcPKcS1_
1000e2f4  w    F .text	00000050 _ZNKSs5rfindEcj
10024eac g       *ABS*	00000000 __flash_rodata_start
10025c28  w    O .rodata	00000014 _ZTVN10__cxxabiv115__forced_unwindE
10024ea8 g       *ABS*	00000000 __DTOR_LIST__
1000ecfc  w    F .text	00000010 _ZNSs18_S_construct_aux_2EjcRKSaIcE
1000daec g     F .text	00000018 _ZNSt12__sso_stringD1Ev
1000d9dc g     F .text	00000020 _ZNSt12__sso_stringC2ERKNSt7__cxx1112basic_stringIcSt11char_traitsIcESaIcEEE
10010f98  w    F .text	0000005c _ZNSsC1EPKcRKSaIcE
10017b88 g     F .text	00000018 strtoul_l
10021048 g     F .text	00000080 .hidden __nedf2
1000d060 g     F .text	00000010 _ZNSt8bad_castD2Ev
1000b308 g     F .text	00000068 _ZNSt13runtime_erroraSERKS_
1000552c g     F .text	00000044 UsbRead
10012ba0  w    F .text	00000060 _ZNSt7__cxx1112basic_stringIcSt11char_traitsIcESaIcEE7replaceEN9__gnu_cxx17__normal_iteratorIPKcS4_EES9_S8_j
10004f98 g     F .text	00000084 drawTile
10011ac8  w    F .text	00000008 _ZNKSt7__cxx1112basic_stringIcSt11char_traitsIcESaIcEE4sizeEv
1000d860 g     F .text	00000030 _ZNSt12out_of_rangeC1ERKSs
100232cc g     F .text	00000038 alt_irq_init
10010880  w    F .text	0000002c _ZNSs12_S_constructIPcEES0_T_S1_RKSaIcESt20forward_iterator_tag
1002302c g     F .text	00000058 alt_release_fd
10012f54  w    F .text	0000008c _ZNSt7__cxx1112basic_stringIcSt11char_traitsIcESaIcEE6insertEjRKS4_jj
1000ccf4 g     F .text	00000038 _ZN10__cxxabiv120__si_class_type_infoD0Ev
10011d98  w    F .text	00000014 _ZNSt7__cxx1112basic_stringIcSt11char_traitsIcESaIcEE4backEv
1000fb3c  w    F .text	00000040 _ZNSs8pop_backEv
10010db8  w    F .text	00000068 _ZNSs7replaceEjjRKSsjj
100035c8 g     F .text	000001c8 initScreen
1000a21c g     F .text	000004b4 _ZSt28_Rb_tree_rebalance_for_erasePSt18_Rb_tree_node_baseRS_
10026650 g     O .rodata	00000100 .hidden __clz_tab
1000d434 g     F .text	00000064 _ZNSt11logic_errorD2Ev
1000f034  w    F .text	00000068 _ZNSs12_M_leak_hardEv
1002a528 g     O .bss	00000004 _PathLocale
10007144  w    F .text	00000068 _ZNSt4pairISt23_Rb_tree_const_iteratorI9TileGroupEbEC1IRSt17_Rb_tree_iteratorIS1_ERbLb1EEEOT_OT0_
10025d94  w    O .rodata	00000010 _ZTSSt11logic_error
1000d434 g     F .text	00000064 _ZNSt11logic_errorD1Ev
10024b0c g     F .text	00000014 atexit
10011f20  w    F .text	000000d4 _ZNSt7__cxx1112basic_stringIcSt11char_traitsIcESaIcEE6assignEOS4_
1000c448 g     F .text	00000008 _ZGTtNSt12out_of_rangeD1Ev
10025e64  w    O .rodata	0000000c _ZTISt11range_error
100129dc  w    F .text	00000068 _ZNSt7__cxx1112basic_stringIcSt11char_traitsIcESaIcEE7replaceEjjRKS4_
1000ca50 g     F .text	00000008 _ZGTtNSt14overflow_errorD2Ev
1000d938 g     F .text	00000030 _ZNSt11range_errorC1ERKSs
10019df0 g     F .text	00000064 _write_r
100117c8  w    F .text	00000014 _ZNSt7__cxx1112basic_stringIcSt11char_traitsIcESaIcEEC2ERKS3_
1000cc58 g     F .text	00000008 _ZGTtNSt15underflow_errorD1Ev
10006a60  w    F .text	00000058 _ZN9TileGroupC1Ess
1000fb30  w    F .text	0000000c _ZNSs6insertEjRKSs
100140ac  w    F .text	0000010c _ZStplIcSt11char_traitsIcESaIcEENSt7__cxx1112basic_stringIT_T0_T1_EES5_RKS8_
1000c354 g     F .text	000000f4 _ZGTtNSt12out_of_rangeC2ERKNSt7__cxx1112basic_stringIcSt11char_traitsIcESaIcEEE
1001f138 g     F .text	00000014 setlocale
1000d59c g     F .text	00000034 _ZNSt12out_of_rangeD0Ev
10014cd4 g     F .text	00000008 .hidden _Unwind_GetTextRelBase
1000be64 g     F .text	000000e0 _ZGTtNSt16invalid_argumentC2EPKc
1000cc8c g     F .text	00000058 __cxa_call_terminate
10012e60  w    F .text	000000a0 _ZNSt7__cxx1112basic_stringIcSt11char_traitsIcESaIcEE7replaceEN9__gnu_cxx17__normal_iteratorIPKcS4_EES9_S8_
10013ec8  w    F .text	00000094 _ZNKSt7__cxx1112basic_stringIcSt11char_traitsIcESaIcEE7compareEjjPKcj
100071ac  w    F .text	00000044 _ZNKSt8_Rb_treeI9TileGroupS0_St9_IdentityIS0_ESt4lessIS0_ESaIS0_EE5beginEv
1000cb64 g     F .text	000000f4 _ZGTtNSt15underflow_errorC1ERKNSt7__cxx1112basic_stringIcSt11char_traitsIcESaIcEEE
1000f40c  w    F .text	000000a4 _ZNSs14_M_replace_auxEjjjc
1002860c g     O .rwdata	00000004 _impure_ptr
100285dc  w    O .rwdata	00000008 _ZTIN10__cxxabiv115__forced_unwindE
1002a52c g     O .bss	00000004 alt_argc
10008004  w    F .text	000000a8 _ZNSt8_Rb_treeI9TileGroupS0_St9_IdentityIS0_ESt4lessIS0_ESaIS0_EE14_M_lower_boundEPSt13_Rb_tree_nodeIS0_EPSt18_Rb_tree_node_baseRKS0_
1000f5ec  w    F .text	00000064 _ZNSs7replaceEjjjc
10014f30 g     F .text	00000228 __sflush_r
10026784 g     O .rwdata	000000e1 GAME_BOARDS
10010910  w    F .text	00000074 _ZNSsC1ERKSsjj
10024190 g     F .text	00000060 _do_dtors
1000c14c g     F .text	000000f4 _ZGTtNSt12length_errorC1ERKNSt7__cxx1112basic_stringIcSt11char_traitsIcESaIcEEE
100066a0 g     F .text	00000074 addPendingPos
10015a40 g     F .text	00000004 _fseek_r
10007940  w    F .text	00000038 _ZNSt23_Rb_tree_const_iteratorI9TileGroupEC1ERKSt17_Rb_tree_iteratorIS0_E
10009f10 g     F .text	0000005c _ZSt20_Rb_tree_rotate_leftPSt18_Rb_tree_node_baseRS0_
10017154 g     F .text	000001cc __srefill_r
10008834  w    F .text	00000028 _ZNK9__gnu_cxx13new_allocatorISt13_Rb_tree_nodeI9TileGroupEE8max_sizeEv
100106d0  w    F .text	000000cc _ZStplIcSt11char_traitsIcESaIcEESbIT_T0_T1_ERKS6_S8_
10011ef8  w    F .text	00000028 _ZNSt7__cxx1112basic_stringIcSt11char_traitsIcESaIcEE6assignERKS4_
10010984  w    F .text	0000004c _ZNKSs6substrEjj
10008bf8 g     F .text	0000000c _ZSt14get_unexpectedv
10000020 g       .exceptions	00000000 alt_irq_entry
1001f158 g     F .text	00000044 __ascii_mbtowc
1000df10  w    F .text	00000010 _ZNKSs5emptyEv
1001cac8 g     F .text	0000005c __ulp
10014cc4 g     F .text	00000008 .hidden _Unwind_FindEnclosingFunction
10002fe0 g     F .text	000002c8 clydes_move
1001106c  w    F .text	00000010 _ZN9__gnu_cxxeqIPcSsEEbRKNS_17__normal_iteratorIT_T0_EES7_
10015510 g     F .text	00000014 __fp_unlock_all
1000b44c g     F .text	00000030 _ZNSt16invalid_argumentC2EPKc
10011a08  w    F .text	00000008 _ZNSt7__cxx1112basic_stringIcSt11char_traitsIcESaIcEE5beginEv
100111fc  w    F .text	00000008 _ZNKSt7__cxx1112basic_stringIcSt11char_traitsIcESaIcEE7_M_dataEv
100074ac  w    F .text	00000024 _ZSt7forwardIRPSt13_Rb_tree_nodeI9TileGroupEEOT_RNSt16remove_referenceIS5_E4typeE
10028618 g     O .rwdata	00000008 alt_fs_list
10025bdc  w    O .rodata	00000024 _ZTSN10__cxxabiv119__foreign_exceptionE
10013848  w    F .text	0000000c _ZNKSt7__cxx1112basic_stringIcSt11char_traitsIcESaIcEE13find_first_ofERKS4_j
100086c0  w    F .text	00000024 _ZN9__gnu_cxx16__aligned_membufI9TileGroupE7_M_addrEv
10014cb0 g     F .text	0000000c .hidden _Unwind_GetLanguageSpecificData
1000d514 g     F .text	00000034 _ZNSt16invalid_argumentD0Ev
1000b41c g     F .text	00000030 _ZNSt12domain_errorC2EPKc
1001149c  w    F .text	00000024 _ZNSt7__cxx1112basic_stringIcSt11char_traitsIcESaIcEE13_S_copy_charsEPcN9__gnu_cxx17__normal_iteratorIPKcS4_EESA_
10010aac  w    F .text	0000003c _ZNSsC1EPKcjRKSaIcE
10007db4  w    F .text	00000028 _ZNSt8_Rb_treeI9TileGroupS0_St9_IdentityIS0_ESt4lessIS0_ESaIS0_EE6_M_endEv
100074d0  w    F .text	00000058 _ZNSt4pairIPSt18_Rb_tree_node_baseS1_EC2IRS1_Lb1EEEOT_RKS1_
10007978  w    F .text	00000034 _ZNSt23_Rb_tree_const_iteratorI9TileGroupEC1EPKSt18_Rb_tree_node_base
1000892c g     F .text	000000ac __cxa_begin_catch
1001398c  w    F .text	00000088 _ZNKSt7__cxx1112basic_stringIcSt11char_traitsIcESaIcEE17find_first_not_ofEPKcjj
1000f8e4  w    F .text	00000004 _ZNSs6assignESt16initializer_listIcE
10006184 g     F .text	00000340 UsbGetReportDesc
1000d18c g     F .text	00000010 _ZN10__cxxabiv117__class_type_infoD2Ev
10008ba0 g     F .text	00000010 _ZN10__cxxabiv112__unexpectedEPFvvE
1000b7cc g     F .text	00000118 _ZNKSt3_V214error_category10_M_messageEi
1000de48  w    F .text	00000018 _ZNSsC2EOSs
100034d0 g     F .text	00000084 textPalette
10025df4  w    O .rodata	00000011 _ZTSSt12length_error
10000020 g       *ABS*	00000000 __ram_exceptions_start
1001bfc0 g     F .text	0000000c localeconv
1000d9fc g     F .text	00000014 _ZNSt12__sso_stringC1EPKcj
1000a76c g     F .text	00000034 _ZSt16__throw_bad_castv
10016084 g     F .text	00000098 __swhatbuf_r
10008720  w    F .text	0000004c _ZNSt16allocator_traitsISaISt13_Rb_tree_nodeI9TileGroupEEE9constructIS1_JRKS1_EEEvRS3_PT_DpOT0_
10002c64 g     F .text	0000037c inkys_move
1000cfe8 g     F .text	00000008 _ZNSt13bad_exceptionD0Ev
100285ec g     O .rwdata	00000004 _ZN10__cxxabiv119__terminate_handlerE
10025f50  w    O .rodata	00000014 _ZTVSt15underflow_error
1000e5a0  w    F .text	0000000c _ZNKSs17find_first_not_ofERKSsj
100069d8  w    F .text	0000004c _ZNSt15_Rb_tree_header8_M_resetEv
10006eec  w    F .text	00000024 _ZNSt20_Rb_tree_key_compareISt4lessI9TileGroupEEC2Ev
1002445c g     F .text	00000050 alt_ic_isr_register
10012d98  w    F .text	00000064 _ZNSt7__cxx1112basic_stringIcSt11char_traitsIcESaIcEE7replaceEN9__gnu_cxx17__normal_iteratorIPKcS4_EES9_NS6_IPcS4_EESB_
1000bd3c g     F .text	000000f4 _ZGTtNSt12domain_errorC1ERKNSt7__cxx1112basic_stringIcSt11char_traitsIcESaIcEEE
10009ce8 g     F .text	00000058 __cxa_allocate_exception
1000b298 g     F .text	00000070 _ZNSt13runtime_errorC2ERKS_
100117dc  w    F .text	00000018 _ZNSt7__cxx1112basic_stringIcSt11char_traitsIcESaIcEEC1EjcRKS3_
1000b298 g     F .text	00000070 _ZNSt13runtime_errorC1ERKS_
100081b4  w    F .text	00000038 _ZNKSt23_Rb_tree_const_iteratorI9TileGroupEeqERKS1_
10025b30  w    O .rodata	0000000c _ZTIN10__cxxabiv120__si_class_type_infoE
1000df20  w    F .text	0000000c _ZNKSsixEj
10008904 g     F .text	00000014 _ZSt15set_new_handlerPFvvE
1000ba5c g     F .text	00000008 _Z28_txnal_runtime_error_get_msgPv
1000f4e8  w    F .text	00000048 _ZNSsaSEc
1000b710 g     F .text	00000044 _ZNSt12__cow_stringD2Ev
10028640 g       *ABS*	00000000 _edata
1000be30 g     F .text	00000008 _ZGTtNSt12domain_errorD1Ev
1000c240 g     F .text	00000008 _ZGTtNSt12length_errorD2Ev
1000791c  w    F .text	00000024 _ZSt7forwardIRbEOT_RNSt16remove_referenceIS1_E4typeE
1000e714  w    F .text	00000054 _ZNKSs16find_last_not_ofEcj
1002a78c g       *ABS*	00000000 _end
100285cd g     O .rwdata	00000001 _ZSt7nothrow
1000d634 g     F .text	00000028 _ZNSt13runtime_errorD0Ev
100006ec g     F .text	00000468 init_game
10009380 g     F .text	00000624 __gxx_personality_sj0
1000c674 g     F .text	000000e0 _ZGTtNSt11range_errorC2EPKc
100054d0 g     F .text	0000005c UsbWrite
1001eecc g     F .text	00000150 __fputwc
100113d0  w    F .text	00000014 _ZNKSt7__cxx1112basic_stringIcSt11char_traitsIcESaIcEE8_M_limitEjj
10000238 g       *ABS*	00000000 __ram_exceptions_end
100141b8  w    F .text	000000a8 _ZNSt7__cxx1112basic_stringIcSt11char_traitsIcESaIcEE12_M_constructIN9__gnu_cxx17__normal_iteratorIPcS4_EEEEvT_SA_St20forward_iterator_tag
1000de48  w    F .text	00000018 _ZNSsC1EOSs
10023880 g     F .text	000000f4 altera_avalon_jtag_uart_ioctl
1000b8e4 g     F .text	0000013c _Z35_txnal_cow_string_C1_for_exceptionsPvPKcS_
1000bd3c g     F .text	000000f4 _ZGTtNSt12domain_errorC2ERKNSt7__cxx1112basic_stringIcSt11char_traitsIcESaIcEEE
100053bc g     F .text	00000098 writeText
10011a78  w    F .text	00000010 _ZNKSt7__cxx1112basic_stringIcSt11char_traitsIcESaIcEE4rendEv
100033e0 g     F .text	00000068 clydePalette
10012350  w    F .text	00000034 _ZNSt7__cxx1112basic_stringIcSt11char_traitsIcESaIcEE6assignEjc
1000dea0  w    F .text	00000008 _ZNKSs6cbeginEv
10014770  w    F .text	00000010 _ZNSt7__cxx1112basic_stringIcSt11char_traitsIcESaIcEEC2IPKcvEET_S8_RKS3_
1000b76c g     F .text	00000060 _ZNSt12__cow_stringaSEOS_
1000cfc0 g     F .text	00000004 _ZNSt9exceptionD1Ev
10014400  w    F .text	00000020 _ZNSt7__cxx1112basic_stringIcSt11char_traitsIcESaIcEEC2ERKS4_
10024534 g     F .text	0000008c alt_ic_irq_disable
10009ea4 g     F .text	00000060 _ZSt18_Rb_tree_incrementPSt18_Rb_tree_node_base
10003c2c g     F .text	000004f4 updateBoard
100115e8  w    F .text	00000148 _ZNSt7__cxx1112basic_stringIcSt11char_traitsIcESaIcEE9_M_mutateEjjPKcj
10014818  w    F .text	00000010 _ZN9__gnu_cxxeqIPcNSt7__cxx1112basic_stringIcSt11char_traitsIcESaIcEEEEEbRKNS_17__normal_iteratorIT_T0_EESD_
100176e0 g     F .text	00000080 __swrite
10008894 g     F .text	00000070 _Znwj
1000f800  w    F .text	00000028 _ZNSsaSESt16initializer_listIcE
10011a18  w    F .text	00000010 _ZNSt7__cxx1112basic_stringIcSt11char_traitsIcESaIcEE3endEv
10028614 g     O .rwdata	00000004 __malloc_trim_threshold
10013684  w    F .text	00000098 _ZNKSt7__cxx1112basic_stringIcSt11char_traitsIcESaIcEE5rfindEPKcjj
100145f0  w    F .text	00000048 _ZNSt7__cxx1112basic_stringIcSt11char_traitsIcESaIcEEC1ERKS4_jRKS3_
10011370  w    F .text	00000008 _ZNKSt7__cxx1112basic_stringIcSt11char_traitsIcESaIcEE16_M_get_allocatorEv
10024b20 g     F .text	00000034 exit
10011d90  w    F .text	00000008 _ZNKSt7__cxx1112basic_stringIcSt11char_traitsIcESaIcEE5frontEv
10014c58 g     F .text	00000018 .hidden _Unwind_SetGR
1000fe98  w    F .text	00000004 _ZNSspLERKSs
10015fd0 g     F .text	000000b4 _fwalk_reent
1000cd2c g     F .text	0000009c _ZNK10__cxxabiv120__si_class_type_info20__do_find_public_srcEiPKvPKNS_17__class_type_infoES2_
1001361c  w    F .text	00000068 _ZNKSt7__cxx1112basic_stringIcSt11char_traitsIcESaIcEE4findEcj
10025ec4  w    O .rodata	00000014 _ZTVSt12domain_error
1001c90c g     F .text	000001bc __mdiff
10008ac4 g     F .text	000000c8 _ZN10__cxxabiv111__terminateEPFvvE
1000f214  w    F .text	00000038 _ZNSs5frontEv
10011d38  w    F .text	00000028 _ZNKSt7__cxx1112basic_stringIcSt11char_traitsIcESaIcEE2atEj
1000c274 g     F .text	000000e0 _ZGTtNSt12out_of_rangeC2EPKc
100148b8 g     F .text	00000078 .hidden __modsi3
10007e60  w    F .text	00000044 _ZNSt8_Rb_treeI9TileGroupS0_St9_IdentityIS0_ESt4lessIS0_ESaIS0_EE5beginEv
1000db04 g     F .text	00000078 _ZNSt12__sso_stringC2EOS_
1000df2c  w    F .text	00000028 _ZNKSs2atEj
10008df8 g     F .text	00000010 _ZNSt9bad_allocD1Ev
10011c00  w    F .text	00000104 _ZNSt7__cxx1112basic_stringIcSt11char_traitsIcESaIcEE13shrink_to_fitEv
1000e3e0  w    F .text	00000040 _ZNKSs13find_first_ofEPKcj
1000e518  w    F .text	00000088 _ZNKSs17find_first_not_ofEPKcjj
10011444  w    F .text	00000034 _ZNSt7__cxx1112basic_stringIcSt11char_traitsIcESaIcEE9_S_assignEPcjc
18000000 g       *ABS*	00000000 __alt_data_end
1000aed4 g     F .text	00000080 _ZN9__gnu_cxx26__throw_insufficient_spaceEPKcS1_
10000020 g     F .exceptions	00000000 alt_exception
100154f0 g     F .text	00000004 __sfp_lock_release
10012dfc  w    F .text	00000064 _ZNSt7__cxx1112basic_stringIcSt11char_traitsIcESaIcEE7replaceEN9__gnu_cxx17__normal_iteratorIPKcS4_EES9_S9_S9_
1000b638 g     F .text	0000001c _ZNSt12__cow_stringC2EPKcj
10012120  w    F .text	00000060 _ZNSt7__cxx1112basic_stringIcSt11char_traitsIcESaIcEE8pop_backEv
100132c8  w    F .text	0000008c _ZNKSt7__cxx1112basic_stringIcSt11char_traitsIcESaIcEE4copyEPcjj
10025bb0  w    O .rodata	0000000c _ZTISt13bad_exception
10000000 g       *ABS*	00000000 __alt_mem_sdram
10007728  w    F .text	00000034 _ZNSt8_Rb_treeI9TileGroupS0_St9_IdentityIS0_ESt4lessIS0_ESaIS0_EE11_Alloc_nodeC1ERS6_
100012b4 g     F .text	000000f4 stack_push
1000c87c g     F .text	000000e0 _ZGTtNSt14overflow_errorC2EPKc
10007888  w    F .text	00000060 _ZNSt4pairISt17_Rb_tree_iteratorI9TileGroupEbEC1IS2_bLb1EEEOT_OT0_
10006bac  w    F .text	00000038 _ZNSt3setI9TileGroupSt4lessIS0_ESaIS0_EEC2Ev
10013768  w    F .text	00000050 _ZNKSt7__cxx1112basic_stringIcSt11char_traitsIcESaIcEE5rfindEcj
1000c448 g     F .text	00000008 _ZGTtNSt12out_of_rangeD2Ev
100109d0  w    F .text	00000074 _ZNSsC1ERKSsjjRKSaIcE
10007ba4  w    F .text	00000108 _ZNSt8_Rb_treeI9TileGroupS0_St9_IdentityIS0_ESt4lessIS0_ESaIS0_EE12_M_erase_auxESt23_Rb_tree_const_iteratorIS0_ES8_
10000610 g     F .text	00000074 IO_write
1002626a g     O .rodata	00000101 _ctype_
10013b88  w    F .text	00000054 _ZNKSt7__cxx1112basic_stringIcSt11char_traitsIcESaIcEE16find_last_not_ofEcj
1000d4d0 g     F .text	00000034 _ZNSt12domain_errorD0Ev
100222a0 g     F .text	00000054 .hidden __unorddf2
1000e074  w    F .text	00000008 _ZNKSs5c_strEv
10011d88  w    F .text	00000008 _ZNSt7__cxx1112basic_stringIcSt11char_traitsIcESaIcEE5frontEv
10006be4  w    F .text	00000050 _ZNSt8_Rb_treeI9TileGroupS0_St9_IdentityIS0_ESt4lessIS0_ESaIS0_EE13_Rb_tree_implIS4_Lb1EEC2Ev
1000b754 g     F .text	00000018 _ZNSt12__cow_stringC1EOS_
1000de24  w    F .text	00000008 _ZNSs10_S_compareEjj
1002a62c g     O .bss	00000018 workset
10015524 g     F .text	000000f0 _fopen_r
10022664 g     F .text	00000034 _exit
10012384  w    F .text	00000044 _ZNSt7__cxx1112basic_stringIcSt11char_traitsIcESaIcEEaSEc
1000eb54  w    F .text	0000008c _ZNSs4_Rep9_S_createEjjRKSaIcE
10014770  w    F .text	00000010 _ZNSt7__cxx1112basic_stringIcSt11char_traitsIcESaIcEEC1IPKcvEET_S8_RKS3_
10023db4 g     F .text	0000012c alt_alarm_start
1000eb28  w    F .text	00000024 _ZNSs4_Rep26_M_set_length_and_sharableEj
1000aa84 g     F .text	000000ac _ZSt20__throw_out_of_rangePKc
1000f58c  w    F .text	00000060 _ZNSs6insertEN9__gnu_cxx17__normal_iteratorIPcSsEEc
100078e8  w    F .text	00000034 _ZNSt17_Rb_tree_iteratorI9TileGroupEC2EPSt18_Rb_tree_node_base
1001f2c8 g     F .text	00000060 .hidden __muldi3
1001470c  w    F .text	00000050 _ZNSt7__cxx1112basic_stringIcSt11char_traitsIcESaIcEEC1EPKcRKS3_
10014c28 g     F .text	00000018 .hidden _Unwind_GetGR
1000cfb4 g     F .text	0000000c __cxa_get_globals
1001611c g     F .text	0000013c __smakebuf_r
100285d0 g     O .rwdata	00000004 _ZN10__cxxabiv120__unexpected_handlerE
10011ab8  w    F .text	00000010 _ZNKSt7__cxx1112basic_stringIcSt11char_traitsIcESaIcEE5crendEv
1000c550 g     F .text	000000e8 _ZGTtNSt13runtime_errorC2ERKNSt7__cxx1112basic_stringIcSt11char_traitsIcESaIcEEE
1001011c  w    F .text	00000004 _ZNSs6appendESt16initializer_listIcE
100100e4  w    F .text	00000038 _ZNSspLEPKc
1000726c  w    F .text	000000a4 _ZNSt8_Rb_treeI9TileGroupS0_St9_IdentityIS0_ESt4lessIS0_ESaIS0_EE5eraseERKS0_
1001789c g     F .text	00000098 strlen
1000f2ec  w    F .text	00000074 _ZNSs5eraseEjj
1000ae28 g     F .text	000000ac _ZSt23__throw_underflow_errorPKc
100173c4 g     F .text	00000014 _init_signal_r
100285f0  w    O .rwdata	00000008 _ZTISt9type_info
10022da0 g     F .text	00000154 open
1000d00c g     F .text	00000004 _ZGTtNKSt13bad_exceptionD1Ev
1000eaf0  w    F .text	0000000c _ZNSs4_Rep12_S_empty_repEv
1000eae8  w    F .text	00000008 _ZNSs12_Alloc_hiderC1EPcRKSaIcE
10011510  w    F .text	000000d8 _ZNSt7__cxx1112basic_stringIcSt11char_traitsIcESaIcEE9_M_assignERKS4_
1000f530  w    F .text	0000005c _ZNSs6insertEjjc
100210c8 g     F .text	000000f0 .hidden __gedf2
1000f4b0  w    F .text	00000038 _ZNSs6assignEjc
1000b4dc g     F .text	000000ac _ZNSt13runtime_errorC1EPKc
10025b8c  w    O .rodata	0000000d _ZTSSt9exception
1000c95c g     F .text	000000f4 _ZGTtNSt14overflow_errorC1ERKNSt7__cxx1112basic_stringIcSt11char_traitsIcESaIcEEE
10007310  w    F .text	00000084 _ZNSt8_Rb_treeI9TileGroupS0_St9_IdentityIS0_ESt4lessIS0_ESaIS0_EE5clearEv
10025f14  w    O .rodata	00000014 _ZTVSt13runtime_error
1000b654 g     F .text	0000005c _ZNSt12__cow_stringC2ERKS_
10025cd8  w    O .rodata	0000000f _ZTSSt10bad_typeid
1000deec  w    F .text	0000000c _ZNKSs6lengthEv
1000be38 g     F .text	0000002c _ZGTtNSt12domain_errorD0Ev
10005454 g     F .text	0000007c clearScreen
1000dddc  w    F .text	00000024 _ZNSs13_S_copy_charsEPcS_S_
1000c95c g     F .text	000000f4 _ZGTtNSt14overflow_errorC2ERKNSt7__cxx1112basic_stringIcSt11char_traitsIcESaIcEEE
1000d424 g     F .text	00000008 _ZNKSt11logic_error4whatEv
10012548  w    F .text	00000270 _ZNSt7__cxx1112basic_stringIcSt11char_traitsIcESaIcEE10_M_replaceEjjPKcj
1000e63c  w    F .text	0000008c _ZNKSs16find_last_not_ofEPKcjj
10010a80  w    F .text	0000002c _ZNSs12_S_constructIPKcEEPcT_S3_RKSaIcESt20forward_iterator_tag
1000e1b0  w    F .text	00000060 _ZNKSs4findEcj
1000cfe0 g     F .text	00000008 _ZNSt9exceptionD0Ev
1001d89c g     F .text	00000018 __sprint_r
10024428 g     F .text	00000034 alt_icache_flush_all
10013354  w    F .text	0000018c _ZNSt7__cxx1112basic_stringIcSt11char_traitsIcESaIcEE4swapERS4_
1000d0b4 g     F .text	00000010 _ZNSt10bad_typeidD1Ev
1000f294  w    F .text	00000058 _ZNSs2atEj
10011dc0  w    F .text	0000009c _ZNSt7__cxx1112basic_stringIcSt11char_traitsIcESaIcEEpLEc
10013f64  w    F .text	00000008 _ZNSt7__cxx1112basic_stringIcSt11char_traitsIcESaIcEE12_Alloc_hiderC1EPcOS3_
10014ccc g     F .text	00000008 .hidden _Unwind_GetDataRelBase
10010f28  w    F .text	0000001c _ZNSs7replaceEN9__gnu_cxx17__normal_iteratorIPcSsEES2_PKcS4_
10028634 g     O .rwdata	00000004 alt_priority_mask
10011d14  w    F .text	0000000c _ZNKSt7__cxx1112basic_stringIcSt11char_traitsIcESaIcEE5emptyEv
10014270  w    F .text	000000a8 _ZNSt7__cxx1112basic_stringIcSt11char_traitsIcESaIcEE12_M_constructIN9__gnu_cxx17__normal_iteratorIPKcS4_EEEEvT_SB_St20forward_iterator_tag
100244ac g     F .text	00000088 alt_ic_irq_enable
10013f6c  w    F .text	00000140 _ZStplIcSt11char_traitsIcESaIcEENSt7__cxx1112basic_stringIT_T0_T1_EEPKS5_RKS8_
10019d18 g     F .text	00000018 __vfprintf_internal
1000def8  w    F .text	0000000c _ZNKSs8max_sizeEv
100127b8  w    F .text	00000064 _ZNSt7__cxx1112basic_stringIcSt11char_traitsIcESaIcEE6assignERKS4_jj
1000c47c g     F .text	000000d4 _ZGTtNSt13runtime_errorC2EPKc
1000c450 g     F .text	0000002c _ZGTtNSt12out_of_rangeD0Ev
10013a14  w    F .text	0000000c _ZNKSt7__cxx1112basic_stringIcSt11char_traitsIcESaIcEE17find_first_not_ofERKS4_j
1001f28c g     F .text	0000000c _wctomb_r
1000e5ec  w    F .text	00000050 _ZNKSs17find_first_not_ofEcj
100108ac  w    F .text	00000064 _ZNSsC2ERKSsjRKSaIcE
1000d0b4 g     F .text	00000010 _ZNSt10bad_typeidD2Ev
10021934 g     F .text	0000096c .hidden __subdf3
10012420  w    F .text	00000058 _ZNSt7__cxx1112basic_stringIcSt11char_traitsIcESaIcEE6insertEN9__gnu_cxx17__normal_iteratorIPKcS4_EEc
1000eda8  w    F .text	00000004 _ZNSs4_Rep10_M_destroyERKSaIcE
10010f98  w    F .text	0000005c _ZNSsC2EPKcRKSaIcE
100114e4  w    F .text	00000024 _ZNSt7__cxx1112basic_stringIcSt11char_traitsIcESaIcEE13_S_copy_charsEPcPKcS7_
10013270  w    F .text	0000002c _ZNSt7__cxx1112basic_stringIcSt11char_traitsIcESaIcEEpLESt16initializer_listIcE
1000eb4c  w    F .text	00000008 _ZNSs4_Rep10_M_refdataEv
1001c380 g     F .text	000000b0 __lo0bits
10005a44 g     F .text	00000190 UsbGetConfigDesc1
1000f17c  w    F .text	00000050 _ZNSs6rbeginEv
1000be30 g     F .text	00000008 _ZGTtNSt12domain_errorD2Ev
1001287c  w    F .text	00000028 _ZNSt7__cxx1112basic_stringIcSt11char_traitsIcESaIcEE6assignESt16initializer_listIcE
1000b370 g     F .text	000000ac _ZNSt11logic_errorC1EPKc
1001329c  w    F .text	0000002c _ZNSt7__cxx1112basic_stringIcSt11char_traitsIcESaIcEE6appendESt16initializer_listIcE
10028638 g     O .rwdata	00000008 alt_alarm_list
1000c354 g     F .text	000000f4 _ZGTtNSt12out_of_rangeC1ERKNSt7__cxx1112basic_stringIcSt11char_traitsIcESaIcEEE
10024130 g     F .text	00000060 _do_ctors
10011a38  w    F .text	00000018 _ZNSt7__cxx1112basic_stringIcSt11char_traitsIcESaIcEE6rbeginEv
10017610 g     F .text	00000010 __sigtramp
10013b3c  w    F .text	0000000c _ZNKSt7__cxx1112basic_stringIcSt11char_traitsIcESaIcEE16find_last_not_ofERKS4_j
10025de8  w    O .rodata	0000000c _ZTISt16invalid_argument
1000e3d4  w    F .text	0000000c _ZNKSs13find_first_ofERKSsj
10010844  w    F .text	0000003c _ZNSsC2IN9__gnu_cxx17__normal_iteratorIPcSsEEEET_S4_RKSaIcE
10005570 g     F .text	000000b4 UsbSoftReset
1000b588 g     F .text	00000030 _ZNSt11range_errorC1EPKc
1001f208 g     F .text	00000084 wcrtomb
10011230  w    F .text	00000010 _ZNKSt7__cxx1112basic_stringIcSt11char_traitsIcESaIcEE11_M_is_localEv
1000dd00  w    F .text	00000020 _ZNKSs11_M_disjunctEPKc
10013930  w    F .text	0000000c _ZNKSt7__cxx1112basic_stringIcSt11char_traitsIcESaIcEE12find_last_ofERKS4_j
10022568 g     F .text	000000d0 close
1000dff8  w    F .text	0000002c _ZNSs4swapERSs
1000b754 g     F .text	00000018 _ZNSt12__cow_stringC2EOS_
10011ad0  w    F .text	00000008 _ZNKSt7__cxx1112basic_stringIcSt11char_traitsIcESaIcEE6lengthEv
1000586c g     F .text	000001d8 UsbGetDeviceDesc2
10027254 g     O .rwdata	0000016c __global_locale
1000699c  w    F .text	0000003c _ZNSt15_Rb_tree_headerC1Ev
100117b4  w    F .text	00000014 _ZNSt7__cxx1112basic_stringIcSt11char_traitsIcESaIcEEC2Ev
10010f44  w    F .text	0000001c _ZNSs7replaceEN9__gnu_cxx17__normal_iteratorIPcSsEES2_St16initializer_listIcE
10025bbc  w    O .rodata	00000020 _ZTSN10__cxxabiv115__forced_unwindE
1000d728 g     F .text	000000a8 _ZNSt11logic_errorC1ERKSs
10022a54 g     F .text	00000084 alt_load
1000de38  w    F .text	00000010 _ZNSsC1Ev
10007ea4  w    F .text	00000038 _ZNKSt17_Rb_tree_iteratorI9TileGroupEeqERKS1_
1000d3e0 g     F .text	00000044 _ZNKSt9type_info10__do_catchEPKS_PPvj
1000b41c g     F .text	00000030 _ZNSt12domain_errorC1EPKc
100117c8  w    F .text	00000014 _ZNSt7__cxx1112basic_stringIcSt11char_traitsIcESaIcEEC1ERKS3_
1001f040 g     F .text	0000007c fputwc
100175d0 g     F .text	00000010 raise
1000d800 g     F .text	00000030 _ZNSt16invalid_argumentC2ERKSs
10016268 g     F .text	00000010 free
100154f4 g     F .text	00000004 __sinit_lock_acquire
10003554 g     F .text	00000074 wallPalette
1000d830 g     F .text	00000030 _ZNSt12length_errorC2ERKSs
1001c0f8 g     F .text	00000114 __multadd
1000d19c g     F .text	00000038 _ZN10__cxxabiv117__class_type_infoD0Ev
1001c0d4 g     F .text	00000024 _Bfree
10011aa0  w    F .text	00000018 _ZNKSt7__cxx1112basic_stringIcSt11char_traitsIcESaIcEE7crbeginEv
10014260  w    F .text	00000010 _ZNSt7__cxx1112basic_stringIcSt11char_traitsIcESaIcEEC1IN9__gnu_cxx17__normal_iteratorIPcS4_EEvEET_SA_RKS3_
10014318  w    F .text	00000020 _ZNSt7__cxx1112basic_stringIcSt11char_traitsIcESaIcEEC2ERKS4_RKS3_
1000ffa4  w    F .text	00000104 _ZNSs6appendEPKcj
10000b54 g     F .text	000006e4 tickgame
1000d890 g     F .text	000000a8 _ZNSt13runtime_errorC1ERKSs



Disassembly of section .entry:

10000000 <__reset>:
#if NIOS2_ICACHE_SIZE > 0 && defined(ALT_ALLOW_CODE_AT_RESET) && (!defined(ALT_SIM_OPTIMIZE) || defined(NIOS2_ECC_PRESENT))
    /* Assume the instruction cache size is always a power of two. */
#if NIOS2_ICACHE_SIZE > 0x8000
    movhi r2, %hi(NIOS2_ICACHE_SIZE)
#else
    movui r2, NIOS2_ICACHE_SIZE
10000000:	00840014 	movui	r2,4096
#endif

0:
    initi r2
10000004:	1001483a 	initi	r2
    addi r2, r2, -NIOS2_ICACHE_LINE_SIZE
10000008:	10bff804 	addi	r2,r2,-32
    bgt r2, zero, 0b
1000000c:	00bffd16 	blt	zero,r2,10000004 <__reset+0x4>
 * Jump to the _start entry point in the .text section if reset code
 * is allowed or if optimizing for RTL simulation.
 */
#if defined(ALT_ALLOW_CODE_AT_RESET) || defined(ALT_SIM_OPTIMIZE)
    /* Jump to the _start entry point in the .text section. */
    movhi r1, %hi(_start)
10000010:	00440034 	movhi	at,4096
    ori r1, r1, %lo(_start)
10000014:	08408e14 	ori	at,at,568
    jmp r1
10000018:	0800683a 	jmp	at
1000001c:	00000000 	call	10000000 <__reset>

Disassembly of section .exceptions:

10000020 <alt_exception>:

#else /* ALT_EXCEPTION_STACK disabled */
        /* 
         * Reserve space on normal stack for registers about to be pushed.
         */
        addi  sp, sp, -76
10000020:	deffed04 	addi	sp,sp,-76
         * documentation for details).
         *
         * Leave a gap in the stack frame at 4(sp) for the muldiv handler to
         * store zero into.
         */
        stw   ra,  0(sp)
10000024:	dfc00015 	stw	ra,0(sp)
        stw   r1,   8(sp)
10000028:	d8400215 	stw	at,8(sp)
        stw   r2,  12(sp)
1000002c:	d8800315 	stw	r2,12(sp)
        stw   r3,  16(sp)
10000030:	d8c00415 	stw	r3,16(sp)
        stw   r4,  20(sp)
10000034:	d9000515 	stw	r4,20(sp)
        stw   r5,  24(sp)
10000038:	d9400615 	stw	r5,24(sp)
        stw   r6,  28(sp)
1000003c:	d9800715 	stw	r6,28(sp)
        stw   r7,  32(sp)
10000040:	d9c00815 	stw	r7,32(sp)
        rdctl r5, estatus   /* Read early to avoid usage stall */
10000044:	000b307a 	rdctl	r5,estatus
        stw   r8,  36(sp)
10000048:	da000915 	stw	r8,36(sp)
        stw   r9,  40(sp)
1000004c:	da400a15 	stw	r9,40(sp)
        stw   r10, 44(sp)
10000050:	da800b15 	stw	r10,44(sp)
        stw   r11, 48(sp)
10000054:	dac00c15 	stw	r11,48(sp)
        stw   r12, 52(sp)
10000058:	db000d15 	stw	r12,52(sp)
        stw   r13, 56(sp)
1000005c:	db400e15 	stw	r13,56(sp)
        stw   r14, 60(sp)
10000060:	db800f15 	stw	r14,60(sp)
        stw   r15, 64(sp)
10000064:	dbc01015 	stw	r15,64(sp)
        /*
         * ea-4 contains the address of the instruction being executed
         * when the exception occured. For interrupt exceptions, we will
         * will be re-issue the isntruction. Store it in 72(sp)
         */
        stw   r5,  68(sp)  /* estatus */
10000068:	d9401115 	stw	r5,68(sp)
        addi  r15, ea, -4  /* instruction that caused exception */
1000006c:	ebffff04 	addi	r15,ea,-4
        stw   r15,  72(sp)
10000070:	dbc01215 	stw	r15,72(sp)
#else
        /*
         * Test to see if the exception was a software exception or caused 
         * by an external interrupt, and vector accordingly.
         */
        rdctl r4, ipending
10000074:	0009313a 	rdctl	r4,ipending
        andi  r2, r5, 1
10000078:	2880004c 	andi	r2,r5,1
        beq   r2, zero, .Lnot_irq
1000007c:	10000326 	beq	r2,zero,1000008c <alt_exception+0x6c>
        beq   r4, zero, .Lnot_irq
10000080:	20000226 	beq	r4,zero,1000008c <alt_exception+0x6c>
        /*
         * Now that all necessary registers have been preserved, call 
         * alt_irq_handler() to process the interrupts.
         */

        call alt_irq_handler
10000084:	00000fc0 	call	100000fc <alt_irq_handler>

        .section .exceptions.irqreturn, "xa"

        br    .Lexception_exit
10000088:	00000706 	br	100000a8 <alt_exception+0x88>
         * upon completion, so we write ea (address of instruction *after*
         * the one where the exception occured) into 72(sp). The actual
         * instruction that caused the exception is written in r2, which these
         * handlers will utilize.
         */
        stw ea, 72(sp) /* EA is PC+4 so will skip over instruction causing exception */
1000008c:	df401215 	stw	ea,72(sp)
.Lunknown_16bit:
        addi.n r4, r4, 2 /* Need PC+2 to skip over instruction causing exception */
        stw r4, 72(sp)

#else /* CDX is not Enabled and all instructions are 32bits */
        ldw r2, -4(ea) /* Instruction value that caused exception */
10000090:	e8bfff17 	ldw	r2,-4(ea)
         * debugger is present) or go into an infinite loop since the
         * handling behavior is undefined; in that case we will not return here.
         */

        /* Load exception-causing address as first argument (r4) */
        addi   r4, ea, -4
10000094:	e93fff04 	addi	r4,ea,-4

        /* Call the instruction-exception entry */
        call   alt_instruction_exception_entry
10000098:	00001c40 	call	100001c4 <alt_instruction_exception_entry>
         * instruction
         *
         * Return code was 0: Skip. The instruction after the exception is
         * already stored in 72(sp).
         */
        bne   r2, r0, .Lexception_exit
1000009c:	1000021e 	bne	r2,zero,100000a8 <alt_exception+0x88>

        /*
         * Otherwise, modify 72(sp) to re-issue the instruction that caused the
         * exception.
         */
        addi  r15, ea, -4  /* instruction that caused exception */
100000a0:	ebffff04 	addi	r15,ea,-4
        stw   r15,  72(sp)
100000a4:	dbc01215 	stw	r15,72(sp)
        /* 
         * Restore the saved registers, so that all general purpose registers 
         * have been restored to their state at the time the interrupt occured.
         */

        ldw   r5,  68(sp)
100000a8:	d9401117 	ldw	r5,68(sp)
        ldw   ea,  72(sp)  /* This becomes the PC once eret is executed */
100000ac:	df401217 	ldw	ea,72(sp)
        ldw   ra,   0(sp)
100000b0:	dfc00017 	ldw	ra,0(sp)

        wrctl estatus, r5
100000b4:	2801707a 	wrctl	estatus,r5

        ldw   r1,   8(sp)
100000b8:	d8400217 	ldw	at,8(sp)
        ldw   r2,  12(sp)
100000bc:	d8800317 	ldw	r2,12(sp)
        ldw   r3,  16(sp)
100000c0:	d8c00417 	ldw	r3,16(sp)
        ldw   r4,  20(sp)
100000c4:	d9000517 	ldw	r4,20(sp)
        ldw   r5,  24(sp)
100000c8:	d9400617 	ldw	r5,24(sp)
        ldw   r6,  28(sp)
100000cc:	d9800717 	ldw	r6,28(sp)
        ldw   r7,  32(sp)
100000d0:	d9c00817 	ldw	r7,32(sp)

#if defined(ALT_EXCEPTION_STACK) && defined(ALT_STACK_CHECK)
        ldw   et, %gprel(alt_exception_old_stack_limit)(gp)
#endif

        ldw   r8,  36(sp)
100000d4:	da000917 	ldw	r8,36(sp)
        ldw   r9,  40(sp)
100000d8:	da400a17 	ldw	r9,40(sp)
        ldw   r10, 44(sp)
100000dc:	da800b17 	ldw	r10,44(sp)
        ldw   r11, 48(sp)
100000e0:	dac00c17 	ldw	r11,48(sp)
        ldw   r12, 52(sp)
100000e4:	db000d17 	ldw	r12,52(sp)
        ldw   r13, 56(sp)
100000e8:	db400e17 	ldw	r13,56(sp)
        ldw   r14, 60(sp)
100000ec:	db800f17 	ldw	r14,60(sp)
        ldw   r15, 64(sp)
100000f0:	dbc01017 	ldw	r15,64(sp)
        stw   et, %gprel(alt_stack_limit_value)(gp)
        stw   zero, %gprel(alt_exception_old_stack_limit)(gp)
#endif /* ALT_STACK_CHECK */
        ldw   sp,  76(sp)
#else /* ALT_EXCEPTION_STACK disabled */
        addi  sp, sp, 76
100000f4:	dec01304 	addi	sp,sp,76

        /*
         * Return to the interrupted instruction.
         */

        eret
100000f8:	ef80083a 	eret

100000fc <alt_irq_handler>:
 * instruction is present if the macro ALT_CI_INTERRUPT_VECTOR defined.
 */

void alt_irq_handler (void) __attribute__ ((section (".exceptions")));
void alt_irq_handler (void)
{
100000fc:	defff904 	addi	sp,sp,-28
10000100:	dfc00615 	stw	ra,24(sp)
10000104:	df000515 	stw	fp,20(sp)
10000108:	df000504 	addi	fp,sp,20
  
  /*
   * Notify the operating system that we are at interrupt level.
   */ 
  
  ALT_OS_INT_ENTER();
1000010c:	0001883a 	nop
#ifndef NIOS2_EIC_PRESENT
static ALT_INLINE alt_u32 ALT_ALWAYS_INLINE alt_irq_pending (void)
{
  alt_u32 active;

  NIOS2_READ_IPENDING (active);
10000110:	0005313a 	rdctl	r2,ipending
10000114:	e0bffc15 	stw	r2,-16(fp)

  return active;
10000118:	e0bffc17 	ldw	r2,-16(fp)
   * Consider the case where the high priority interupt is asserted during
   * the interrupt entry sequence for a lower priority interrupt to see why
   * this is the case.
   */

  active = alt_irq_pending ();
1000011c:	e0bfff15 	stw	r2,-4(fp)

  do
  {
    i = 0;
10000120:	e03ffd15 	stw	zero,-12(fp)
    mask = 1;
10000124:	00800044 	movi	r2,1
10000128:	e0bffe15 	stw	r2,-8(fp)
     * called to clear the interrupt condition.
     */

    do
    {
      if (active & mask)
1000012c:	e0ffff17 	ldw	r3,-4(fp)
10000130:	e0bffe17 	ldw	r2,-8(fp)
10000134:	1884703a 	and	r2,r3,r2
10000138:	10001126 	beq	r2,zero,10000180 <alt_irq_handler+0x84>
      { 
#ifdef ALT_ENHANCED_INTERRUPT_API_PRESENT
        alt_irq[i].handler(alt_irq[i].context); 
1000013c:	e0bffd17 	ldw	r2,-12(fp)
10000140:	100690fa 	slli	r3,r2,3
10000144:	008400f4 	movhi	r2,4099
10000148:	1885883a 	add	r2,r3,r2
1000014c:	10e9a317 	ldw	r3,-22900(r2)
10000150:	e0bffd17 	ldw	r2,-12(fp)
10000154:	100890fa 	slli	r4,r2,3
10000158:	008400f4 	movhi	r2,4099
1000015c:	2085883a 	add	r2,r4,r2
10000160:	10a9a417 	ldw	r2,-22896(r2)
10000164:	1009883a 	mov	r4,r2
10000168:	183ee83a 	callr	r3
#else
        alt_irq[i].handler(alt_irq[i].context, i); 
#endif
        break;
1000016c:	0001883a 	nop
  NIOS2_READ_IPENDING (active);
10000170:	0005313a 	rdctl	r2,ipending
10000174:	e0bffb15 	stw	r2,-20(fp)
  return active;
10000178:	e0bffb17 	ldw	r2,-20(fp)
1000017c:	00000706 	br	1000019c <alt_irq_handler+0xa0>
      }
      mask <<= 1;
10000180:	e0bffe17 	ldw	r2,-8(fp)
10000184:	1085883a 	add	r2,r2,r2
10000188:	e0bffe15 	stw	r2,-8(fp)
      i++;
1000018c:	e0bffd17 	ldw	r2,-12(fp)
10000190:	10800044 	addi	r2,r2,1
10000194:	e0bffd15 	stw	r2,-12(fp)
      if (active & mask)
10000198:	003fe406 	br	1000012c <alt_irq_handler+0x30>

    } while (1);

    active = alt_irq_pending ();
1000019c:	e0bfff15 	stw	r2,-4(fp)
    
  } while (active);
100001a0:	e0bfff17 	ldw	r2,-4(fp)
100001a4:	103fde1e 	bne	r2,zero,10000120 <alt_irq_handler+0x24>

  /*
   * Notify the operating system that interrupt processing is complete.
   */ 

  ALT_OS_INT_EXIT();
100001a8:	0001883a 	nop
}
100001ac:	0001883a 	nop
100001b0:	e037883a 	mov	sp,fp
100001b4:	dfc00117 	ldw	ra,4(sp)
100001b8:	df000017 	ldw	fp,0(sp)
100001bc:	dec00204 	addi	sp,sp,8
100001c0:	f800283a 	ret

100001c4 <alt_instruction_exception_entry>:
 * that handler if it has been registered. Absent a handler, it will
 * break break or hang as discussed below.
 */
int 
alt_instruction_exception_entry (alt_u32 exception_pc)
{
100001c4:	defffb04 	addi	sp,sp,-20
100001c8:	dfc00415 	stw	ra,16(sp)
100001cc:	df000315 	stw	fp,12(sp)
100001d0:	df000304 	addi	fp,sp,12
100001d4:	e13ffd15 	stw	r4,-12(fp)
 * NIOS2_EXCEPTION_CAUSE_NOT_PRESENT. Your handling routine should
 * check the validity of the cause argument before proceeding.
 */
#ifdef NIOS2_HAS_EXTRA_EXCEPTION_INFO
  /* Get exception cause & "badaddr" */
  NIOS2_READ_EXCEPTION(cause);
100001d8:	000531fa 	rdctl	r2,exception
100001dc:	e0bfff15 	stw	r2,-4(fp)
  cause = ( (cause & NIOS2_EXCEPTION_REG_CAUSE_MASK) >>
100001e0:	e0bfff17 	ldw	r2,-4(fp)
100001e4:	1004d0ba 	srli	r2,r2,2
100001e8:	108007cc 	andi	r2,r2,31
100001ec:	e0bfff15 	stw	r2,-4(fp)
              NIOS2_EXCEPTION_REG_CAUSE_OFST );

  NIOS2_READ_BADADDR(badaddr);
100001f0:	0005333a 	rdctl	r2,badaddr
100001f4:	e0bffe15 	stw	r2,-8(fp)
#else
  cause = NIOS2_EXCEPTION_CAUSE_NOT_PRESENT;
  badaddr = 0;
#endif /* NIOS2_HAS_EXTRA_EXCEPTION_INFO */

  if(alt_instruction_exception_handler) {
100001f8:	d0a7df17 	ldw	r2,-24708(gp)
100001fc:	10000726 	beq	r2,zero,1000021c <alt_instruction_exception_entry+0x58>
     * Call handler. Its return value indicates whether the exception-causing
     * instruction should be re-issued. The code that called us,
     * alt_eceptions_entry.S, will look at this value and adjust the ea
     * register as necessary
     */
    return alt_instruction_exception_handler(cause, exception_pc, badaddr);
10000200:	d0a7df17 	ldw	r2,-24708(gp)
10000204:	e0ffff17 	ldw	r3,-4(fp)
10000208:	e1bffe17 	ldw	r6,-8(fp)
1000020c:	e17ffd17 	ldw	r5,-12(fp)
10000210:	1809883a 	mov	r4,r3
10000214:	103ee83a 	callr	r2
10000218:	00000206 	br	10000224 <alt_instruction_exception_entry+0x60>
   *    (a peripheral which negates its interrupt output before its
   *    interrupt handler has been executed will cause spurious interrupts)
   */
  else {
#ifdef NIOS2_HAS_DEBUG_STUB
    NIOS2_BREAK();
1000021c:	003da03a 	break	0
      ;
#endif /* NIOS2_HAS_DEBUG_STUB */
  }

  /* We should not get here. Remove compiler warning. */
  return NIOS2_EXCEPTION_RETURN_REISSUE_INST;
10000220:	0005883a 	mov	r2,zero
}
10000224:	e037883a 	mov	sp,fp
10000228:	dfc00117 	ldw	ra,4(sp)
1000022c:	df000017 	ldw	fp,0(sp)
10000230:	dec00204 	addi	sp,sp,8
10000234:	f800283a 	ret

Disassembly of section .text:

10000238 <_start>:

    /* Assume the data cache size is always a power of two. */
#if NIOS2_DCACHE_SIZE > 0x8000
    movhi r2, %hi(NIOS2_DCACHE_SIZE)
#else
    movui r2, NIOS2_DCACHE_SIZE
10000238:	00820014 	movui	r2,2048
#endif

0:
    initd 0(r2)
1000023c:	10000033 	initd	0(r2)
#ifdef NIOS2_ECC_PRESENT
    addi r2, r2, -4
#else
    addi r2, r2, -NIOS2_DCACHE_LINE_SIZE
10000240:	10bff804 	addi	r2,r2,-32
#endif
    bgt r2, zero, 0b
10000244:	00bffd16 	blt	zero,r2,1000023c <_start+0x4>

    /*
     * Now that the caches are initialized, set up the stack pointer and global pointer.
     * The values provided by the linker are assumed to be correctly aligned.
     */
    movhi sp, %hi(__alt_stack_pointer)
10000248:	06c60034 	movhi	sp,6144
    ori sp, sp, %lo(__alt_stack_pointer)
1000024c:	dec00014 	ori	sp,sp,0
    movhi gp, %hi(_gp)
10000250:	068400f4 	movhi	gp,4099
    ori gp, gp, %lo(_gp)
10000254:	d6817214 	ori	gp,gp,1480
 */
#ifndef ALT_SIM_OPTIMIZE
    /* Log that the BSS is about to be cleared. */
    ALT_LOG_PUTS(alt_log_msg_bss)

    movhi r2, %hi(__bss_start)
10000258:	008400b4 	movhi	r2,4098
    ori r2, r2, %lo(__bss_start)
1000025c:	10a93f14 	ori	r2,r2,42236

    movhi r3, %hi(__bss_end)
10000260:	00c400b4 	movhi	r3,4098
    ori r3, r3, %lo(__bss_end)
10000264:	18e9e314 	ori	r3,r3,42892

    beq r2, r3, 1f
10000268:	10c00326 	beq	r2,r3,10000278 <_start+0x40>

0:
    stw zero, (r2)
1000026c:	10000015 	stw	zero,0(r2)
    addi r2, r2, 4
10000270:	10800104 	addi	r2,r2,4
    bltu r2, r3, 0b
10000274:	10fffd36 	bltu	r2,r3,1000026c <_start+0x34>
     * section aren't defined until alt_load() has been called).
     */
    mov   et, zero
#endif

    call alt_load
10000278:	0022a540 	call	10022a54 <alt_load>

    /* Log that alt_main is about to be called. */
    ALT_LOG_PUTS(alt_log_msg_alt_main)

    /* Call the C entry point. It should never return. */
    call alt_main
1000027c:	0022be80 	call	10022be8 <alt_main>

10000280 <alt_after_alt_main>:

    /* Wait in infinite loop in case alt_main does return. */
alt_after_alt_main:
    br alt_after_alt_main
10000280:	003fff06 	br	10000280 <alt_after_alt_main>

10000284 <screen_test>:
#include "tile_eng_driver.h"
#include <stdint.h>
#include "system.h"
#include<stdio.h>

void screen_test() {
10000284:	deffc104 	addi	sp,sp,-252
10000288:	dfc03e15 	stw	ra,248(sp)
1000028c:	df003d15 	stw	fp,244(sp)
10000290:	df003d04 	addi	fp,sp,244
	printf("Screen Test is running!");
10000294:	010400b4 	movhi	r4,4098
10000298:	2113ab04 	addi	r4,r4,20140
1000029c:	0016f900 	call	10016f90 <printf>
	palette_ptr[0b00000] = 0x117180;
100002a0:	00c02004 	movi	r3,128
100002a4:	00800474 	movhi	r2,17
100002a8:	109c6004 	addi	r2,r2,29056
100002ac:	18800015 	stw	r2,0(r3)
	palette_ptr[0b00001] = 0x6EECFF;
100002b0:	00c02104 	movi	r3,132
100002b4:	00801bf4 	movhi	r2,111
100002b8:	10bb3fc4 	addi	r2,r2,-4865
100002bc:	18800015 	stw	r2,0(r3)
	palette_ptr[0b00010] = 0x1BB4CC;
100002c0:	00c02204 	movi	r3,136
100002c4:	00800734 	movhi	r2,28
100002c8:	10ad3304 	addi	r2,r2,-19252
100002cc:	18800015 	stw	r2,0(r3)
	palette_ptr[0b00011] = 0x21E3FF;
100002d0:	00c02304 	movi	r3,140
100002d4:	008008b4 	movhi	r2,34
100002d8:	10b8ffc4 	addi	r2,r2,-7169
100002dc:	18800015 	stw	r2,0(r3)

	Palette newPalette;
	newPalette.paletteId = 1;
100002e0:	00800044 	movi	r2,1
100002e4:	e0bff615 	stw	r2,-40(fp)
	newPalette.colors[0] = 0x723E80;
100002e8:	00801cb4 	movhi	r2,114
100002ec:	108fa004 	addi	r2,r2,16000
100002f0:	e0bff715 	stw	r2,-36(fp)
	newPalette.colors[1] = 0xF3C7FF;
100002f4:	00803d34 	movhi	r2,244
100002f8:	10b1ffc4 	addi	r2,r2,-14337
100002fc:	e0bff815 	stw	r2,-32(fp)
	newPalette.colors[2] = 0x796380;
10000300:	00801e74 	movhi	r2,121
10000304:	1098e004 	addi	r2,r2,25472
10000308:	e0bff915 	stw	r2,-28(fp)
	newPalette.colors[3] = 0xE57DFF;
1000030c:	00803974 	movhi	r2,229
10000310:	109f7fc4 	addi	r2,r2,32255
10000314:	e0bffa15 	stw	r2,-24(fp)
	writePalette(&newPalette);
10000318:	e0bff604 	addi	r2,fp,-40
1000031c:	1009883a 	mov	r4,r2
10000320:	00050c40 	call	100050c4 <writePalette>

	Palette newPalette2;
	newPalette2.paletteId = 2;
10000324:	00800084 	movi	r2,2
10000328:	e0bff115 	stw	r2,-60(fp)
	newPalette2.colors[0] = 0x2F802E;
1000032c:	00800c34 	movhi	r2,48
10000330:	10a00b84 	addi	r2,r2,-32722
10000334:	e0bff215 	stw	r2,-56(fp)
	newPalette2.colors[3] = 0x5EFF5B;
10000338:	008017f4 	movhi	r2,95
1000033c:	10bfd6c4 	addi	r2,r2,-165
10000340:	e0bff515 	stw	r2,-44(fp)
	writePalette(&newPalette2);
10000344:	e0bff104 	addi	r2,fp,-60
10000348:	1009883a 	mov	r4,r2
1000034c:	00050c40 	call	100050c4 <writePalette>

	Palette newPalette3;
	newPalette3.paletteId = 3;
10000350:	008000c4 	movi	r2,3
10000354:	e0bfec15 	stw	r2,-80(fp)
	newPalette3.colors[0] = 0x805E1B;
10000358:	00802034 	movhi	r2,128
1000035c:	109786c4 	addi	r2,r2,24091
10000360:	e0bfed15 	stw	r2,-76(fp)
	newPalette3.colors[3] = 0xFFBC36;
10000364:	00804034 	movhi	r2,256
10000368:	10af0d84 	addi	r2,r2,-17354
1000036c:	e0bff015 	stw	r2,-64(fp)
	writePalette(&newPalette3);
10000370:	e0bfec04 	addi	r2,fp,-80
10000374:	1009883a 	mov	r4,r2
10000378:	00050c40 	call	100050c4 <writePalette>

	Sprite wavey;
	wavey.sprite_id = 0;
1000037c:	e03fe38d 	sth	zero,-114(fp)
	char wavey_mat[16][8] = {
10000380:	e0ffc384 	addi	r3,fp,-242
10000384:	008400b4 	movhi	r2,4098
10000388:	1093ba84 	addi	r2,r2,20202
1000038c:	01002004 	movi	r4,128
10000390:	200d883a 	mov	r6,r4
10000394:	100b883a 	mov	r5,r2
10000398:	1809883a 	mov	r4,r3
1000039c:	0016be00 	call	10016be0 <memcpy>
			"        ",
			"        ",
			"        ",
	};

	parseSprite(&wavey, wavey_mat);
100003a0:	e0ffc384 	addi	r3,fp,-242
100003a4:	e0bfe384 	addi	r2,fp,-114
100003a8:	180b883a 	mov	r5,r3
100003ac:	1009883a 	mov	r4,r2
100003b0:	00052700 	call	10005270 <parseSprite>
	for(int i=0;i<15;i++) {
100003b4:	e03fff15 	stw	zero,-4(fp)
100003b8:	00000c06 	br	100003ec <screen_test+0x168>
		printf("%04x\n",wavey.lines[i]);
100003bc:	e0bfff17 	ldw	r2,-4(fp)
100003c0:	1085883a 	add	r2,r2,r2
100003c4:	e085883a 	add	r2,fp,r2
100003c8:	10bfe40b 	ldhu	r2,-112(r2)
100003cc:	10bfffcc 	andi	r2,r2,65535
100003d0:	100b883a 	mov	r5,r2
100003d4:	010400b4 	movhi	r4,4098
100003d8:	2113b104 	addi	r4,r4,20164
100003dc:	0016f900 	call	10016f90 <printf>
	for(int i=0;i<15;i++) {
100003e0:	e0bfff17 	ldw	r2,-4(fp)
100003e4:	10800044 	addi	r2,r2,1
100003e8:	e0bfff15 	stw	r2,-4(fp)
100003ec:	e0bfff17 	ldw	r2,-4(fp)
100003f0:	108003d0 	cmplti	r2,r2,15
100003f4:	103ff11e 	bne	r2,zero,100003bc <screen_test+0x138>
	}
	printf("\n\n");
100003f8:	010400b4 	movhi	r4,4098
100003fc:	2113b304 	addi	r4,r4,20172
10000400:	00170b40 	call	100170b4 <puts>

	writeSprite(&wavey);
10000404:	e0bfe384 	addi	r2,fp,-114
10000408:	1009883a 	mov	r4,r2
1000040c:	00052e80 	call	100052e8 <writeSprite>
	printf("\n\n");
10000410:	010400b4 	movhi	r4,4098
10000414:	2113b304 	addi	r4,r4,20172
10000418:	00170b40 	call	100170b4 <puts>

	for(int i=0;i<8;i++) {
1000041c:	e03ffe15 	stw	zero,-8(fp)
10000420:	00000b06 	br	10000450 <screen_test+0x1cc>
		printf("%08x\n",spriteram_ptr[i]);
10000424:	e0bffe17 	ldw	r2,-8(fp)
10000428:	100490ba 	slli	r2,r2,2
1000042c:	10860004 	addi	r2,r2,6144
10000430:	10800017 	ldw	r2,0(r2)
10000434:	100b883a 	mov	r5,r2
10000438:	010400b4 	movhi	r4,4098
1000043c:	2113b404 	addi	r4,r4,20176
10000440:	0016f900 	call	10016f90 <printf>
	for(int i=0;i<8;i++) {
10000444:	e0bffe17 	ldw	r2,-8(fp)
10000448:	10800044 	addi	r2,r2,1
1000044c:	e0bffe15 	stw	r2,-8(fp)
10000450:	e0bffe17 	ldw	r2,-8(fp)
10000454:	10800210 	cmplti	r2,r2,8
10000458:	103ff21e 	bne	r2,zero,10000424 <screen_test+0x1a0>
	}

	// spriteram_ptr[0] = 0xFFFFFFFF;
	// spriteram_ptr[1] = 0xAAAAAAAA;
	uint8_t counter = 0;
1000045c:	e03ffdc5 	stb	zero,-9(fp)
	for(int i=0; i<80; i++) {
10000460:	e03ffc15 	stw	zero,-16(fp)
10000464:	00001606 	br	100004c0 <screen_test+0x23c>
		for(int j=0; j<30; j++) {
10000468:	e03ffb15 	stw	zero,-20(fp)
1000046c:	00000e06 	br	100004a8 <screen_test+0x224>
			drawTile(i,j,counter&0x03,128);
10000470:	e0bffdc3 	ldbu	r2,-9(fp)
10000474:	108000cc 	andi	r2,r2,3
10000478:	01c02004 	movi	r7,128
1000047c:	100d883a 	mov	r6,r2
10000480:	e17ffb17 	ldw	r5,-20(fp)
10000484:	e13ffc17 	ldw	r4,-16(fp)
10000488:	0004f980 	call	10004f98 <drawTile>
			counter = (counter+1) & 0x7F;
1000048c:	e0bffdc3 	ldbu	r2,-9(fp)
10000490:	10800044 	addi	r2,r2,1
10000494:	10801fcc 	andi	r2,r2,127
10000498:	e0bffdc5 	stb	r2,-9(fp)
		for(int j=0; j<30; j++) {
1000049c:	e0bffb17 	ldw	r2,-20(fp)
100004a0:	10800044 	addi	r2,r2,1
100004a4:	e0bffb15 	stw	r2,-20(fp)
100004a8:	e0bffb17 	ldw	r2,-20(fp)
100004ac:	10800790 	cmplti	r2,r2,30
100004b0:	103fef1e 	bne	r2,zero,10000470 <screen_test+0x1ec>
	for(int i=0; i<80; i++) {
100004b4:	e0bffc17 	ldw	r2,-16(fp)
100004b8:	10800044 	addi	r2,r2,1
100004bc:	e0bffc15 	stw	r2,-16(fp)
100004c0:	e0bffc17 	ldw	r2,-16(fp)
100004c4:	10801410 	cmplti	r2,r2,80
100004c8:	103fe71e 	bne	r2,zero,10000468 <screen_test+0x1e4>
		}
	}

	writeText(0,0,"Score",0);
100004cc:	000f883a 	mov	r7,zero
100004d0:	018400b4 	movhi	r6,4098
100004d4:	3193b604 	addi	r6,r6,20184
100004d8:	000b883a 	mov	r5,zero
100004dc:	0009883a 	mov	r4,zero
100004e0:	00053bc0 	call	100053bc <writeText>
	writeText(0,2,"Highscore",0);
100004e4:	000f883a 	mov	r7,zero
100004e8:	018400b4 	movhi	r6,4098
100004ec:	3193b804 	addi	r6,r6,20192
100004f0:	01400084 	movi	r5,2
100004f4:	0009883a 	mov	r4,zero
100004f8:	00053bc0 	call	100053bc <writeText>
}
100004fc:	0001883a 	nop
10000500:	e037883a 	mov	sp,fp
10000504:	dfc00117 	ldw	ra,4(sp)
10000508:	df000017 	ldw	fp,0(sp)
1000050c:	dec00204 	addi	sp,sp,8
10000510:	f800283a 	ret

10000514 <IO_init>:
//io_handler.c
#include "io_handler.h"
#include <stdio.h>

void IO_init(void)
{
10000514:	defffe04 	addi	sp,sp,-8
10000518:	dfc00115 	stw	ra,4(sp)
1000051c:	df000015 	stw	fp,0(sp)
10000520:	d839883a 	mov	fp,sp
	printf("Check A");
10000524:	010400b4 	movhi	r4,4098
10000528:	2113db04 	addi	r4,r4,20332
1000052c:	0016f900 	call	10016f90 <printf>
	*otg_hpi_reset = 1;
10000530:	00801004 	movi	r2,64
10000534:	00c00044 	movi	r3,1
10000538:	10c00005 	stb	r3,0(r2)
	printf("Check B");
1000053c:	010400b4 	movhi	r4,4098
10000540:	2113dd04 	addi	r4,r4,20340
10000544:	0016f900 	call	10016f90 <printf>
	*otg_hpi_cs = 1;
10000548:	00800404 	movi	r2,16
1000054c:	00c00044 	movi	r3,1
10000550:	10c00005 	stb	r3,0(r2)
	printf("Check C");
10000554:	010400b4 	movhi	r4,4098
10000558:	2113df04 	addi	r4,r4,20348
1000055c:	0016f900 	call	10016f90 <printf>
	*otg_hpi_r = 1;
10000560:	00800804 	movi	r2,32
10000564:	00c00044 	movi	r3,1
10000568:	10c00005 	stb	r3,0(r2)
	printf("Check D");
1000056c:	010400b4 	movhi	r4,4098
10000570:	2113e104 	addi	r4,r4,20356
10000574:	0016f900 	call	10016f90 <printf>
	*otg_hpi_w = 1;
10000578:	00800c04 	movi	r2,48
1000057c:	00c00044 	movi	r3,1
10000580:	10c00005 	stb	r3,0(r2)
	printf("Check E");
10000584:	010400b4 	movhi	r4,4098
10000588:	2113e304 	addi	r4,r4,20364
1000058c:	0016f900 	call	10016f90 <printf>
	*otg_hpi_address = 0;
10000590:	00801404 	movi	r2,80
10000594:	10000015 	stw	zero,0(r2)
	printf("Check F");
10000598:	010400b4 	movhi	r4,4098
1000059c:	2113e504 	addi	r4,r4,20372
100005a0:	0016f900 	call	10016f90 <printf>
	*otg_hpi_data = 0;
100005a4:	00801804 	movi	r2,96
100005a8:	10000015 	stw	zero,0(r2)
	// Reset OTG chip
	*otg_hpi_cs = 0;
100005ac:	00800404 	movi	r2,16
100005b0:	10000005 	stb	zero,0(r2)
	printf("Check G");
100005b4:	010400b4 	movhi	r4,4098
100005b8:	2113e704 	addi	r4,r4,20380
100005bc:	0016f900 	call	10016f90 <printf>
	*otg_hpi_reset = 0;
100005c0:	00801004 	movi	r2,64
100005c4:	10000005 	stb	zero,0(r2)
	printf("Check H");
100005c8:	010400b4 	movhi	r4,4098
100005cc:	2113e904 	addi	r4,r4,20388
100005d0:	0016f900 	call	10016f90 <printf>
	*otg_hpi_reset = 1;
100005d4:	00801004 	movi	r2,64
100005d8:	00c00044 	movi	r3,1
100005dc:	10c00005 	stb	r3,0(r2)
	printf("Check I");
100005e0:	010400b4 	movhi	r4,4098
100005e4:	2113eb04 	addi	r4,r4,20396
100005e8:	0016f900 	call	10016f90 <printf>
	*otg_hpi_cs = 1;
100005ec:	00800404 	movi	r2,16
100005f0:	00c00044 	movi	r3,1
100005f4:	10c00005 	stb	r3,0(r2)
}
100005f8:	0001883a 	nop
100005fc:	e037883a 	mov	sp,fp
10000600:	dfc00117 	ldw	ra,4(sp)
10000604:	df000017 	ldw	fp,0(sp)
10000608:	dec00204 	addi	sp,sp,8
1000060c:	f800283a 	ret

10000610 <IO_write>:

void IO_write(alt_u8 Address, alt_u16 Data)
{
10000610:	defffd04 	addi	sp,sp,-12
10000614:	df000215 	stw	fp,8(sp)
10000618:	df000204 	addi	fp,sp,8
1000061c:	2005883a 	mov	r2,r4
10000620:	2807883a 	mov	r3,r5
10000624:	e0bfff05 	stb	r2,-4(fp)
10000628:	1805883a 	mov	r2,r3
1000062c:	e0bffe0d 	sth	r2,-8(fp)
//*************************************************************************//
//									TASK								   //
//*************************************************************************//
//							Write this function							   //
//*************************************************************************//
	*otg_hpi_address = Address;
10000630:	00801404 	movi	r2,80
10000634:	e0ffff03 	ldbu	r3,-4(fp)
10000638:	10c00015 	stw	r3,0(r2)
	*otg_hpi_data = Data;
1000063c:	00801804 	movi	r2,96
10000640:	e0fffe0b 	ldhu	r3,-8(fp)
10000644:	10c00015 	stw	r3,0(r2)
	*otg_hpi_cs = 0;
10000648:	00800404 	movi	r2,16
1000064c:	10000005 	stb	zero,0(r2)
	*otg_hpi_w = 0;
10000650:	00800c04 	movi	r2,48
10000654:	10000005 	stb	zero,0(r2)
	*otg_hpi_w = 1;
10000658:	00800c04 	movi	r2,48
1000065c:	00c00044 	movi	r3,1
10000660:	10c00005 	stb	r3,0(r2)
	*otg_hpi_cs = 1;
10000664:	00800404 	movi	r2,16
10000668:	00c00044 	movi	r3,1
1000066c:	10c00005 	stb	r3,0(r2)
	//printf("Wrote %x to HPI %d\n", Data, Address);
}
10000670:	0001883a 	nop
10000674:	e037883a 	mov	sp,fp
10000678:	df000017 	ldw	fp,0(sp)
1000067c:	dec00104 	addi	sp,sp,4
10000680:	f800283a 	ret

10000684 <IO_read>:

alt_u16 IO_read(alt_u8 Address)
{
10000684:	defffd04 	addi	sp,sp,-12
10000688:	df000215 	stw	fp,8(sp)
1000068c:	df000204 	addi	fp,sp,8
10000690:	2005883a 	mov	r2,r4
10000694:	e0bffe05 	stb	r2,-8(fp)
//*************************************************************************//
//									TASK								   //
//*************************************************************************//
//							Write this function							   //
//*************************************************************************//
	*otg_hpi_address = Address;
10000698:	00801404 	movi	r2,80
1000069c:	e0fffe03 	ldbu	r3,-8(fp)
100006a0:	10c00015 	stw	r3,0(r2)
	*otg_hpi_cs = 0;
100006a4:	00800404 	movi	r2,16
100006a8:	10000005 	stb	zero,0(r2)
	*otg_hpi_r = 0;
100006ac:	00800804 	movi	r2,32
100006b0:	10000005 	stb	zero,0(r2)
	temp = *otg_hpi_data;
100006b4:	00801804 	movi	r2,96
100006b8:	10800017 	ldw	r2,0(r2)
100006bc:	e0bfff8d 	sth	r2,-2(fp)
	*otg_hpi_r = 1;
100006c0:	00800804 	movi	r2,32
100006c4:	00c00044 	movi	r3,1
100006c8:	10c00005 	stb	r3,0(r2)
	*otg_hpi_cs = 1;
100006cc:	00800404 	movi	r2,16
100006d0:	00c00044 	movi	r3,1
100006d4:	10c00005 	stb	r3,0(r2)
	//printf("%x\n",temp);
	//printf("Read %x from HPI %d\n", temp, Address);
	return temp;
100006d8:	e0bfff8b 	ldhu	r2,-2(fp)
}
100006dc:	e037883a 	mov	sp,fp
100006e0:	df000017 	ldw	fp,0(sp)
100006e4:	dec00104 	addi	sp,sp,4
100006e8:	f800283a 	ret

100006ec <init_game>:
// In the board configuration, it contains additional PLAYER_POS, GHOST_INKY, GHOST_BLINKY, GHOST_CLYDE and GHOST_PINKY.
// These values are only used for initialization.

// Initialize a game.
// The game variable must already have space allocated.
void init_game(Game* game) {
100006ec:	defffc04 	addi	sp,sp,-16
100006f0:	dfc00315 	stw	ra,12(sp)
100006f4:	df000215 	stw	fp,8(sp)
100006f8:	df000204 	addi	fp,sp,8
100006fc:	e13ffe15 	stw	r4,-8(fp)
    uint8_t current_board = 0;
10000700:	e03fff45 	stb	zero,-3(fp)
    initScreen();
10000704:	00035c80 	call	100035c8 <initScreen>

    game->candy_count = 0;
10000708:	e0bffe17 	ldw	r2,-8(fp)
1000070c:	1000ea0d 	sth	zero,936(r2)
    game->state = PREINIT;
10000710:	e0bffe17 	ldw	r2,-8(fp)
10000714:	1000e915 	stw	zero,932(r2)

    // Find tiles in this map and assign them.
    uint8_t i, j;
    for(i=0; i<15; i+=1) {
10000718:	e03fffc5 	stb	zero,-1(fp)
1000071c:	00010106 	br	10000b24 <init_game+0x438>
        for(j=0; j<15; j+=1) {
10000720:	e03fff85 	stb	zero,-2(fp)
10000724:	0000f906 	br	10000b0c <init_game+0x420>
            if(GAME_BOARDS[current_board][i][j] == PLAYER_POS) {
10000728:	e0ffff43 	ldbu	r3,-3(fp)
1000072c:	e13fffc3 	ldbu	r4,-1(fp)
10000730:	e0bfff83 	ldbu	r2,-2(fp)
10000734:	210003e4 	muli	r4,r4,15
10000738:	18c03864 	muli	r3,r3,225
1000073c:	20c7883a 	add	r3,r4,r3
10000740:	1887883a 	add	r3,r3,r2
10000744:	008400b4 	movhi	r2,4098
10000748:	1885883a 	add	r2,r3,r2
1000074c:	1099e103 	ldbu	r2,26500(r2)
10000750:	10803fcc 	andi	r2,r2,255
10000754:	10800218 	cmpnei	r2,r2,8
10000758:	1000161e 	bne	r2,zero,100007b4 <init_game+0xc8>
                game->player.xpos = i;
1000075c:	e0bffe17 	ldw	r2,-8(fp)
10000760:	e0ffffc3 	ldbu	r3,-1(fp)
10000764:	10c0e105 	stb	r3,900(r2)
                game->player.ypos = j;
10000768:	e0bffe17 	ldw	r2,-8(fp)
1000076c:	e0ffff83 	ldbu	r3,-2(fp)
10000770:	10c0e145 	stb	r3,901(r2)
                game->game_map[i][j] = CANDY;
10000774:	e13fffc3 	ldbu	r4,-1(fp)
10000778:	e0bfff83 	ldbu	r2,-2(fp)
1000077c:	e0fffe17 	ldw	r3,-8(fp)
10000780:	210003e4 	muli	r4,r4,15
10000784:	2085883a 	add	r2,r4,r2
10000788:	100490ba 	slli	r2,r2,2
1000078c:	1885883a 	add	r2,r3,r2
10000790:	00c00044 	movi	r3,1
10000794:	10c00015 	stw	r3,0(r2)
                game->candy_count += 1;
10000798:	e0bffe17 	ldw	r2,-8(fp)
1000079c:	1080ea0b 	ldhu	r2,936(r2)
100007a0:	10800044 	addi	r2,r2,1
100007a4:	1007883a 	mov	r3,r2
100007a8:	e0bffe17 	ldw	r2,-8(fp)
100007ac:	10c0ea0d 	sth	r3,936(r2)
100007b0:	0000d306 	br	10000b00 <init_game+0x414>
            } else if(GAME_BOARDS[current_board][i][j] == GHOST_BLINKY) {
100007b4:	e0ffff43 	ldbu	r3,-3(fp)
100007b8:	e13fffc3 	ldbu	r4,-1(fp)
100007bc:	e0bfff83 	ldbu	r2,-2(fp)
100007c0:	210003e4 	muli	r4,r4,15
100007c4:	18c03864 	muli	r3,r3,225
100007c8:	20c7883a 	add	r3,r4,r3
100007cc:	1887883a 	add	r3,r3,r2
100007d0:	008400b4 	movhi	r2,4098
100007d4:	1885883a 	add	r2,r3,r2
100007d8:	1099e103 	ldbu	r2,26500(r2)
100007dc:	10803fcc 	andi	r2,r2,255
100007e0:	10800118 	cmpnei	r2,r2,4
100007e4:	1000161e 	bne	r2,zero,10000840 <init_game+0x154>
                game->blinky.xpos = i;
100007e8:	e0bffe17 	ldw	r2,-8(fp)
100007ec:	e0ffffc3 	ldbu	r3,-1(fp)
100007f0:	10c0e285 	stb	r3,906(r2)
                game->blinky.ypos = j;
100007f4:	e0bffe17 	ldw	r2,-8(fp)
100007f8:	e0ffff83 	ldbu	r3,-2(fp)
100007fc:	10c0e2c5 	stb	r3,907(r2)
                game->game_map[i][j] = CANDY;
10000800:	e13fffc3 	ldbu	r4,-1(fp)
10000804:	e0bfff83 	ldbu	r2,-2(fp)
10000808:	e0fffe17 	ldw	r3,-8(fp)
1000080c:	210003e4 	muli	r4,r4,15
10000810:	2085883a 	add	r2,r4,r2
10000814:	100490ba 	slli	r2,r2,2
10000818:	1885883a 	add	r2,r3,r2
1000081c:	00c00044 	movi	r3,1
10000820:	10c00015 	stw	r3,0(r2)
                game->candy_count += 1;
10000824:	e0bffe17 	ldw	r2,-8(fp)
10000828:	1080ea0b 	ldhu	r2,936(r2)
1000082c:	10800044 	addi	r2,r2,1
10000830:	1007883a 	mov	r3,r2
10000834:	e0bffe17 	ldw	r2,-8(fp)
10000838:	10c0ea0d 	sth	r3,936(r2)
1000083c:	0000b006 	br	10000b00 <init_game+0x414>
            } else if(GAME_BOARDS[current_board][i][j] == GHOST_PINKY) {
10000840:	e0ffff43 	ldbu	r3,-3(fp)
10000844:	e13fffc3 	ldbu	r4,-1(fp)
10000848:	e0bfff83 	ldbu	r2,-2(fp)
1000084c:	210003e4 	muli	r4,r4,15
10000850:	18c03864 	muli	r3,r3,225
10000854:	20c7883a 	add	r3,r4,r3
10000858:	1887883a 	add	r3,r3,r2
1000085c:	008400b4 	movhi	r2,4098
10000860:	1885883a 	add	r2,r3,r2
10000864:	1099e103 	ldbu	r2,26500(r2)
10000868:	10803fcc 	andi	r2,r2,255
1000086c:	10800158 	cmpnei	r2,r2,5
10000870:	1000161e 	bne	r2,zero,100008cc <init_game+0x1e0>
                game->pinky.xpos = i;
10000874:	e0bffe17 	ldw	r2,-8(fp)
10000878:	e0ffffc3 	ldbu	r3,-1(fp)
1000087c:	10c0e405 	stb	r3,912(r2)
                game->pinky.ypos = j;
10000880:	e0bffe17 	ldw	r2,-8(fp)
10000884:	e0ffff83 	ldbu	r3,-2(fp)
10000888:	10c0e445 	stb	r3,913(r2)
                game->game_map[i][j] = CANDY;
1000088c:	e13fffc3 	ldbu	r4,-1(fp)
10000890:	e0bfff83 	ldbu	r2,-2(fp)
10000894:	e0fffe17 	ldw	r3,-8(fp)
10000898:	210003e4 	muli	r4,r4,15
1000089c:	2085883a 	add	r2,r4,r2
100008a0:	100490ba 	slli	r2,r2,2
100008a4:	1885883a 	add	r2,r3,r2
100008a8:	00c00044 	movi	r3,1
100008ac:	10c00015 	stw	r3,0(r2)
                game->candy_count += 1;
100008b0:	e0bffe17 	ldw	r2,-8(fp)
100008b4:	1080ea0b 	ldhu	r2,936(r2)
100008b8:	10800044 	addi	r2,r2,1
100008bc:	1007883a 	mov	r3,r2
100008c0:	e0bffe17 	ldw	r2,-8(fp)
100008c4:	10c0ea0d 	sth	r3,936(r2)
100008c8:	00008d06 	br	10000b00 <init_game+0x414>
            } else if(GAME_BOARDS[current_board][i][j] == GHOST_INKY) {
100008cc:	e0ffff43 	ldbu	r3,-3(fp)
100008d0:	e13fffc3 	ldbu	r4,-1(fp)
100008d4:	e0bfff83 	ldbu	r2,-2(fp)
100008d8:	210003e4 	muli	r4,r4,15
100008dc:	18c03864 	muli	r3,r3,225
100008e0:	20c7883a 	add	r3,r4,r3
100008e4:	1887883a 	add	r3,r3,r2
100008e8:	008400b4 	movhi	r2,4098
100008ec:	1885883a 	add	r2,r3,r2
100008f0:	1099e103 	ldbu	r2,26500(r2)
100008f4:	10803fcc 	andi	r2,r2,255
100008f8:	10800198 	cmpnei	r2,r2,6
100008fc:	1000161e 	bne	r2,zero,10000958 <init_game+0x26c>
                game->inky.xpos = i;
10000900:	e0bffe17 	ldw	r2,-8(fp)
10000904:	e0ffffc3 	ldbu	r3,-1(fp)
10000908:	10c0e585 	stb	r3,918(r2)
                game->inky.ypos = j;
1000090c:	e0bffe17 	ldw	r2,-8(fp)
10000910:	e0ffff83 	ldbu	r3,-2(fp)
10000914:	10c0e5c5 	stb	r3,919(r2)
                game->game_map[i][j] = CANDY;
10000918:	e13fffc3 	ldbu	r4,-1(fp)
1000091c:	e0bfff83 	ldbu	r2,-2(fp)
10000920:	e0fffe17 	ldw	r3,-8(fp)
10000924:	210003e4 	muli	r4,r4,15
10000928:	2085883a 	add	r2,r4,r2
1000092c:	100490ba 	slli	r2,r2,2
10000930:	1885883a 	add	r2,r3,r2
10000934:	00c00044 	movi	r3,1
10000938:	10c00015 	stw	r3,0(r2)
                game->candy_count += 1;
1000093c:	e0bffe17 	ldw	r2,-8(fp)
10000940:	1080ea0b 	ldhu	r2,936(r2)
10000944:	10800044 	addi	r2,r2,1
10000948:	1007883a 	mov	r3,r2
1000094c:	e0bffe17 	ldw	r2,-8(fp)
10000950:	10c0ea0d 	sth	r3,936(r2)
10000954:	00006a06 	br	10000b00 <init_game+0x414>
            } else if(GAME_BOARDS[current_board][i][j] == GHOST_CLYDE) {
10000958:	e0ffff43 	ldbu	r3,-3(fp)
1000095c:	e13fffc3 	ldbu	r4,-1(fp)
10000960:	e0bfff83 	ldbu	r2,-2(fp)
10000964:	210003e4 	muli	r4,r4,15
10000968:	18c03864 	muli	r3,r3,225
1000096c:	20c7883a 	add	r3,r4,r3
10000970:	1887883a 	add	r3,r3,r2
10000974:	008400b4 	movhi	r2,4098
10000978:	1885883a 	add	r2,r3,r2
1000097c:	1099e103 	ldbu	r2,26500(r2)
10000980:	10803fcc 	andi	r2,r2,255
10000984:	108001d8 	cmpnei	r2,r2,7
10000988:	1000161e 	bne	r2,zero,100009e4 <init_game+0x2f8>
                game->clyde.xpos = i;
1000098c:	e0bffe17 	ldw	r2,-8(fp)
10000990:	e0ffffc3 	ldbu	r3,-1(fp)
10000994:	10c0e705 	stb	r3,924(r2)
                game->clyde.ypos = j;
10000998:	e0bffe17 	ldw	r2,-8(fp)
1000099c:	e0ffff83 	ldbu	r3,-2(fp)
100009a0:	10c0e745 	stb	r3,925(r2)
                game->game_map[i][j] = CANDY;
100009a4:	e13fffc3 	ldbu	r4,-1(fp)
100009a8:	e0bfff83 	ldbu	r2,-2(fp)
100009ac:	e0fffe17 	ldw	r3,-8(fp)
100009b0:	210003e4 	muli	r4,r4,15
100009b4:	2085883a 	add	r2,r4,r2
100009b8:	100490ba 	slli	r2,r2,2
100009bc:	1885883a 	add	r2,r3,r2
100009c0:	00c00044 	movi	r3,1
100009c4:	10c00015 	stw	r3,0(r2)
                game->candy_count += 1;
100009c8:	e0bffe17 	ldw	r2,-8(fp)
100009cc:	1080ea0b 	ldhu	r2,936(r2)
100009d0:	10800044 	addi	r2,r2,1
100009d4:	1007883a 	mov	r3,r2
100009d8:	e0bffe17 	ldw	r2,-8(fp)
100009dc:	10c0ea0d 	sth	r3,936(r2)
100009e0:	00004706 	br	10000b00 <init_game+0x414>
            } else if(GAME_BOARDS[current_board][i][j] == CANDY || GAME_BOARDS[current_board][i][j] == SUPER) {
100009e4:	e0ffff43 	ldbu	r3,-3(fp)
100009e8:	e13fffc3 	ldbu	r4,-1(fp)
100009ec:	e0bfff83 	ldbu	r2,-2(fp)
100009f0:	210003e4 	muli	r4,r4,15
100009f4:	18c03864 	muli	r3,r3,225
100009f8:	20c7883a 	add	r3,r4,r3
100009fc:	1887883a 	add	r3,r3,r2
10000a00:	008400b4 	movhi	r2,4098
10000a04:	1885883a 	add	r2,r3,r2
10000a08:	1099e103 	ldbu	r2,26500(r2)
10000a0c:	10803fcc 	andi	r2,r2,255
10000a10:	10800060 	cmpeqi	r2,r2,1
10000a14:	10000d1e 	bne	r2,zero,10000a4c <init_game+0x360>
10000a18:	e0ffff43 	ldbu	r3,-3(fp)
10000a1c:	e13fffc3 	ldbu	r4,-1(fp)
10000a20:	e0bfff83 	ldbu	r2,-2(fp)
10000a24:	210003e4 	muli	r4,r4,15
10000a28:	18c03864 	muli	r3,r3,225
10000a2c:	20c7883a 	add	r3,r4,r3
10000a30:	1887883a 	add	r3,r3,r2
10000a34:	008400b4 	movhi	r2,4098
10000a38:	1885883a 	add	r2,r3,r2
10000a3c:	1099e103 	ldbu	r2,26500(r2)
10000a40:	10803fcc 	andi	r2,r2,255
10000a44:	10800098 	cmpnei	r2,r2,2
10000a48:	10001a1e 	bne	r2,zero,10000ab4 <init_game+0x3c8>
                game->candy_count += 1;
10000a4c:	e0bffe17 	ldw	r2,-8(fp)
10000a50:	1080ea0b 	ldhu	r2,936(r2)
10000a54:	10800044 	addi	r2,r2,1
10000a58:	1007883a 	mov	r3,r2
10000a5c:	e0bffe17 	ldw	r2,-8(fp)
10000a60:	10c0ea0d 	sth	r3,936(r2)
                game->game_map[i][j] = (Tile)GAME_BOARDS[current_board][i][j];
10000a64:	e0ffff43 	ldbu	r3,-3(fp)
10000a68:	e13fffc3 	ldbu	r4,-1(fp)
10000a6c:	e0bfff83 	ldbu	r2,-2(fp)
10000a70:	210003e4 	muli	r4,r4,15
10000a74:	18c03864 	muli	r3,r3,225
10000a78:	20c7883a 	add	r3,r4,r3
10000a7c:	1887883a 	add	r3,r3,r2
10000a80:	008400b4 	movhi	r2,4098
10000a84:	1885883a 	add	r2,r3,r2
10000a88:	10d9e103 	ldbu	r3,26500(r2)
10000a8c:	e17fffc3 	ldbu	r5,-1(fp)
10000a90:	e0bfff83 	ldbu	r2,-2(fp)
10000a94:	18c03fcc 	andi	r3,r3,255
10000a98:	e13ffe17 	ldw	r4,-8(fp)
10000a9c:	294003e4 	muli	r5,r5,15
10000aa0:	2885883a 	add	r2,r5,r2
10000aa4:	100490ba 	slli	r2,r2,2
10000aa8:	2085883a 	add	r2,r4,r2
10000aac:	10c00015 	stw	r3,0(r2)
10000ab0:	00001306 	br	10000b00 <init_game+0x414>
            } else {    // WALL and WAY.
                game->game_map[i][j] = (Tile)GAME_BOARDS[current_board][i][j];
10000ab4:	e0ffff43 	ldbu	r3,-3(fp)
10000ab8:	e13fffc3 	ldbu	r4,-1(fp)
10000abc:	e0bfff83 	ldbu	r2,-2(fp)
10000ac0:	210003e4 	muli	r4,r4,15
10000ac4:	18c03864 	muli	r3,r3,225
10000ac8:	20c7883a 	add	r3,r4,r3
10000acc:	1887883a 	add	r3,r3,r2
10000ad0:	008400b4 	movhi	r2,4098
10000ad4:	1885883a 	add	r2,r3,r2
10000ad8:	10d9e103 	ldbu	r3,26500(r2)
10000adc:	e17fffc3 	ldbu	r5,-1(fp)
10000ae0:	e0bfff83 	ldbu	r2,-2(fp)
10000ae4:	18c03fcc 	andi	r3,r3,255
10000ae8:	e13ffe17 	ldw	r4,-8(fp)
10000aec:	294003e4 	muli	r5,r5,15
10000af0:	2885883a 	add	r2,r5,r2
10000af4:	100490ba 	slli	r2,r2,2
10000af8:	2085883a 	add	r2,r4,r2
10000afc:	10c00015 	stw	r3,0(r2)
        for(j=0; j<15; j+=1) {
10000b00:	e0bfff83 	ldbu	r2,-2(fp)
10000b04:	10800044 	addi	r2,r2,1
10000b08:	e0bfff85 	stb	r2,-2(fp)
10000b0c:	e0bfff83 	ldbu	r2,-2(fp)
10000b10:	108003f0 	cmpltui	r2,r2,15
10000b14:	103f041e 	bne	r2,zero,10000728 <init_game+0x3c>
    for(i=0; i<15; i+=1) {
10000b18:	e0bfffc3 	ldbu	r2,-1(fp)
10000b1c:	10800044 	addi	r2,r2,1
10000b20:	e0bfffc5 	stb	r2,-1(fp)
10000b24:	e0bfffc3 	ldbu	r2,-1(fp)
10000b28:	108003f0 	cmpltui	r2,r2,15
10000b2c:	103efc1e 	bne	r2,zero,10000720 <init_game+0x34>
            }
        }
    }

    game->state = PLAYING;
10000b30:	e0bffe17 	ldw	r2,-8(fp)
10000b34:	00c00044 	movi	r3,1
10000b38:	10c0e915 	stw	r3,932(r2)
}
10000b3c:	0001883a 	nop
10000b40:	e037883a 	mov	sp,fp
10000b44:	dfc00117 	ldw	ra,4(sp)
10000b48:	df000017 	ldw	fp,0(sp)
10000b4c:	dec00204 	addi	sp,sp,8
10000b50:	f800283a 	ret

10000b54 <tickgame>:

void tickgame(Game* board, char keypress) {
10000b54:	defffa04 	addi	sp,sp,-24
10000b58:	dfc00515 	stw	ra,20(sp)
10000b5c:	df000415 	stw	fp,16(sp)
10000b60:	df000404 	addi	fp,sp,16
10000b64:	e13ffd15 	stw	r4,-12(fp)
10000b68:	2805883a 	mov	r2,r5
10000b6c:	e0bffc05 	stb	r2,-16(fp)
    if(board->state!=PLAYING) return;
10000b70:	e0bffd17 	ldw	r2,-12(fp)
10000b74:	1080e917 	ldw	r2,932(r2)
10000b78:	10800060 	cmpeqi	r2,r2,1
10000b7c:	1001a826 	beq	r2,zero,10001220 <tickgame+0x6cc>
    // Move the player
    int16_t new_xpos = board->player.xpos;
10000b80:	e0bffd17 	ldw	r2,-12(fp)
10000b84:	1080e103 	ldbu	r2,900(r2)
10000b88:	10803fcc 	andi	r2,r2,255
10000b8c:	e0bfff8d 	sth	r2,-2(fp)
    int16_t new_ypos = board->player.ypos;
10000b90:	e0bffd17 	ldw	r2,-12(fp)
10000b94:	1080e143 	ldbu	r2,901(r2)
10000b98:	10803fcc 	andi	r2,r2,255
10000b9c:	e0bfff0d 	sth	r2,-4(fp)
    bool player_moved = false;
10000ba0:	e03ffec5 	stb	zero,-5(fp)

    switch(keypress) {
10000ba4:	e0bffc07 	ldb	r2,-16(fp)
10000ba8:	10bfefc4 	addi	r2,r2,-65
10000bac:	10c00de8 	cmpgeui	r3,r2,55
10000bb0:	1800531e 	bne	r3,zero,10000d00 <tickgame+0x1ac>
10000bb4:	100690ba 	slli	r3,r2,2
10000bb8:	00840034 	movhi	r2,4096
10000bbc:	1885883a 	add	r2,r3,r2
10000bc0:	1082f217 	ldw	r2,3016(r2)
10000bc4:	1000683a 	jmp	r2
10000bc8:	10000cd4 	ori	zero,r2,51
10000bcc:	10000d00 	call	110000d0 <_gp+0xfcfb08>
10000bd0:	10000d00 	call	110000d0 <_gp+0xfcfb08>
10000bd4:	10000cec 	andhi	zero,r2,51
10000bd8:	10000d00 	call	110000d0 <_gp+0xfcfb08>
10000bdc:	10000d00 	call	110000d0 <_gp+0xfcfb08>
10000be0:	10000d00 	call	110000d0 <_gp+0xfcfb08>
10000be4:	10000d00 	call	110000d0 <_gp+0xfcfb08>
10000be8:	10000d00 	call	110000d0 <_gp+0xfcfb08>
10000bec:	10000d00 	call	110000d0 <_gp+0xfcfb08>
10000bf0:	10000d00 	call	110000d0 <_gp+0xfcfb08>
10000bf4:	10000d00 	call	110000d0 <_gp+0xfcfb08>
10000bf8:	10000d00 	call	110000d0 <_gp+0xfcfb08>
10000bfc:	10000d00 	call	110000d0 <_gp+0xfcfb08>
10000c00:	10000d00 	call	110000d0 <_gp+0xfcfb08>
10000c04:	10000d00 	call	110000d0 <_gp+0xfcfb08>
10000c08:	10000d00 	call	110000d0 <_gp+0xfcfb08>
10000c0c:	10000d00 	call	110000d0 <_gp+0xfcfb08>
10000c10:	10000cbc 	xorhi	zero,r2,50
10000c14:	10000d00 	call	110000d0 <_gp+0xfcfb08>
10000c18:	10000d00 	call	110000d0 <_gp+0xfcfb08>
10000c1c:	10000d00 	call	110000d0 <_gp+0xfcfb08>
10000c20:	10000ca4 	muli	zero,r2,50
10000c24:	10000d00 	call	110000d0 <_gp+0xfcfb08>
10000c28:	10000d00 	call	110000d0 <_gp+0xfcfb08>
10000c2c:	10000d00 	call	110000d0 <_gp+0xfcfb08>
10000c30:	10000d00 	call	110000d0 <_gp+0xfcfb08>
10000c34:	10000d00 	call	110000d0 <_gp+0xfcfb08>
10000c38:	10000d00 	call	110000d0 <_gp+0xfcfb08>
10000c3c:	10000d00 	call	110000d0 <_gp+0xfcfb08>
10000c40:	10000d00 	call	110000d0 <_gp+0xfcfb08>
10000c44:	10000d00 	call	110000d0 <_gp+0xfcfb08>
10000c48:	10000cd4 	ori	zero,r2,51
10000c4c:	10000d00 	call	110000d0 <_gp+0xfcfb08>
10000c50:	10000d00 	call	110000d0 <_gp+0xfcfb08>
10000c54:	10000cec 	andhi	zero,r2,51
10000c58:	10000d00 	call	110000d0 <_gp+0xfcfb08>
10000c5c:	10000d00 	call	110000d0 <_gp+0xfcfb08>
10000c60:	10000d00 	call	110000d0 <_gp+0xfcfb08>
10000c64:	10000d00 	call	110000d0 <_gp+0xfcfb08>
10000c68:	10000d00 	call	110000d0 <_gp+0xfcfb08>
10000c6c:	10000d00 	call	110000d0 <_gp+0xfcfb08>
10000c70:	10000d00 	call	110000d0 <_gp+0xfcfb08>
10000c74:	10000d00 	call	110000d0 <_gp+0xfcfb08>
10000c78:	10000d00 	call	110000d0 <_gp+0xfcfb08>
10000c7c:	10000d00 	call	110000d0 <_gp+0xfcfb08>
10000c80:	10000d00 	call	110000d0 <_gp+0xfcfb08>
10000c84:	10000d00 	call	110000d0 <_gp+0xfcfb08>
10000c88:	10000d00 	call	110000d0 <_gp+0xfcfb08>
10000c8c:	10000d00 	call	110000d0 <_gp+0xfcfb08>
10000c90:	10000cbc 	xorhi	zero,r2,50
10000c94:	10000d00 	call	110000d0 <_gp+0xfcfb08>
10000c98:	10000d00 	call	110000d0 <_gp+0xfcfb08>
10000c9c:	10000d00 	call	110000d0 <_gp+0xfcfb08>
10000ca0:	10000ca4 	muli	zero,r2,50
        case 'w':
        case 'W':
            new_xpos -= 1;
10000ca4:	e0bfff8b 	ldhu	r2,-2(fp)
10000ca8:	10bfffc4 	addi	r2,r2,-1
10000cac:	e0bfff8d 	sth	r2,-2(fp)
            player_moved = true;
10000cb0:	00800044 	movi	r2,1
10000cb4:	e0bffec5 	stb	r2,-5(fp)
            break;
10000cb8:	00001106 	br	10000d00 <tickgame+0x1ac>
        case 'S':
        case 's':
            new_xpos += 1;
10000cbc:	e0bfff8b 	ldhu	r2,-2(fp)
10000cc0:	10800044 	addi	r2,r2,1
10000cc4:	e0bfff8d 	sth	r2,-2(fp)
            player_moved = true;
10000cc8:	00800044 	movi	r2,1
10000ccc:	e0bffec5 	stb	r2,-5(fp)
            break;
10000cd0:	00000b06 	br	10000d00 <tickgame+0x1ac>
        case 'A':
        case 'a':
            new_ypos -= 1;
10000cd4:	e0bfff0b 	ldhu	r2,-4(fp)
10000cd8:	10bfffc4 	addi	r2,r2,-1
10000cdc:	e0bfff0d 	sth	r2,-4(fp)
            player_moved = true;
10000ce0:	00800044 	movi	r2,1
10000ce4:	e0bffec5 	stb	r2,-5(fp)
            break;
10000ce8:	00000506 	br	10000d00 <tickgame+0x1ac>
        case 'D':
        case 'd':
            new_ypos += 1;
10000cec:	e0bfff0b 	ldhu	r2,-4(fp)
10000cf0:	10800044 	addi	r2,r2,1
10000cf4:	e0bfff0d 	sth	r2,-4(fp)
            player_moved = true;
10000cf8:	00800044 	movi	r2,1
10000cfc:	e0bffec5 	stb	r2,-5(fp)
    }
    // Now check if the new coordinate is legal.
    new_xpos = (new_xpos + _BOARD_H) % _BOARD_H;
10000d00:	e0bfff8f 	ldh	r2,-2(fp)
10000d04:	108003c4 	addi	r2,r2,15
10000d08:	00c003c4 	movi	r3,15
10000d0c:	10c7283a 	div	r3,r2,r3
10000d10:	18c003e4 	muli	r3,r3,15
10000d14:	10c5c83a 	sub	r2,r2,r3
10000d18:	e0bfff8d 	sth	r2,-2(fp)
    new_ypos = (new_ypos + _BOARD_W) % _BOARD_W;
10000d1c:	e0bfff0f 	ldh	r2,-4(fp)
10000d20:	108003c4 	addi	r2,r2,15
10000d24:	00c003c4 	movi	r3,15
10000d28:	10c7283a 	div	r3,r2,r3
10000d2c:	18c003e4 	muli	r3,r3,15
10000d30:	10c5c83a 	sub	r2,r2,r3
10000d34:	e0bfff0d 	sth	r2,-4(fp)

    if(board->game_map[new_xpos][new_ypos] != WALL) {
10000d38:	e13fff8f 	ldh	r4,-2(fp)
10000d3c:	e0bfff0f 	ldh	r2,-4(fp)
10000d40:	e0fffd17 	ldw	r3,-12(fp)
10000d44:	210003e4 	muli	r4,r4,15
10000d48:	2085883a 	add	r2,r4,r2
10000d4c:	100490ba 	slli	r2,r2,2
10000d50:	1885883a 	add	r2,r3,r2
10000d54:	10800017 	ldw	r2,0(r2)
10000d58:	10005526 	beq	r2,zero,10000eb0 <tickgame+0x35c>
        // New position is valid. Check if player actually moved.
        if(player_moved) {
10000d5c:	e0bffec3 	ldbu	r2,-5(fp)
10000d60:	10005326 	beq	r2,zero,10000eb0 <tickgame+0x35c>
        	addPendingPos(board->player.xpos, board->player.ypos);
10000d64:	e0bffd17 	ldw	r2,-12(fp)
10000d68:	1080e103 	ldbu	r2,900(r2)
10000d6c:	10c03fcc 	andi	r3,r2,255
10000d70:	e0bffd17 	ldw	r2,-12(fp)
10000d74:	1080e143 	ldbu	r2,901(r2)
10000d78:	10803fcc 	andi	r2,r2,255
10000d7c:	100b883a 	mov	r5,r2
10000d80:	1809883a 	mov	r4,r3
10000d84:	00066a00 	call	100066a0 <addPendingPos>
        	addPendingPos(new_xpos, new_ypos);
10000d88:	e0bfff8f 	ldh	r2,-2(fp)
10000d8c:	e0ffff0f 	ldh	r3,-4(fp)
10000d90:	180b883a 	mov	r5,r3
10000d94:	1009883a 	mov	r4,r2
10000d98:	00066a00 	call	100066a0 <addPendingPos>
            board->player.xpos = (uint8_t)new_xpos;
10000d9c:	e0bfff8b 	ldhu	r2,-2(fp)
10000da0:	1007883a 	mov	r3,r2
10000da4:	e0bffd17 	ldw	r2,-12(fp)
10000da8:	10c0e105 	stb	r3,900(r2)
            board->player.ypos = (uint8_t)new_ypos;
10000dac:	e0bfff0b 	ldhu	r2,-4(fp)
10000db0:	1007883a 	mov	r3,r2
10000db4:	e0bffd17 	ldw	r2,-12(fp)
10000db8:	10c0e145 	stb	r3,901(r2)
            // Pick the tile up.
            switch(board->game_map[new_xpos][new_ypos]) {
10000dbc:	e13fff8f 	ldh	r4,-2(fp)
10000dc0:	e0bfff0f 	ldh	r2,-4(fp)
10000dc4:	e0fffd17 	ldw	r3,-12(fp)
10000dc8:	210003e4 	muli	r4,r4,15
10000dcc:	2085883a 	add	r2,r4,r2
10000dd0:	100490ba 	slli	r2,r2,2
10000dd4:	1885883a 	add	r2,r3,r2
10000dd8:	10800017 	ldw	r2,0(r2)
10000ddc:	10c00060 	cmpeqi	r3,r2,1
10000de0:	1800041e 	bne	r3,zero,10000df4 <tickgame+0x2a0>
10000de4:	10003426 	beq	r2,zero,10000eb8 <tickgame+0x364>
10000de8:	108000a0 	cmpeqi	r2,r2,2
10000dec:	1000171e 	bne	r2,zero,10000e4c <tickgame+0x2f8>
                    board->player.invincible = 15;   // 15 seconds.
                    board->candy_count -= 1;
                    break;
                case WALL:  // which should not happen
                case WAY:
                    break;
10000df0:	00003106 	br	10000eb8 <tickgame+0x364>
                    board->game_map[new_xpos][new_ypos] = WAY;
10000df4:	e13fff8f 	ldh	r4,-2(fp)
10000df8:	e0bfff0f 	ldh	r2,-4(fp)
10000dfc:	e0fffd17 	ldw	r3,-12(fp)
10000e00:	210003e4 	muli	r4,r4,15
10000e04:	2085883a 	add	r2,r4,r2
10000e08:	100490ba 	slli	r2,r2,2
10000e0c:	1885883a 	add	r2,r3,r2
10000e10:	00c000c4 	movi	r3,3
10000e14:	10c00015 	stw	r3,0(r2)
                    board->player.points += 10;
10000e18:	e0bffd17 	ldw	r2,-12(fp)
10000e1c:	1080e18b 	ldhu	r2,902(r2)
10000e20:	10800284 	addi	r2,r2,10
10000e24:	1007883a 	mov	r3,r2
10000e28:	e0bffd17 	ldw	r2,-12(fp)
10000e2c:	10c0e18d 	sth	r3,902(r2)
                    board->candy_count -= 1;
10000e30:	e0bffd17 	ldw	r2,-12(fp)
10000e34:	1080ea0b 	ldhu	r2,936(r2)
10000e38:	10bfffc4 	addi	r2,r2,-1
10000e3c:	1007883a 	mov	r3,r2
10000e40:	e0bffd17 	ldw	r2,-12(fp)
10000e44:	10c0ea0d 	sth	r3,936(r2)
                    break;
10000e48:	00001c06 	br	10000ebc <tickgame+0x368>
                    board->game_map[new_xpos][new_ypos] = WAY;
10000e4c:	e13fff8f 	ldh	r4,-2(fp)
10000e50:	e0bfff0f 	ldh	r2,-4(fp)
10000e54:	e0fffd17 	ldw	r3,-12(fp)
10000e58:	210003e4 	muli	r4,r4,15
10000e5c:	2085883a 	add	r2,r4,r2
10000e60:	100490ba 	slli	r2,r2,2
10000e64:	1885883a 	add	r2,r3,r2
10000e68:	00c000c4 	movi	r3,3
10000e6c:	10c00015 	stw	r3,0(r2)
                    board->player.points += 100;
10000e70:	e0bffd17 	ldw	r2,-12(fp)
10000e74:	1080e18b 	ldhu	r2,902(r2)
10000e78:	10801904 	addi	r2,r2,100
10000e7c:	1007883a 	mov	r3,r2
10000e80:	e0bffd17 	ldw	r2,-12(fp)
10000e84:	10c0e18d 	sth	r3,902(r2)
                    board->player.invincible = 15;   // 15 seconds.
10000e88:	e0bffd17 	ldw	r2,-12(fp)
10000e8c:	00c003c4 	movi	r3,15
10000e90:	10c0e20d 	sth	r3,904(r2)
                    board->candy_count -= 1;
10000e94:	e0bffd17 	ldw	r2,-12(fp)
10000e98:	1080ea0b 	ldhu	r2,936(r2)
10000e9c:	10bfffc4 	addi	r2,r2,-1
10000ea0:	1007883a 	mov	r3,r2
10000ea4:	e0bffd17 	ldw	r2,-12(fp)
10000ea8:	10c0ea0d 	sth	r3,936(r2)
                    break;
10000eac:	00000306 	br	10000ebc <tickgame+0x368>
            }
        }
10000eb0:	0001883a 	nop
10000eb4:	00000106 	br	10000ebc <tickgame+0x368>
                    break;
10000eb8:	0001883a 	nop
    }

    // Ghosts move.
    blinkys_move(board);
10000ebc:	e13ffd17 	ldw	r4,-12(fp)
10000ec0:	000142c0 	call	1000142c <blinkys_move>
    printf("Blinky\n");
10000ec4:	010400b4 	movhi	r4,4098
10000ec8:	2113ed04 	addi	r4,r4,20404
10000ecc:	00170b40 	call	100170b4 <puts>
    fflush(stdout);
10000ed0:	d0a01117 	ldw	r2,-32700(gp)
10000ed4:	10800217 	ldw	r2,8(r2)
10000ed8:	1009883a 	mov	r4,r2
10000edc:	00151b80 	call	100151b8 <fflush>
    pinkys_move(board, keypress);
10000ee0:	e0bffc07 	ldb	r2,-16(fp)
10000ee4:	100b883a 	mov	r5,r2
10000ee8:	e13ffd17 	ldw	r4,-12(fp)
10000eec:	00021ac0 	call	100021ac <pinkys_move>
    printf("Pinky\n");
10000ef0:	010400b4 	movhi	r4,4098
10000ef4:	2113ef04 	addi	r4,r4,20412
10000ef8:	00170b40 	call	100170b4 <puts>
    fflush(stdout);
10000efc:	d0a01117 	ldw	r2,-32700(gp)
10000f00:	10800217 	ldw	r2,8(r2)
10000f04:	1009883a 	mov	r4,r2
10000f08:	00151b80 	call	100151b8 <fflush>
    clydes_move(board);
10000f0c:	e13ffd17 	ldw	r4,-12(fp)
10000f10:	0002fe00 	call	10002fe0 <clydes_move>
    printf("Clyde\n");
10000f14:	010400b4 	movhi	r4,4098
10000f18:	2113f104 	addi	r4,r4,20420
10000f1c:	00170b40 	call	100170b4 <puts>
    fflush(stdout);
10000f20:	d0a01117 	ldw	r2,-32700(gp)
10000f24:	10800217 	ldw	r2,8(r2)
10000f28:	1009883a 	mov	r4,r2
10000f2c:	00151b80 	call	100151b8 <fflush>
    inkys_move(board);
10000f30:	e13ffd17 	ldw	r4,-12(fp)
10000f34:	0002c640 	call	10002c64 <inkys_move>
    printf("Inky DONE\n");
10000f38:	010400b4 	movhi	r4,4098
10000f3c:	2113f304 	addi	r4,r4,20428
10000f40:	00170b40 	call	100170b4 <puts>
    fflush(stdout);
10000f44:	d0a01117 	ldw	r2,-32700(gp)
10000f48:	10800217 	ldw	r2,8(r2)
10000f4c:	1009883a 	mov	r4,r2
10000f50:	00151b80 	call	100151b8 <fflush>

    // Check if the player met a ghost.
    if(board->player.invincible > 0) {
10000f54:	e0bffd17 	ldw	r2,-12(fp)
10000f58:	1080e20b 	ldhu	r2,904(r2)
10000f5c:	10bfffcc 	andi	r2,r2,65535
10000f60:	10006026 	beq	r2,zero,100010e4 <tickgame+0x590>
        // Ghost gets eaten. Grant points and set ghost away.
        if(board->player.xpos == board->blinky.xpos && board->player.ypos == board->blinky.ypos) {
10000f64:	e0bffd17 	ldw	r2,-12(fp)
10000f68:	10c0e103 	ldbu	r3,900(r2)
10000f6c:	e0bffd17 	ldw	r2,-12(fp)
10000f70:	1080e283 	ldbu	r2,906(r2)
10000f74:	18c03fcc 	andi	r3,r3,255
10000f78:	10803fcc 	andi	r2,r2,255
10000f7c:	1880111e 	bne	r3,r2,10000fc4 <tickgame+0x470>
10000f80:	e0bffd17 	ldw	r2,-12(fp)
10000f84:	10c0e143 	ldbu	r3,901(r2)
10000f88:	e0bffd17 	ldw	r2,-12(fp)
10000f8c:	1080e2c3 	ldbu	r2,907(r2)
10000f90:	18c03fcc 	andi	r3,r3,255
10000f94:	10803fcc 	andi	r2,r2,255
10000f98:	18800a1e 	bne	r3,r2,10000fc4 <tickgame+0x470>
            // Met Blinky when invincible.
            board->blinky.revive_cntdown = 15;
10000f9c:	e0bffd17 	ldw	r2,-12(fp)
10000fa0:	00c003c4 	movi	r3,15
10000fa4:	10c0e38d 	sth	r3,910(r2)
            board->player.points += 200;
10000fa8:	e0bffd17 	ldw	r2,-12(fp)
10000fac:	1080e18b 	ldhu	r2,902(r2)
10000fb0:	10803204 	addi	r2,r2,200
10000fb4:	1007883a 	mov	r3,r2
10000fb8:	e0bffd17 	ldw	r2,-12(fp)
10000fbc:	10c0e18d 	sth	r3,902(r2)
10000fc0:	00008f06 	br	10001200 <tickgame+0x6ac>
        } else if (board->player.xpos == board->inky.xpos && board->player.ypos == board->inky.ypos) {
10000fc4:	e0bffd17 	ldw	r2,-12(fp)
10000fc8:	10c0e103 	ldbu	r3,900(r2)
10000fcc:	e0bffd17 	ldw	r2,-12(fp)
10000fd0:	1080e583 	ldbu	r2,918(r2)
10000fd4:	18c03fcc 	andi	r3,r3,255
10000fd8:	10803fcc 	andi	r2,r2,255
10000fdc:	1880111e 	bne	r3,r2,10001024 <tickgame+0x4d0>
10000fe0:	e0bffd17 	ldw	r2,-12(fp)
10000fe4:	10c0e143 	ldbu	r3,901(r2)
10000fe8:	e0bffd17 	ldw	r2,-12(fp)
10000fec:	1080e5c3 	ldbu	r2,919(r2)
10000ff0:	18c03fcc 	andi	r3,r3,255
10000ff4:	10803fcc 	andi	r2,r2,255
10000ff8:	18800a1e 	bne	r3,r2,10001024 <tickgame+0x4d0>
            // Met inky when invincible.
            board->inky.revive_cntdown = 15;
10000ffc:	e0bffd17 	ldw	r2,-12(fp)
10001000:	00c003c4 	movi	r3,15
10001004:	10c0e68d 	sth	r3,922(r2)
            board->player.points += 200;
10001008:	e0bffd17 	ldw	r2,-12(fp)
1000100c:	1080e18b 	ldhu	r2,902(r2)
10001010:	10803204 	addi	r2,r2,200
10001014:	1007883a 	mov	r3,r2
10001018:	e0bffd17 	ldw	r2,-12(fp)
1000101c:	10c0e18d 	sth	r3,902(r2)
10001020:	00007706 	br	10001200 <tickgame+0x6ac>
        } else if (board->player.xpos == board->pinky.xpos && board->player.ypos == board->pinky.ypos) {
10001024:	e0bffd17 	ldw	r2,-12(fp)
10001028:	10c0e103 	ldbu	r3,900(r2)
1000102c:	e0bffd17 	ldw	r2,-12(fp)
10001030:	1080e403 	ldbu	r2,912(r2)
10001034:	18c03fcc 	andi	r3,r3,255
10001038:	10803fcc 	andi	r2,r2,255
1000103c:	1880111e 	bne	r3,r2,10001084 <tickgame+0x530>
10001040:	e0bffd17 	ldw	r2,-12(fp)
10001044:	10c0e143 	ldbu	r3,901(r2)
10001048:	e0bffd17 	ldw	r2,-12(fp)
1000104c:	1080e443 	ldbu	r2,913(r2)
10001050:	18c03fcc 	andi	r3,r3,255
10001054:	10803fcc 	andi	r2,r2,255
10001058:	18800a1e 	bne	r3,r2,10001084 <tickgame+0x530>
            // Met pinky when invincible.
            board->pinky.revive_cntdown = 15;
1000105c:	e0bffd17 	ldw	r2,-12(fp)
10001060:	00c003c4 	movi	r3,15
10001064:	10c0e50d 	sth	r3,916(r2)
            board->player.points += 200;
10001068:	e0bffd17 	ldw	r2,-12(fp)
1000106c:	1080e18b 	ldhu	r2,902(r2)
10001070:	10803204 	addi	r2,r2,200
10001074:	1007883a 	mov	r3,r2
10001078:	e0bffd17 	ldw	r2,-12(fp)
1000107c:	10c0e18d 	sth	r3,902(r2)
10001080:	00005f06 	br	10001200 <tickgame+0x6ac>
        } else if (board->player.xpos == board->clyde.xpos && board->player.ypos == board->clyde.ypos) {
10001084:	e0bffd17 	ldw	r2,-12(fp)
10001088:	10c0e103 	ldbu	r3,900(r2)
1000108c:	e0bffd17 	ldw	r2,-12(fp)
10001090:	1080e703 	ldbu	r2,924(r2)
10001094:	18c03fcc 	andi	r3,r3,255
10001098:	10803fcc 	andi	r2,r2,255
1000109c:	1880581e 	bne	r3,r2,10001200 <tickgame+0x6ac>
100010a0:	e0bffd17 	ldw	r2,-12(fp)
100010a4:	10c0e143 	ldbu	r3,901(r2)
100010a8:	e0bffd17 	ldw	r2,-12(fp)
100010ac:	1080e743 	ldbu	r2,925(r2)
100010b0:	18c03fcc 	andi	r3,r3,255
100010b4:	10803fcc 	andi	r2,r2,255
100010b8:	1880511e 	bne	r3,r2,10001200 <tickgame+0x6ac>
            // Met clyde when invincible.
            board->clyde.revive_cntdown = 15;
100010bc:	e0bffd17 	ldw	r2,-12(fp)
100010c0:	00c003c4 	movi	r3,15
100010c4:	10c0e80d 	sth	r3,928(r2)
            board->player.points += 200;
100010c8:	e0bffd17 	ldw	r2,-12(fp)
100010cc:	1080e18b 	ldhu	r2,902(r2)
100010d0:	10803204 	addi	r2,r2,200
100010d4:	1007883a 	mov	r3,r2
100010d8:	e0bffd17 	ldw	r2,-12(fp)
100010dc:	10c0e18d 	sth	r3,902(r2)
100010e0:	00004706 	br	10001200 <tickgame+0x6ac>
        }
    } else {
        // Player is not invincible. Gets killed if ghost met.
        // These branches are retained in case some additional things added.
        if(board->player.xpos == board->blinky.xpos && board->player.ypos == board->blinky.ypos) {
100010e4:	e0bffd17 	ldw	r2,-12(fp)
100010e8:	10c0e103 	ldbu	r3,900(r2)
100010ec:	e0bffd17 	ldw	r2,-12(fp)
100010f0:	1080e283 	ldbu	r2,906(r2)
100010f4:	18c03fcc 	andi	r3,r3,255
100010f8:	10803fcc 	andi	r2,r2,255
100010fc:	18800b1e 	bne	r3,r2,1000112c <tickgame+0x5d8>
10001100:	e0bffd17 	ldw	r2,-12(fp)
10001104:	10c0e143 	ldbu	r3,901(r2)
10001108:	e0bffd17 	ldw	r2,-12(fp)
1000110c:	1080e2c3 	ldbu	r2,907(r2)
10001110:	18c03fcc 	andi	r3,r3,255
10001114:	10803fcc 	andi	r2,r2,255
10001118:	1880041e 	bne	r3,r2,1000112c <tickgame+0x5d8>
            // Met Blinky
            board->state = DIED;
1000111c:	e0bffd17 	ldw	r2,-12(fp)
10001120:	00c00084 	movi	r3,2
10001124:	10c0e915 	stw	r3,932(r2)
10001128:	00003506 	br	10001200 <tickgame+0x6ac>
        } else if (board->player.xpos == board->inky.xpos && board->player.ypos == board->inky.ypos) {
1000112c:	e0bffd17 	ldw	r2,-12(fp)
10001130:	10c0e103 	ldbu	r3,900(r2)
10001134:	e0bffd17 	ldw	r2,-12(fp)
10001138:	1080e583 	ldbu	r2,918(r2)
1000113c:	18c03fcc 	andi	r3,r3,255
10001140:	10803fcc 	andi	r2,r2,255
10001144:	18800b1e 	bne	r3,r2,10001174 <tickgame+0x620>
10001148:	e0bffd17 	ldw	r2,-12(fp)
1000114c:	10c0e143 	ldbu	r3,901(r2)
10001150:	e0bffd17 	ldw	r2,-12(fp)
10001154:	1080e5c3 	ldbu	r2,919(r2)
10001158:	18c03fcc 	andi	r3,r3,255
1000115c:	10803fcc 	andi	r2,r2,255
10001160:	1880041e 	bne	r3,r2,10001174 <tickgame+0x620>
            // Met inky
            board->state = DIED;
10001164:	e0bffd17 	ldw	r2,-12(fp)
10001168:	00c00084 	movi	r3,2
1000116c:	10c0e915 	stw	r3,932(r2)
10001170:	00002306 	br	10001200 <tickgame+0x6ac>
        } else if (board->player.xpos == board->pinky.xpos && board->player.ypos == board->pinky.ypos) {
10001174:	e0bffd17 	ldw	r2,-12(fp)
10001178:	10c0e103 	ldbu	r3,900(r2)
1000117c:	e0bffd17 	ldw	r2,-12(fp)
10001180:	1080e403 	ldbu	r2,912(r2)
10001184:	18c03fcc 	andi	r3,r3,255
10001188:	10803fcc 	andi	r2,r2,255
1000118c:	18800b1e 	bne	r3,r2,100011bc <tickgame+0x668>
10001190:	e0bffd17 	ldw	r2,-12(fp)
10001194:	10c0e143 	ldbu	r3,901(r2)
10001198:	e0bffd17 	ldw	r2,-12(fp)
1000119c:	1080e443 	ldbu	r2,913(r2)
100011a0:	18c03fcc 	andi	r3,r3,255
100011a4:	10803fcc 	andi	r2,r2,255
100011a8:	1880041e 	bne	r3,r2,100011bc <tickgame+0x668>
            // Met pinky.
            board->state = DIED;
100011ac:	e0bffd17 	ldw	r2,-12(fp)
100011b0:	00c00084 	movi	r3,2
100011b4:	10c0e915 	stw	r3,932(r2)
100011b8:	00001106 	br	10001200 <tickgame+0x6ac>
        } else if (board->player.xpos == board->clyde.xpos && board->player.ypos == board->clyde.ypos) {
100011bc:	e0bffd17 	ldw	r2,-12(fp)
100011c0:	10c0e103 	ldbu	r3,900(r2)
100011c4:	e0bffd17 	ldw	r2,-12(fp)
100011c8:	1080e703 	ldbu	r2,924(r2)
100011cc:	18c03fcc 	andi	r3,r3,255
100011d0:	10803fcc 	andi	r2,r2,255
100011d4:	18800a1e 	bne	r3,r2,10001200 <tickgame+0x6ac>
100011d8:	e0bffd17 	ldw	r2,-12(fp)
100011dc:	10c0e143 	ldbu	r3,901(r2)
100011e0:	e0bffd17 	ldw	r2,-12(fp)
100011e4:	1080e743 	ldbu	r2,925(r2)
100011e8:	18c03fcc 	andi	r3,r3,255
100011ec:	10803fcc 	andi	r2,r2,255
100011f0:	1880031e 	bne	r3,r2,10001200 <tickgame+0x6ac>
            // Met clyde.
            board->state = DIED;
100011f4:	e0bffd17 	ldw	r2,-12(fp)
100011f8:	00c00084 	movi	r3,2
100011fc:	10c0e915 	stw	r3,932(r2)
        }
    }

    // Check if game finished.
    if(is_over(board)) board -> state = WON;
10001200:	e13ffd17 	ldw	r4,-12(fp)
10001204:	00012380 	call	10001238 <is_over>
10001208:	10803fcc 	andi	r2,r2,255
1000120c:	10000526 	beq	r2,zero,10001224 <tickgame+0x6d0>
10001210:	e0bffd17 	ldw	r2,-12(fp)
10001214:	00c000c4 	movi	r3,3
10001218:	10c0e915 	stw	r3,932(r2)
1000121c:	00000106 	br	10001224 <tickgame+0x6d0>
    if(board->state!=PLAYING) return;
10001220:	0001883a 	nop
}
10001224:	e037883a 	mov	sp,fp
10001228:	dfc00117 	ldw	ra,4(sp)
1000122c:	df000017 	ldw	fp,0(sp)
10001230:	dec00204 	addi	sp,sp,8
10001234:	f800283a 	ret

10001238 <is_over>:

// Check if the current map is finished.
// The whole game is passed so we can maintain the array shape.
static inline bool is_over(Game* board) {
10001238:	defffe04 	addi	sp,sp,-8
1000123c:	df000115 	stw	fp,4(sp)
10001240:	df000104 	addi	fp,sp,4
10001244:	e13fff15 	stw	r4,-4(fp)
    return board -> candy_count == 0;
10001248:	e0bfff17 	ldw	r2,-4(fp)
1000124c:	1080ea0b 	ldhu	r2,936(r2)
10001250:	10bfffcc 	andi	r2,r2,65535
10001254:	1005003a 	cmpeq	r2,r2,zero
}
10001258:	e037883a 	mov	sp,fp
1000125c:	df000017 	ldw	fp,0(sp)
10001260:	dec00104 	addi	sp,sp,4
10001264:	f800283a 	ret

10001268 <recur_free>:

// Recursively free a pointer.
void recur_free(LinkedPoints* lp)
{
10001268:	defffd04 	addi	sp,sp,-12
1000126c:	dfc00215 	stw	ra,8(sp)
10001270:	df000115 	stw	fp,4(sp)
10001274:	df000104 	addi	fp,sp,4
10001278:	e13fff15 	stw	r4,-4(fp)
    if(lp != nullptr) {
1000127c:	e0bfff17 	ldw	r2,-4(fp)
10001280:	10000626 	beq	r2,zero,1000129c <recur_free+0x34>
        recur_free(lp -> next);
10001284:	e0bfff17 	ldw	r2,-4(fp)
10001288:	10800117 	ldw	r2,4(r2)
1000128c:	1009883a 	mov	r4,r2
10001290:	00012680 	call	10001268 <recur_free>
        free(lp);
10001294:	e13fff17 	ldw	r4,-4(fp)
10001298:	00162680 	call	10016268 <free>
    }
}
1000129c:	0001883a 	nop
100012a0:	e037883a 	mov	sp,fp
100012a4:	dfc00117 	ldw	ra,4(sp)
100012a8:	df000017 	ldw	fp,0(sp)
100012ac:	dec00204 	addi	sp,sp,8
100012b0:	f800283a 	ret

100012b4 <stack_push>:
// Also used as index for "minheap"
static int8_t distances[_BOARD_H][_BOARD_W];

// MinHeap Push.
// Data in this linked list will be sorted by distance. Smaller distance comes first.
LinkedPoints* stack_push(LinkedPoints* head, const Point* data) {
100012b4:	defffb04 	addi	sp,sp,-20
100012b8:	dfc00415 	stw	ra,16(sp)
100012bc:	df000315 	stw	fp,12(sp)
100012c0:	df000304 	addi	fp,sp,12
100012c4:	e13ffe15 	stw	r4,-8(fp)
100012c8:	e17ffd15 	stw	r5,-12(fp)
    if(head == nullptr || distances[head->curr.xpos][head->curr.ypos] >= distances[data->xpos][data->ypos]) {
100012cc:	e0bffe17 	ldw	r2,-8(fp)
100012d0:	10001d26 	beq	r2,zero,10001348 <stack_push+0x94>
100012d4:	e0bffe17 	ldw	r2,-8(fp)
100012d8:	10800003 	ldbu	r2,0(r2)
100012dc:	10c03fcc 	andi	r3,r2,255
100012e0:	e0bffe17 	ldw	r2,-8(fp)
100012e4:	10800043 	ldbu	r2,1(r2)
100012e8:	10803fcc 	andi	r2,r2,255
100012ec:	18c003e4 	muli	r3,r3,15
100012f0:	1887883a 	add	r3,r3,r2
100012f4:	008400f4 	movhi	r2,4099
100012f8:	1885883a 	add	r2,r3,r2
100012fc:	11295203 	ldbu	r4,-23224(r2)
10001300:	e0bffd17 	ldw	r2,-12(fp)
10001304:	10800003 	ldbu	r2,0(r2)
10001308:	10c03fcc 	andi	r3,r2,255
1000130c:	e0bffd17 	ldw	r2,-12(fp)
10001310:	10800043 	ldbu	r2,1(r2)
10001314:	10803fcc 	andi	r2,r2,255
10001318:	18c003e4 	muli	r3,r3,15
1000131c:	1887883a 	add	r3,r3,r2
10001320:	008400f4 	movhi	r2,4099
10001324:	1885883a 	add	r2,r3,r2
10001328:	10a95203 	ldbu	r2,-23224(r2)
1000132c:	20c03fcc 	andi	r3,r4,255
10001330:	18c0201c 	xori	r3,r3,128
10001334:	18ffe004 	addi	r3,r3,-128
10001338:	10803fcc 	andi	r2,r2,255
1000133c:	1080201c 	xori	r2,r2,128
10001340:	10bfe004 	addi	r2,r2,-128
10001344:	18800e16 	blt	r3,r2,10001380 <stack_push+0xcc>
        LinkedPoints* newPoint = malloc(sizeof(LinkedPoints));
10001348:	01000204 	movi	r4,8
1000134c:	00162580 	call	10016258 <malloc>
10001350:	e0bfff15 	stw	r2,-4(fp)
        newPoint->curr = *data;
10001354:	e0bfff17 	ldw	r2,-4(fp)
10001358:	e0fffd17 	ldw	r3,-12(fp)
1000135c:	19000003 	ldbu	r4,0(r3)
10001360:	11000005 	stb	r4,0(r2)
10001364:	18c00043 	ldbu	r3,1(r3)
10001368:	10c00045 	stb	r3,1(r2)
        newPoint->next = head;
1000136c:	e0bfff17 	ldw	r2,-4(fp)
10001370:	e0fffe17 	ldw	r3,-8(fp)
10001374:	10c00115 	stw	r3,4(r2)
        return newPoint;
10001378:	e0bfff17 	ldw	r2,-4(fp)
1000137c:	00000506 	br	10001394 <stack_push+0xe0>
    } else {
        return stack_push(head->next, data);
10001380:	e0bffe17 	ldw	r2,-8(fp)
10001384:	10800117 	ldw	r2,4(r2)
10001388:	e17ffd17 	ldw	r5,-12(fp)
1000138c:	1009883a 	mov	r4,r2
10001390:	00012b40 	call	100012b4 <stack_push>
    }
}
10001394:	e037883a 	mov	sp,fp
10001398:	dfc00117 	ldw	ra,4(sp)
1000139c:	df000017 	ldw	fp,0(sp)
100013a0:	dec00204 	addi	sp,sp,8
100013a4:	f800283a 	ret

100013a8 <stack_pop>:
static inline Point stack_peek(LinkedPoints* head) {
    return head -> curr;
}

// Pop an element. Element will be written to popped_data.
LinkedPoints* stack_pop(LinkedPoints* head, Point* popped_data) {
100013a8:	defffb04 	addi	sp,sp,-20
100013ac:	dfc00415 	stw	ra,16(sp)
100013b0:	df000315 	stw	fp,12(sp)
100013b4:	df000304 	addi	fp,sp,12
100013b8:	e13ffe15 	stw	r4,-8(fp)
100013bc:	e17ffd15 	stw	r5,-12(fp)
    *popped_data = head -> curr;
100013c0:	e0bffd17 	ldw	r2,-12(fp)
100013c4:	e0fffe17 	ldw	r3,-8(fp)
100013c8:	19000003 	ldbu	r4,0(r3)
100013cc:	11000005 	stb	r4,0(r2)
100013d0:	18c00043 	ldbu	r3,1(r3)
100013d4:	10c00045 	stb	r3,1(r2)
    LinkedPoints* nextptr = head -> next;
100013d8:	e0bffe17 	ldw	r2,-8(fp)
100013dc:	10800117 	ldw	r2,4(r2)
100013e0:	e0bfff15 	stw	r2,-4(fp)
    free(head);
100013e4:	e13ffe17 	ldw	r4,-8(fp)
100013e8:	00162680 	call	10016268 <free>
    return nextptr;
100013ec:	e0bfff17 	ldw	r2,-4(fp)
}
100013f0:	e037883a 	mov	sp,fp
100013f4:	dfc00117 	ldw	ra,4(sp)
100013f8:	df000017 	ldw	fp,0(sp)
100013fc:	dec00204 	addi	sp,sp,8
10001400:	f800283a 	ret

10001404 <stack_isempty>:

static inline bool stack_isempty(const LinkedPoints* head) {
10001404:	defffe04 	addi	sp,sp,-8
10001408:	df000115 	stw	fp,4(sp)
1000140c:	df000104 	addi	fp,sp,4
10001410:	e13fff15 	stw	r4,-4(fp)
    return head != nullptr;
10001414:	e0bfff17 	ldw	r2,-4(fp)
10001418:	1004c03a 	cmpne	r2,r2,zero
}
1000141c:	e037883a 	mov	sp,fp
10001420:	df000017 	ldw	fp,0(sp)
10001424:	dec00104 	addi	sp,sp,4
10001428:	f800283a 	ret

1000142c <blinkys_move>:
static inline bool PointEquals(const Point a, const Point b) {
    return a.xpos == b.xpos && a.ypos == b.ypos;
}

// Blinky. Use Dijkstra to find the shortest path to the player.
void blinkys_move(Game* game) {
1000142c:	defedc04 	addi	sp,sp,-1168
10001430:	dfc12315 	stw	ra,1164(sp)
10001434:	df012215 	stw	fp,1160(sp)
10001438:	df012204 	addi	fp,sp,1160
1000143c:	e13ede15 	stw	r4,-1160(fp)
    //Blinky is dead
    if(game->blinky.revive_cntdown > 0) {
10001440:	e0bede17 	ldw	r2,-1160(fp)
10001444:	1080e38b 	ldhu	r2,910(r2)
10001448:	10bfffcc 	andi	r2,r2,65535
1000144c:	10000726 	beq	r2,zero,1000146c <blinkys_move+0x40>
        game->blinky.revive_cntdown -= 1;
10001450:	e0bede17 	ldw	r2,-1160(fp)
10001454:	1080e38b 	ldhu	r2,910(r2)
10001458:	10bfffc4 	addi	r2,r2,-1
1000145c:	1007883a 	mov	r3,r2
10001460:	e0bede17 	ldw	r2,-1160(fp)
10001464:	10c0e38d 	sth	r3,910(r2)
10001468:	00029306 	br	10001eb8 <blinkys_move+0xa8c>
        return;
    }
    LinkedPoints* dijkstra_fringe;
    dijkstra_fringe = nullptr;
1000146c:	e03fff15 	stw	zero,-4(fp)
    // Put Blinky's current position into fringe.
    bool dst_finalize[_BOARD_H][_BOARD_W];
    Tile tmp_map[_BOARD_H][_BOARD_W];

    // Copy a map, and mark other ghosts as walls.
    memcpy(tmp_map, game->game_map, sizeof(tmp_map));
10001470:	e0fede17 	ldw	r3,-1160(fp)
10001474:	e0bee204 	addi	r2,fp,-1144
10001478:	0180e104 	movi	r6,900
1000147c:	180b883a 	mov	r5,r3
10001480:	1009883a 	mov	r4,r2
10001484:	0016be00 	call	10016be0 <memcpy>
    // Mark other ghosts as obstacles.
    tmp_map[game->inky.xpos][game->inky.ypos] = WALL;
10001488:	e0bede17 	ldw	r2,-1160(fp)
1000148c:	1080e583 	ldbu	r2,918(r2)
10001490:	10c03fcc 	andi	r3,r2,255
10001494:	e0bede17 	ldw	r2,-1160(fp)
10001498:	1080e5c3 	ldbu	r2,919(r2)
1000149c:	10803fcc 	andi	r2,r2,255
100014a0:	18c003e4 	muli	r3,r3,15
100014a4:	1885883a 	add	r2,r3,r2
100014a8:	100490ba 	slli	r2,r2,2
100014ac:	e085883a 	add	r2,fp,r2
100014b0:	103ee215 	stw	zero,-1144(r2)
    tmp_map[game->clyde.xpos][game->clyde.ypos] = WALL;
100014b4:	e0bede17 	ldw	r2,-1160(fp)
100014b8:	1080e703 	ldbu	r2,924(r2)
100014bc:	10c03fcc 	andi	r3,r2,255
100014c0:	e0bede17 	ldw	r2,-1160(fp)
100014c4:	1080e743 	ldbu	r2,925(r2)
100014c8:	10803fcc 	andi	r2,r2,255
100014cc:	18c003e4 	muli	r3,r3,15
100014d0:	1885883a 	add	r2,r3,r2
100014d4:	100490ba 	slli	r2,r2,2
100014d8:	e085883a 	add	r2,fp,r2
100014dc:	103ee215 	stw	zero,-1144(r2)
    tmp_map[game->pinky.xpos][game->pinky.ypos] = WALL;
100014e0:	e0bede17 	ldw	r2,-1160(fp)
100014e4:	1080e403 	ldbu	r2,912(r2)
100014e8:	10c03fcc 	andi	r3,r2,255
100014ec:	e0bede17 	ldw	r2,-1160(fp)
100014f0:	1080e443 	ldbu	r2,913(r2)
100014f4:	10803fcc 	andi	r2,r2,255
100014f8:	18c003e4 	muli	r3,r3,15
100014fc:	1885883a 	add	r2,r3,r2
10001500:	100490ba 	slli	r2,r2,2
10001504:	e085883a 	add	r2,fp,r2
10001508:	103ee215 	stw	zero,-1144(r2)

    uint8_t i, j;

    for(i = 0; i<_BOARD_H;i+=1) {
1000150c:	e03ffec5 	stb	zero,-5(fp)
10001510:	00001906 	br	10001578 <blinkys_move+0x14c>
        for(j = 0; j<_BOARD_W;j+=1) {
10001514:	e03ffe85 	stb	zero,-6(fp)
10001518:	00001106 	br	10001560 <blinkys_move+0x134>
            distances[i][j] = 63; //Something really long.
1000151c:	e0fffec3 	ldbu	r3,-5(fp)
10001520:	e0bffe83 	ldbu	r2,-6(fp)
10001524:	18c003e4 	muli	r3,r3,15
10001528:	1889883a 	add	r4,r3,r2
1000152c:	00c00fc4 	movi	r3,63
10001530:	008400f4 	movhi	r2,4099
10001534:	2085883a 	add	r2,r4,r2
10001538:	10e95205 	stb	r3,-23224(r2)
            dst_finalize[i][j] = false; // All not finalized.
1000153c:	e0fffec3 	ldbu	r3,-5(fp)
10001540:	e0bffe83 	ldbu	r2,-6(fp)
10001544:	18c003e4 	muli	r3,r3,15
10001548:	e0c7883a 	add	r3,fp,r3
1000154c:	1885883a 	add	r2,r3,r2
10001550:	103fc345 	stb	zero,-243(r2)
        for(j = 0; j<_BOARD_W;j+=1) {
10001554:	e0bffe83 	ldbu	r2,-6(fp)
10001558:	10800044 	addi	r2,r2,1
1000155c:	e0bffe85 	stb	r2,-6(fp)
10001560:	e0bffe83 	ldbu	r2,-6(fp)
10001564:	108003f0 	cmpltui	r2,r2,15
10001568:	103fec1e 	bne	r2,zero,1000151c <blinkys_move+0xf0>
    for(i = 0; i<_BOARD_H;i+=1) {
1000156c:	e0bffec3 	ldbu	r2,-5(fp)
10001570:	10800044 	addi	r2,r2,1
10001574:	e0bffec5 	stb	r2,-5(fp)
10001578:	e0bffec3 	ldbu	r2,-5(fp)
1000157c:	108003f0 	cmpltui	r2,r2,15
10001580:	103fe41e 	bne	r2,zero,10001514 <blinkys_move+0xe8>
        }
    }

    distances[game->player.xpos][game->player.ypos] = 0;
10001584:	e0bede17 	ldw	r2,-1160(fp)
10001588:	1080e103 	ldbu	r2,900(r2)
1000158c:	10c03fcc 	andi	r3,r2,255
10001590:	e0bede17 	ldw	r2,-1160(fp)
10001594:	1080e143 	ldbu	r2,901(r2)
10001598:	10803fcc 	andi	r2,r2,255
1000159c:	18c003e4 	muli	r3,r3,15
100015a0:	1887883a 	add	r3,r3,r2
100015a4:	008400f4 	movhi	r2,4099
100015a8:	1885883a 	add	r2,r3,r2
100015ac:	10295205 	stb	zero,-23224(r2)

    Point player_pos;
    player_pos.xpos = game->player.xpos;
100015b0:	e0bede17 	ldw	r2,-1160(fp)
100015b4:	1080e103 	ldbu	r2,900(r2)
100015b8:	e0bee185 	stb	r2,-1146(fp)
    player_pos.ypos = game->player.ypos;
100015bc:	e0bede17 	ldw	r2,-1160(fp)
100015c0:	1080e143 	ldbu	r2,901(r2)
100015c4:	e0bee1c5 	stb	r2,-1145(fp)
    // Propagate from player to ghost.
    dijkstra_fringe = stack_push(dijkstra_fringe, &player_pos);
100015c8:	e0bee184 	addi	r2,fp,-1146
100015cc:	100b883a 	mov	r5,r2
100015d0:	e13fff17 	ldw	r4,-4(fp)
100015d4:	00012b40 	call	100012b4 <stack_push>
100015d8:	e0bfff15 	stw	r2,-4(fp)

    while(!stack_isempty(dijkstra_fringe)) {
100015dc:	00017406 	br	10001bb0 <blinkys_move+0x784>
        Point curr_seek;
        dijkstra_fringe = stack_pop(dijkstra_fringe, &curr_seek);
100015e0:	e0bee104 	addi	r2,fp,-1148
100015e4:	100b883a 	mov	r5,r2
100015e8:	e13fff17 	ldw	r4,-4(fp)
100015ec:	00013a80 	call	100013a8 <stack_pop>
100015f0:	e0bfff15 	stw	r2,-4(fp)
        dst_finalize[curr_seek.xpos][curr_seek.ypos] = true;
100015f4:	e0bee103 	ldbu	r2,-1148(fp)
100015f8:	10c03fcc 	andi	r3,r2,255
100015fc:	e0bee143 	ldbu	r2,-1147(fp)
10001600:	10803fcc 	andi	r2,r2,255
10001604:	18c003e4 	muli	r3,r3,15
10001608:	e0c7883a 	add	r3,fp,r3
1000160c:	1885883a 	add	r2,r3,r2
10001610:	00c00044 	movi	r3,1
10001614:	10ffc345 	stb	r3,-243(r2)
        printf("*");
10001618:	01000a84 	movi	r4,42
1000161c:	0016fd00 	call	10016fd0 <putchar>
        fflush(stdout);
10001620:	d0a01117 	ldw	r2,-32700(gp)
10001624:	10800217 	ldw	r2,8(r2)
10001628:	1009883a 	mov	r4,r2
1000162c:	00151b80 	call	100151b8 <fflush>
        // Investigate UP of current point.
        int16_t nxpos = curr_seek.xpos;
10001630:	e0bee103 	ldbu	r2,-1148(fp)
10001634:	10803fcc 	andi	r2,r2,255
10001638:	e0bffd0d 	sth	r2,-12(fp)
        int16_t nypos = curr_seek.ypos;
1000163c:	e0bee143 	ldbu	r2,-1147(fp)
10001640:	10803fcc 	andi	r2,r2,255
10001644:	e0bffc8d 	sth	r2,-14(fp)
        nxpos = (nxpos - 1 + _BOARD_H) % _BOARD_H;
10001648:	e0bffd0f 	ldh	r2,-12(fp)
1000164c:	10800384 	addi	r2,r2,14
10001650:	00c003c4 	movi	r3,15
10001654:	10c7283a 	div	r3,r2,r3
10001658:	18c003e4 	muli	r3,r3,15
1000165c:	10c5c83a 	sub	r2,r2,r3
10001660:	e0bffd0d 	sth	r2,-12(fp)

        if(!dst_finalize[nxpos][nypos] && tmp_map[nxpos][nypos] != WALL) {
10001664:	e0fffd0f 	ldh	r3,-12(fp)
10001668:	e0bffc8f 	ldh	r2,-14(fp)
1000166c:	18c003e4 	muli	r3,r3,15
10001670:	e0c7883a 	add	r3,fp,r3
10001674:	1885883a 	add	r2,r3,r2
10001678:	10bfc343 	ldbu	r2,-243(r2)
1000167c:	1080005c 	xori	r2,r2,1
10001680:	10803fcc 	andi	r2,r2,255
10001684:	10004226 	beq	r2,zero,10001790 <blinkys_move+0x364>
10001688:	e0fffd0f 	ldh	r3,-12(fp)
1000168c:	e0bffc8f 	ldh	r2,-14(fp)
10001690:	18c003e4 	muli	r3,r3,15
10001694:	1885883a 	add	r2,r3,r2
10001698:	100490ba 	slli	r2,r2,2
1000169c:	e085883a 	add	r2,fp,r2
100016a0:	10bee217 	ldw	r2,-1144(r2)
100016a4:	10003a26 	beq	r2,zero,10001790 <blinkys_move+0x364>
            distances[nxpos][nypos] = distances[nxpos][nypos] > distances[curr_seek.xpos][curr_seek.ypos]? distances[curr_seek.xpos][curr_seek.ypos]+1 : distances[nxpos][nypos];
100016a8:	e0fffd0f 	ldh	r3,-12(fp)
100016ac:	e0bffc8f 	ldh	r2,-14(fp)
100016b0:	18c003e4 	muli	r3,r3,15
100016b4:	1887883a 	add	r3,r3,r2
100016b8:	008400f4 	movhi	r2,4099
100016bc:	1885883a 	add	r2,r3,r2
100016c0:	11295203 	ldbu	r4,-23224(r2)
100016c4:	e0bee103 	ldbu	r2,-1148(fp)
100016c8:	10c03fcc 	andi	r3,r2,255
100016cc:	e0bee143 	ldbu	r2,-1147(fp)
100016d0:	10803fcc 	andi	r2,r2,255
100016d4:	18c003e4 	muli	r3,r3,15
100016d8:	1887883a 	add	r3,r3,r2
100016dc:	008400f4 	movhi	r2,4099
100016e0:	1885883a 	add	r2,r3,r2
100016e4:	10e95203 	ldbu	r3,-23224(r2)
100016e8:	20803fcc 	andi	r2,r4,255
100016ec:	1080201c 	xori	r2,r2,128
100016f0:	10bfe004 	addi	r2,r2,-128
100016f4:	18c03fcc 	andi	r3,r3,255
100016f8:	18c0201c 	xori	r3,r3,128
100016fc:	18ffe004 	addi	r3,r3,-128
10001700:	18800c0e 	bge	r3,r2,10001734 <blinkys_move+0x308>
10001704:	e0bee103 	ldbu	r2,-1148(fp)
10001708:	10c03fcc 	andi	r3,r2,255
1000170c:	e0bee143 	ldbu	r2,-1147(fp)
10001710:	10803fcc 	andi	r2,r2,255
10001714:	18c003e4 	muli	r3,r3,15
10001718:	1887883a 	add	r3,r3,r2
1000171c:	008400f4 	movhi	r2,4099
10001720:	1885883a 	add	r2,r3,r2
10001724:	10a95203 	ldbu	r2,-23224(r2)
10001728:	10800044 	addi	r2,r2,1
1000172c:	1007883a 	mov	r3,r2
10001730:	00000706 	br	10001750 <blinkys_move+0x324>
10001734:	e0fffd0f 	ldh	r3,-12(fp)
10001738:	e0bffc8f 	ldh	r2,-14(fp)
1000173c:	18c003e4 	muli	r3,r3,15
10001740:	1887883a 	add	r3,r3,r2
10001744:	008400f4 	movhi	r2,4099
10001748:	1885883a 	add	r2,r3,r2
1000174c:	10e95203 	ldbu	r3,-23224(r2)
10001750:	e13ffd0f 	ldh	r4,-12(fp)
10001754:	e0bffc8f 	ldh	r2,-14(fp)
10001758:	210003e4 	muli	r4,r4,15
1000175c:	2089883a 	add	r4,r4,r2
10001760:	008400f4 	movhi	r2,4099
10001764:	2085883a 	add	r2,r4,r2
10001768:	10e95205 	stb	r3,-23224(r2)
            Point npt;
            npt.xpos = (uint8_t)nxpos;
1000176c:	e0bffd0b 	ldhu	r2,-12(fp)
10001770:	e0bee085 	stb	r2,-1150(fp)
            npt.ypos = (uint8_t)nypos;
10001774:	e0bffc8b 	ldhu	r2,-14(fp)
10001778:	e0bee0c5 	stb	r2,-1149(fp)
            dijkstra_fringe = stack_push(dijkstra_fringe, &npt);
1000177c:	e0bee084 	addi	r2,fp,-1150
10001780:	100b883a 	mov	r5,r2
10001784:	e13fff17 	ldw	r4,-4(fp)
10001788:	00012b40 	call	100012b4 <stack_push>
1000178c:	e0bfff15 	stw	r2,-4(fp)
        }

        // Investigate DOWN.
        nxpos = curr_seek.xpos;
10001790:	e0bee103 	ldbu	r2,-1148(fp)
10001794:	10803fcc 	andi	r2,r2,255
10001798:	e0bffd0d 	sth	r2,-12(fp)
        nypos = curr_seek.ypos;
1000179c:	e0bee143 	ldbu	r2,-1147(fp)
100017a0:	10803fcc 	andi	r2,r2,255
100017a4:	e0bffc8d 	sth	r2,-14(fp)
        nxpos = (nxpos + 1) % _BOARD_H;
100017a8:	e0bffd0f 	ldh	r2,-12(fp)
100017ac:	10800044 	addi	r2,r2,1
100017b0:	00c003c4 	movi	r3,15
100017b4:	10c7283a 	div	r3,r2,r3
100017b8:	18c003e4 	muli	r3,r3,15
100017bc:	10c5c83a 	sub	r2,r2,r3
100017c0:	e0bffd0d 	sth	r2,-12(fp)

        if(!dst_finalize[nxpos][nypos] && tmp_map[nxpos][nypos] != WALL) {
100017c4:	e0fffd0f 	ldh	r3,-12(fp)
100017c8:	e0bffc8f 	ldh	r2,-14(fp)
100017cc:	18c003e4 	muli	r3,r3,15
100017d0:	e0c7883a 	add	r3,fp,r3
100017d4:	1885883a 	add	r2,r3,r2
100017d8:	10bfc343 	ldbu	r2,-243(r2)
100017dc:	1080005c 	xori	r2,r2,1
100017e0:	10803fcc 	andi	r2,r2,255
100017e4:	10004226 	beq	r2,zero,100018f0 <blinkys_move+0x4c4>
100017e8:	e0fffd0f 	ldh	r3,-12(fp)
100017ec:	e0bffc8f 	ldh	r2,-14(fp)
100017f0:	18c003e4 	muli	r3,r3,15
100017f4:	1885883a 	add	r2,r3,r2
100017f8:	100490ba 	slli	r2,r2,2
100017fc:	e085883a 	add	r2,fp,r2
10001800:	10bee217 	ldw	r2,-1144(r2)
10001804:	10003a26 	beq	r2,zero,100018f0 <blinkys_move+0x4c4>
            distances[nxpos][nypos] = distances[nxpos][nypos] > distances[curr_seek.xpos][curr_seek.ypos]? distances[curr_seek.xpos][curr_seek.ypos]+1 : distances[nxpos][nypos];
10001808:	e0fffd0f 	ldh	r3,-12(fp)
1000180c:	e0bffc8f 	ldh	r2,-14(fp)
10001810:	18c003e4 	muli	r3,r3,15
10001814:	1887883a 	add	r3,r3,r2
10001818:	008400f4 	movhi	r2,4099
1000181c:	1885883a 	add	r2,r3,r2
10001820:	11295203 	ldbu	r4,-23224(r2)
10001824:	e0bee103 	ldbu	r2,-1148(fp)
10001828:	10c03fcc 	andi	r3,r2,255
1000182c:	e0bee143 	ldbu	r2,-1147(fp)
10001830:	10803fcc 	andi	r2,r2,255
10001834:	18c003e4 	muli	r3,r3,15
10001838:	1887883a 	add	r3,r3,r2
1000183c:	008400f4 	movhi	r2,4099
10001840:	1885883a 	add	r2,r3,r2
10001844:	10e95203 	ldbu	r3,-23224(r2)
10001848:	20803fcc 	andi	r2,r4,255
1000184c:	1080201c 	xori	r2,r2,128
10001850:	10bfe004 	addi	r2,r2,-128
10001854:	18c03fcc 	andi	r3,r3,255
10001858:	18c0201c 	xori	r3,r3,128
1000185c:	18ffe004 	addi	r3,r3,-128
10001860:	18800c0e 	bge	r3,r2,10001894 <blinkys_move+0x468>
10001864:	e0bee103 	ldbu	r2,-1148(fp)
10001868:	10c03fcc 	andi	r3,r2,255
1000186c:	e0bee143 	ldbu	r2,-1147(fp)
10001870:	10803fcc 	andi	r2,r2,255
10001874:	18c003e4 	muli	r3,r3,15
10001878:	1887883a 	add	r3,r3,r2
1000187c:	008400f4 	movhi	r2,4099
10001880:	1885883a 	add	r2,r3,r2
10001884:	10a95203 	ldbu	r2,-23224(r2)
10001888:	10800044 	addi	r2,r2,1
1000188c:	1007883a 	mov	r3,r2
10001890:	00000706 	br	100018b0 <blinkys_move+0x484>
10001894:	e0fffd0f 	ldh	r3,-12(fp)
10001898:	e0bffc8f 	ldh	r2,-14(fp)
1000189c:	18c003e4 	muli	r3,r3,15
100018a0:	1887883a 	add	r3,r3,r2
100018a4:	008400f4 	movhi	r2,4099
100018a8:	1885883a 	add	r2,r3,r2
100018ac:	10e95203 	ldbu	r3,-23224(r2)
100018b0:	e13ffd0f 	ldh	r4,-12(fp)
100018b4:	e0bffc8f 	ldh	r2,-14(fp)
100018b8:	210003e4 	muli	r4,r4,15
100018bc:	2089883a 	add	r4,r4,r2
100018c0:	008400f4 	movhi	r2,4099
100018c4:	2085883a 	add	r2,r4,r2
100018c8:	10e95205 	stb	r3,-23224(r2)
            Point npt;
            npt.xpos = (uint8_t)nxpos;
100018cc:	e0bffd0b 	ldhu	r2,-12(fp)
100018d0:	e0bee005 	stb	r2,-1152(fp)
            npt.ypos = (uint8_t)nypos;
100018d4:	e0bffc8b 	ldhu	r2,-14(fp)
100018d8:	e0bee045 	stb	r2,-1151(fp)
            dijkstra_fringe = stack_push(dijkstra_fringe, &npt);
100018dc:	e0bee004 	addi	r2,fp,-1152
100018e0:	100b883a 	mov	r5,r2
100018e4:	e13fff17 	ldw	r4,-4(fp)
100018e8:	00012b40 	call	100012b4 <stack_push>
100018ec:	e0bfff15 	stw	r2,-4(fp)
        }

        // Investigate LEFT.
        nxpos = curr_seek.xpos;
100018f0:	e0bee103 	ldbu	r2,-1148(fp)
100018f4:	10803fcc 	andi	r2,r2,255
100018f8:	e0bffd0d 	sth	r2,-12(fp)
        nypos = curr_seek.ypos;
100018fc:	e0bee143 	ldbu	r2,-1147(fp)
10001900:	10803fcc 	andi	r2,r2,255
10001904:	e0bffc8d 	sth	r2,-14(fp)
        nypos = (nypos - 1 + _BOARD_W) % _BOARD_W;
10001908:	e0bffc8f 	ldh	r2,-14(fp)
1000190c:	10800384 	addi	r2,r2,14
10001910:	00c003c4 	movi	r3,15
10001914:	10c7283a 	div	r3,r2,r3
10001918:	18c003e4 	muli	r3,r3,15
1000191c:	10c5c83a 	sub	r2,r2,r3
10001920:	e0bffc8d 	sth	r2,-14(fp)

        if(!dst_finalize[nxpos][nypos] && tmp_map[nxpos][nypos] != WALL) {
10001924:	e0fffd0f 	ldh	r3,-12(fp)
10001928:	e0bffc8f 	ldh	r2,-14(fp)
1000192c:	18c003e4 	muli	r3,r3,15
10001930:	e0c7883a 	add	r3,fp,r3
10001934:	1885883a 	add	r2,r3,r2
10001938:	10bfc343 	ldbu	r2,-243(r2)
1000193c:	1080005c 	xori	r2,r2,1
10001940:	10803fcc 	andi	r2,r2,255
10001944:	10004226 	beq	r2,zero,10001a50 <blinkys_move+0x624>
10001948:	e0fffd0f 	ldh	r3,-12(fp)
1000194c:	e0bffc8f 	ldh	r2,-14(fp)
10001950:	18c003e4 	muli	r3,r3,15
10001954:	1885883a 	add	r2,r3,r2
10001958:	100490ba 	slli	r2,r2,2
1000195c:	e085883a 	add	r2,fp,r2
10001960:	10bee217 	ldw	r2,-1144(r2)
10001964:	10003a26 	beq	r2,zero,10001a50 <blinkys_move+0x624>
            distances[nxpos][nypos] = distances[nxpos][nypos] > distances[curr_seek.xpos][curr_seek.ypos]? distances[curr_seek.xpos][curr_seek.ypos]+1 : distances[nxpos][nypos];
10001968:	e0fffd0f 	ldh	r3,-12(fp)
1000196c:	e0bffc8f 	ldh	r2,-14(fp)
10001970:	18c003e4 	muli	r3,r3,15
10001974:	1887883a 	add	r3,r3,r2
10001978:	008400f4 	movhi	r2,4099
1000197c:	1885883a 	add	r2,r3,r2
10001980:	11295203 	ldbu	r4,-23224(r2)
10001984:	e0bee103 	ldbu	r2,-1148(fp)
10001988:	10c03fcc 	andi	r3,r2,255
1000198c:	e0bee143 	ldbu	r2,-1147(fp)
10001990:	10803fcc 	andi	r2,r2,255
10001994:	18c003e4 	muli	r3,r3,15
10001998:	1887883a 	add	r3,r3,r2
1000199c:	008400f4 	movhi	r2,4099
100019a0:	1885883a 	add	r2,r3,r2
100019a4:	10e95203 	ldbu	r3,-23224(r2)
100019a8:	20803fcc 	andi	r2,r4,255
100019ac:	1080201c 	xori	r2,r2,128
100019b0:	10bfe004 	addi	r2,r2,-128
100019b4:	18c03fcc 	andi	r3,r3,255
100019b8:	18c0201c 	xori	r3,r3,128
100019bc:	18ffe004 	addi	r3,r3,-128
100019c0:	18800c0e 	bge	r3,r2,100019f4 <blinkys_move+0x5c8>
100019c4:	e0bee103 	ldbu	r2,-1148(fp)
100019c8:	10c03fcc 	andi	r3,r2,255
100019cc:	e0bee143 	ldbu	r2,-1147(fp)
100019d0:	10803fcc 	andi	r2,r2,255
100019d4:	18c003e4 	muli	r3,r3,15
100019d8:	1887883a 	add	r3,r3,r2
100019dc:	008400f4 	movhi	r2,4099
100019e0:	1885883a 	add	r2,r3,r2
100019e4:	10a95203 	ldbu	r2,-23224(r2)
100019e8:	10800044 	addi	r2,r2,1
100019ec:	1007883a 	mov	r3,r2
100019f0:	00000706 	br	10001a10 <blinkys_move+0x5e4>
100019f4:	e0fffd0f 	ldh	r3,-12(fp)
100019f8:	e0bffc8f 	ldh	r2,-14(fp)
100019fc:	18c003e4 	muli	r3,r3,15
10001a00:	1887883a 	add	r3,r3,r2
10001a04:	008400f4 	movhi	r2,4099
10001a08:	1885883a 	add	r2,r3,r2
10001a0c:	10e95203 	ldbu	r3,-23224(r2)
10001a10:	e13ffd0f 	ldh	r4,-12(fp)
10001a14:	e0bffc8f 	ldh	r2,-14(fp)
10001a18:	210003e4 	muli	r4,r4,15
10001a1c:	2089883a 	add	r4,r4,r2
10001a20:	008400f4 	movhi	r2,4099
10001a24:	2085883a 	add	r2,r4,r2
10001a28:	10e95205 	stb	r3,-23224(r2)
            Point npt;
            npt.xpos = (uint8_t)nxpos;
10001a2c:	e0bffd0b 	ldhu	r2,-12(fp)
10001a30:	e0bedf85 	stb	r2,-1154(fp)
            npt.ypos = (uint8_t)nypos;
10001a34:	e0bffc8b 	ldhu	r2,-14(fp)
10001a38:	e0bedfc5 	stb	r2,-1153(fp)
            dijkstra_fringe = stack_push(dijkstra_fringe, &npt);
10001a3c:	e0bedf84 	addi	r2,fp,-1154
10001a40:	100b883a 	mov	r5,r2
10001a44:	e13fff17 	ldw	r4,-4(fp)
10001a48:	00012b40 	call	100012b4 <stack_push>
10001a4c:	e0bfff15 	stw	r2,-4(fp)
        }

        // Investigate RIGHT.
        nxpos = curr_seek.xpos;
10001a50:	e0bee103 	ldbu	r2,-1148(fp)
10001a54:	10803fcc 	andi	r2,r2,255
10001a58:	e0bffd0d 	sth	r2,-12(fp)
        nypos = curr_seek.ypos;
10001a5c:	e0bee143 	ldbu	r2,-1147(fp)
10001a60:	10803fcc 	andi	r2,r2,255
10001a64:	e0bffc8d 	sth	r2,-14(fp)
        nypos = (nypos + 1) % _BOARD_W;
10001a68:	e0bffc8f 	ldh	r2,-14(fp)
10001a6c:	10800044 	addi	r2,r2,1
10001a70:	00c003c4 	movi	r3,15
10001a74:	10c7283a 	div	r3,r2,r3
10001a78:	18c003e4 	muli	r3,r3,15
10001a7c:	10c5c83a 	sub	r2,r2,r3
10001a80:	e0bffc8d 	sth	r2,-14(fp)

        if(!dst_finalize[nxpos][nypos] && tmp_map[nxpos][nypos] != WALL) {
10001a84:	e0fffd0f 	ldh	r3,-12(fp)
10001a88:	e0bffc8f 	ldh	r2,-14(fp)
10001a8c:	18c003e4 	muli	r3,r3,15
10001a90:	e0c7883a 	add	r3,fp,r3
10001a94:	1885883a 	add	r2,r3,r2
10001a98:	10bfc343 	ldbu	r2,-243(r2)
10001a9c:	1080005c 	xori	r2,r2,1
10001aa0:	10803fcc 	andi	r2,r2,255
10001aa4:	10004226 	beq	r2,zero,10001bb0 <blinkys_move+0x784>
10001aa8:	e0fffd0f 	ldh	r3,-12(fp)
10001aac:	e0bffc8f 	ldh	r2,-14(fp)
10001ab0:	18c003e4 	muli	r3,r3,15
10001ab4:	1885883a 	add	r2,r3,r2
10001ab8:	100490ba 	slli	r2,r2,2
10001abc:	e085883a 	add	r2,fp,r2
10001ac0:	10bee217 	ldw	r2,-1144(r2)
10001ac4:	10003a26 	beq	r2,zero,10001bb0 <blinkys_move+0x784>
            distances[nxpos][nypos] = distances[nxpos][nypos] > distances[curr_seek.xpos][curr_seek.ypos]? distances[curr_seek.xpos][curr_seek.ypos]+1 : distances[nxpos][nypos];
10001ac8:	e0fffd0f 	ldh	r3,-12(fp)
10001acc:	e0bffc8f 	ldh	r2,-14(fp)
10001ad0:	18c003e4 	muli	r3,r3,15
10001ad4:	1887883a 	add	r3,r3,r2
10001ad8:	008400f4 	movhi	r2,4099
10001adc:	1885883a 	add	r2,r3,r2
10001ae0:	11295203 	ldbu	r4,-23224(r2)
10001ae4:	e0bee103 	ldbu	r2,-1148(fp)
10001ae8:	10c03fcc 	andi	r3,r2,255
10001aec:	e0bee143 	ldbu	r2,-1147(fp)
10001af0:	10803fcc 	andi	r2,r2,255
10001af4:	18c003e4 	muli	r3,r3,15
10001af8:	1887883a 	add	r3,r3,r2
10001afc:	008400f4 	movhi	r2,4099
10001b00:	1885883a 	add	r2,r3,r2
10001b04:	10e95203 	ldbu	r3,-23224(r2)
10001b08:	20803fcc 	andi	r2,r4,255
10001b0c:	1080201c 	xori	r2,r2,128
10001b10:	10bfe004 	addi	r2,r2,-128
10001b14:	18c03fcc 	andi	r3,r3,255
10001b18:	18c0201c 	xori	r3,r3,128
10001b1c:	18ffe004 	addi	r3,r3,-128
10001b20:	18800c0e 	bge	r3,r2,10001b54 <blinkys_move+0x728>
10001b24:	e0bee103 	ldbu	r2,-1148(fp)
10001b28:	10c03fcc 	andi	r3,r2,255
10001b2c:	e0bee143 	ldbu	r2,-1147(fp)
10001b30:	10803fcc 	andi	r2,r2,255
10001b34:	18c003e4 	muli	r3,r3,15
10001b38:	1887883a 	add	r3,r3,r2
10001b3c:	008400f4 	movhi	r2,4099
10001b40:	1885883a 	add	r2,r3,r2
10001b44:	10a95203 	ldbu	r2,-23224(r2)
10001b48:	10800044 	addi	r2,r2,1
10001b4c:	1007883a 	mov	r3,r2
10001b50:	00000706 	br	10001b70 <blinkys_move+0x744>
10001b54:	e0fffd0f 	ldh	r3,-12(fp)
10001b58:	e0bffc8f 	ldh	r2,-14(fp)
10001b5c:	18c003e4 	muli	r3,r3,15
10001b60:	1887883a 	add	r3,r3,r2
10001b64:	008400f4 	movhi	r2,4099
10001b68:	1885883a 	add	r2,r3,r2
10001b6c:	10e95203 	ldbu	r3,-23224(r2)
10001b70:	e13ffd0f 	ldh	r4,-12(fp)
10001b74:	e0bffc8f 	ldh	r2,-14(fp)
10001b78:	210003e4 	muli	r4,r4,15
10001b7c:	2089883a 	add	r4,r4,r2
10001b80:	008400f4 	movhi	r2,4099
10001b84:	2085883a 	add	r2,r4,r2
10001b88:	10e95205 	stb	r3,-23224(r2)
            Point npt;
            npt.xpos = (uint8_t)nxpos;
10001b8c:	e0bffd0b 	ldhu	r2,-12(fp)
10001b90:	e0bedf05 	stb	r2,-1156(fp)
            npt.ypos = (uint8_t)nypos;
10001b94:	e0bffc8b 	ldhu	r2,-14(fp)
10001b98:	e0bedf45 	stb	r2,-1155(fp)
            dijkstra_fringe = stack_push(dijkstra_fringe, &npt);
10001b9c:	e0bedf04 	addi	r2,fp,-1156
10001ba0:	100b883a 	mov	r5,r2
10001ba4:	e13fff17 	ldw	r4,-4(fp)
10001ba8:	00012b40 	call	100012b4 <stack_push>
10001bac:	e0bfff15 	stw	r2,-4(fp)
    while(!stack_isempty(dijkstra_fringe)) {
10001bb0:	e13fff17 	ldw	r4,-4(fp)
10001bb4:	00014040 	call	10001404 <stack_isempty>
10001bb8:	1080005c 	xori	r2,r2,1
10001bbc:	10803fcc 	andi	r2,r2,255
10001bc0:	103e871e 	bne	r2,zero,100015e0 <blinkys_move+0x1b4>
        }
    }

    // Now all tiles are marked with a distance. See where should blinky go.
    uint8_t best_xpos = game->blinky.xpos;
10001bc4:	e0bede17 	ldw	r2,-1160(fp)
10001bc8:	1080e283 	ldbu	r2,906(r2)
10001bcc:	e0bffe45 	stb	r2,-7(fp)
    uint8_t best_ypos = game->blinky.ypos;
10001bd0:	e0bede17 	ldw	r2,-1160(fp)
10001bd4:	1080e2c3 	ldbu	r2,907(r2)
10001bd8:	e0bffe05 	stb	r2,-8(fp)
    uint8_t best_dist = 63;
10001bdc:	00800fc4 	movi	r2,63
10001be0:	e0bffdc5 	stb	r2,-9(fp)

    // Investigate UP.
    int16_t nxpos = game->blinky.xpos;
10001be4:	e0bede17 	ldw	r2,-1160(fp)
10001be8:	1080e283 	ldbu	r2,906(r2)
10001bec:	10803fcc 	andi	r2,r2,255
10001bf0:	e0bffc0d 	sth	r2,-16(fp)
    int16_t nypos = game->blinky.ypos;
10001bf4:	e0bede17 	ldw	r2,-1160(fp)
10001bf8:	1080e2c3 	ldbu	r2,907(r2)
10001bfc:	10803fcc 	andi	r2,r2,255
10001c00:	e0bffb8d 	sth	r2,-18(fp)
    nxpos = (nxpos - 1 + _BOARD_H) % _BOARD_H;
10001c04:	e0bffc0f 	ldh	r2,-16(fp)
10001c08:	10800384 	addi	r2,r2,14
10001c0c:	00c003c4 	movi	r3,15
10001c10:	10c7283a 	div	r3,r2,r3
10001c14:	18c003e4 	muli	r3,r3,15
10001c18:	10c5c83a 	sub	r2,r2,r3
10001c1c:	e0bffc0d 	sth	r2,-16(fp)

    if(distances[nxpos][nypos] < best_dist) {
10001c20:	e0fffc0f 	ldh	r3,-16(fp)
10001c24:	e0bffb8f 	ldh	r2,-18(fp)
10001c28:	18c003e4 	muli	r3,r3,15
10001c2c:	1887883a 	add	r3,r3,r2
10001c30:	008400f4 	movhi	r2,4099
10001c34:	1885883a 	add	r2,r3,r2
10001c38:	10a95203 	ldbu	r2,-23224(r2)
10001c3c:	10c03fcc 	andi	r3,r2,255
10001c40:	18c0201c 	xori	r3,r3,128
10001c44:	18ffe004 	addi	r3,r3,-128
10001c48:	e0bffdc3 	ldbu	r2,-9(fp)
10001c4c:	18800c0e 	bge	r3,r2,10001c80 <blinkys_move+0x854>
        best_dist = (uint8_t)distances[nxpos][nypos];
10001c50:	e0fffc0f 	ldh	r3,-16(fp)
10001c54:	e0bffb8f 	ldh	r2,-18(fp)
10001c58:	18c003e4 	muli	r3,r3,15
10001c5c:	1887883a 	add	r3,r3,r2
10001c60:	008400f4 	movhi	r2,4099
10001c64:	1885883a 	add	r2,r3,r2
10001c68:	10a95203 	ldbu	r2,-23224(r2)
10001c6c:	e0bffdc5 	stb	r2,-9(fp)
        best_xpos = (uint8_t)nxpos;
10001c70:	e0bffc0b 	ldhu	r2,-16(fp)
10001c74:	e0bffe45 	stb	r2,-7(fp)
        best_ypos = (uint8_t)nypos;
10001c78:	e0bffb8b 	ldhu	r2,-18(fp)
10001c7c:	e0bffe05 	stb	r2,-8(fp)
    }

    // Investigate DOWN.
    nxpos = game->blinky.xpos;
10001c80:	e0bede17 	ldw	r2,-1160(fp)
10001c84:	1080e283 	ldbu	r2,906(r2)
10001c88:	10803fcc 	andi	r2,r2,255
10001c8c:	e0bffc0d 	sth	r2,-16(fp)
    nypos = game->blinky.ypos;
10001c90:	e0bede17 	ldw	r2,-1160(fp)
10001c94:	1080e2c3 	ldbu	r2,907(r2)
10001c98:	10803fcc 	andi	r2,r2,255
10001c9c:	e0bffb8d 	sth	r2,-18(fp)
    nxpos = (nxpos + 1) % _BOARD_H;
10001ca0:	e0bffc0f 	ldh	r2,-16(fp)
10001ca4:	10800044 	addi	r2,r2,1
10001ca8:	00c003c4 	movi	r3,15
10001cac:	10c7283a 	div	r3,r2,r3
10001cb0:	18c003e4 	muli	r3,r3,15
10001cb4:	10c5c83a 	sub	r2,r2,r3
10001cb8:	e0bffc0d 	sth	r2,-16(fp)

    if(distances[nxpos][nypos] < best_dist) {
10001cbc:	e0fffc0f 	ldh	r3,-16(fp)
10001cc0:	e0bffb8f 	ldh	r2,-18(fp)
10001cc4:	18c003e4 	muli	r3,r3,15
10001cc8:	1887883a 	add	r3,r3,r2
10001ccc:	008400f4 	movhi	r2,4099
10001cd0:	1885883a 	add	r2,r3,r2
10001cd4:	10a95203 	ldbu	r2,-23224(r2)
10001cd8:	10c03fcc 	andi	r3,r2,255
10001cdc:	18c0201c 	xori	r3,r3,128
10001ce0:	18ffe004 	addi	r3,r3,-128
10001ce4:	e0bffdc3 	ldbu	r2,-9(fp)
10001ce8:	18800c0e 	bge	r3,r2,10001d1c <blinkys_move+0x8f0>
        best_dist = (uint8_t)distances[nxpos][nypos];
10001cec:	e0fffc0f 	ldh	r3,-16(fp)
10001cf0:	e0bffb8f 	ldh	r2,-18(fp)
10001cf4:	18c003e4 	muli	r3,r3,15
10001cf8:	1887883a 	add	r3,r3,r2
10001cfc:	008400f4 	movhi	r2,4099
10001d00:	1885883a 	add	r2,r3,r2
10001d04:	10a95203 	ldbu	r2,-23224(r2)
10001d08:	e0bffdc5 	stb	r2,-9(fp)
        best_xpos = (uint8_t)nxpos;
10001d0c:	e0bffc0b 	ldhu	r2,-16(fp)
10001d10:	e0bffe45 	stb	r2,-7(fp)
        best_ypos = (uint8_t)nypos;
10001d14:	e0bffb8b 	ldhu	r2,-18(fp)
10001d18:	e0bffe05 	stb	r2,-8(fp)
    }

    // Investigate LEFT.
    nxpos = game->blinky.xpos;
10001d1c:	e0bede17 	ldw	r2,-1160(fp)
10001d20:	1080e283 	ldbu	r2,906(r2)
10001d24:	10803fcc 	andi	r2,r2,255
10001d28:	e0bffc0d 	sth	r2,-16(fp)
    nypos = game->blinky.ypos;
10001d2c:	e0bede17 	ldw	r2,-1160(fp)
10001d30:	1080e2c3 	ldbu	r2,907(r2)
10001d34:	10803fcc 	andi	r2,r2,255
10001d38:	e0bffb8d 	sth	r2,-18(fp)
    nypos = (nypos - 1 + _BOARD_W) % _BOARD_W;
10001d3c:	e0bffb8f 	ldh	r2,-18(fp)
10001d40:	10800384 	addi	r2,r2,14
10001d44:	00c003c4 	movi	r3,15
10001d48:	10c7283a 	div	r3,r2,r3
10001d4c:	18c003e4 	muli	r3,r3,15
10001d50:	10c5c83a 	sub	r2,r2,r3
10001d54:	e0bffb8d 	sth	r2,-18(fp)

    if(distances[nxpos][nypos] < best_dist) {
10001d58:	e0fffc0f 	ldh	r3,-16(fp)
10001d5c:	e0bffb8f 	ldh	r2,-18(fp)
10001d60:	18c003e4 	muli	r3,r3,15
10001d64:	1887883a 	add	r3,r3,r2
10001d68:	008400f4 	movhi	r2,4099
10001d6c:	1885883a 	add	r2,r3,r2
10001d70:	10a95203 	ldbu	r2,-23224(r2)
10001d74:	10c03fcc 	andi	r3,r2,255
10001d78:	18c0201c 	xori	r3,r3,128
10001d7c:	18ffe004 	addi	r3,r3,-128
10001d80:	e0bffdc3 	ldbu	r2,-9(fp)
10001d84:	18800c0e 	bge	r3,r2,10001db8 <blinkys_move+0x98c>
        best_dist = (uint8_t)distances[nxpos][nypos];
10001d88:	e0fffc0f 	ldh	r3,-16(fp)
10001d8c:	e0bffb8f 	ldh	r2,-18(fp)
10001d90:	18c003e4 	muli	r3,r3,15
10001d94:	1887883a 	add	r3,r3,r2
10001d98:	008400f4 	movhi	r2,4099
10001d9c:	1885883a 	add	r2,r3,r2
10001da0:	10a95203 	ldbu	r2,-23224(r2)
10001da4:	e0bffdc5 	stb	r2,-9(fp)
        best_xpos = (uint8_t)nxpos;
10001da8:	e0bffc0b 	ldhu	r2,-16(fp)
10001dac:	e0bffe45 	stb	r2,-7(fp)
        best_ypos = (uint8_t)nypos;
10001db0:	e0bffb8b 	ldhu	r2,-18(fp)
10001db4:	e0bffe05 	stb	r2,-8(fp)
    }

    // Investigate RIGHT.
    nxpos = game->blinky.xpos;
10001db8:	e0bede17 	ldw	r2,-1160(fp)
10001dbc:	1080e283 	ldbu	r2,906(r2)
10001dc0:	10803fcc 	andi	r2,r2,255
10001dc4:	e0bffc0d 	sth	r2,-16(fp)
    nypos = game->blinky.ypos;
10001dc8:	e0bede17 	ldw	r2,-1160(fp)
10001dcc:	1080e2c3 	ldbu	r2,907(r2)
10001dd0:	10803fcc 	andi	r2,r2,255
10001dd4:	e0bffb8d 	sth	r2,-18(fp)
    nypos = (nypos + 1) % _BOARD_W;
10001dd8:	e0bffb8f 	ldh	r2,-18(fp)
10001ddc:	10800044 	addi	r2,r2,1
10001de0:	00c003c4 	movi	r3,15
10001de4:	10c7283a 	div	r3,r2,r3
10001de8:	18c003e4 	muli	r3,r3,15
10001dec:	10c5c83a 	sub	r2,r2,r3
10001df0:	e0bffb8d 	sth	r2,-18(fp)

    if(distances[nxpos][nypos] < best_dist) {
10001df4:	e0fffc0f 	ldh	r3,-16(fp)
10001df8:	e0bffb8f 	ldh	r2,-18(fp)
10001dfc:	18c003e4 	muli	r3,r3,15
10001e00:	1887883a 	add	r3,r3,r2
10001e04:	008400f4 	movhi	r2,4099
10001e08:	1885883a 	add	r2,r3,r2
10001e0c:	10a95203 	ldbu	r2,-23224(r2)
10001e10:	10c03fcc 	andi	r3,r2,255
10001e14:	18c0201c 	xori	r3,r3,128
10001e18:	18ffe004 	addi	r3,r3,-128
10001e1c:	e0bffdc3 	ldbu	r2,-9(fp)
10001e20:	18800c0e 	bge	r3,r2,10001e54 <blinkys_move+0xa28>
        best_dist = (uint8_t)distances[nxpos][nypos];
10001e24:	e0fffc0f 	ldh	r3,-16(fp)
10001e28:	e0bffb8f 	ldh	r2,-18(fp)
10001e2c:	18c003e4 	muli	r3,r3,15
10001e30:	1887883a 	add	r3,r3,r2
10001e34:	008400f4 	movhi	r2,4099
10001e38:	1885883a 	add	r2,r3,r2
10001e3c:	10a95203 	ldbu	r2,-23224(r2)
10001e40:	e0bffdc5 	stb	r2,-9(fp)
        best_xpos = (uint8_t)nxpos;
10001e44:	e0bffc0b 	ldhu	r2,-16(fp)
10001e48:	e0bffe45 	stb	r2,-7(fp)
        best_ypos = (uint8_t)nypos;
10001e4c:	e0bffb8b 	ldhu	r2,-18(fp)
10001e50:	e0bffe05 	stb	r2,-8(fp)
    }

    if(best_dist != 63) {
10001e54:	e0bffdc3 	ldbu	r2,-9(fp)
10001e58:	10800fe0 	cmpeqi	r2,r2,63
10001e5c:	1000141e 	bne	r2,zero,10001eb0 <blinkys_move+0xa84>
    	addPendingPos(game->blinky.xpos, game->blinky.ypos);
10001e60:	e0bede17 	ldw	r2,-1160(fp)
10001e64:	1080e283 	ldbu	r2,906(r2)
10001e68:	10c03fcc 	andi	r3,r2,255
10001e6c:	e0bede17 	ldw	r2,-1160(fp)
10001e70:	1080e2c3 	ldbu	r2,907(r2)
10001e74:	10803fcc 	andi	r2,r2,255
10001e78:	100b883a 	mov	r5,r2
10001e7c:	1809883a 	mov	r4,r3
10001e80:	00066a00 	call	100066a0 <addPendingPos>
    	addPendingPos(best_xpos, best_ypos);
10001e84:	e0bffe43 	ldbu	r2,-7(fp)
10001e88:	e0fffe03 	ldbu	r3,-8(fp)
10001e8c:	180b883a 	mov	r5,r3
10001e90:	1009883a 	mov	r4,r2
10001e94:	00066a00 	call	100066a0 <addPendingPos>
        game->blinky.xpos = best_xpos;
10001e98:	e0bede17 	ldw	r2,-1160(fp)
10001e9c:	e0fffe43 	ldbu	r3,-7(fp)
10001ea0:	10c0e285 	stb	r3,906(r2)
        game->blinky.ypos = best_ypos;
10001ea4:	e0bede17 	ldw	r2,-1160(fp)
10001ea8:	e0fffe03 	ldbu	r3,-8(fp)
10001eac:	10c0e2c5 	stb	r3,907(r2)
    }

    recur_free(dijkstra_fringe);
10001eb0:	e13fff17 	ldw	r4,-4(fp)
10001eb4:	00012680 	call	10001268 <recur_free>
}
10001eb8:	e037883a 	mov	sp,fp
10001ebc:	dfc00117 	ldw	ra,4(sp)
10001ec0:	df000017 	ldw	fp,0(sp)
10001ec4:	dec00204 	addi	sp,sp,8
10001ec8:	f800283a 	ret

10001ecc <det_goal_pos>:
// Pinky. Ambush the player by cutting a way towards the player's moving direction.

static int16_t goal_pos_x = 0;
static int16_t goal_pos_y = 0;

void det_goal_pos(Game* game, char keypress) {             //function to determine the postion for pinky
10001ecc:	defffd04 	addi	sp,sp,-12
10001ed0:	df000215 	stw	fp,8(sp)
10001ed4:	df000204 	addi	fp,sp,8
10001ed8:	e13fff15 	stw	r4,-4(fp)
10001edc:	2805883a 	mov	r2,r5
10001ee0:	e0bffe05 	stb	r2,-8(fp)
    goal_pos_x = game->player.xpos;
10001ee4:	e0bfff17 	ldw	r2,-4(fp)
10001ee8:	1080e103 	ldbu	r2,900(r2)
10001eec:	10803fcc 	andi	r2,r2,255
10001ef0:	d0a7cd0d 	sth	r2,-24780(gp)
    goal_pos_y = game->player.ypos;
10001ef4:	e0bfff17 	ldw	r2,-4(fp)
10001ef8:	1080e143 	ldbu	r2,901(r2)
10001efc:	10803fcc 	andi	r2,r2,255
10001f00:	d0a7cd8d 	sth	r2,-24778(gp)

	if (keypress == 'w' || keypress == 'W') {
10001f04:	e0bffe07 	ldb	r2,-8(fp)
10001f08:	10801de0 	cmpeqi	r2,r2,119
10001f0c:	1000031e 	bne	r2,zero,10001f1c <det_goal_pos+0x50>
10001f10:	e0bffe07 	ldb	r2,-8(fp)
10001f14:	108015d8 	cmpnei	r2,r2,87
10001f18:	1000241e 	bne	r2,zero,10001fac <det_goal_pos+0xe0>
		goal_pos_y = (goal_pos_y - 5 + _BOARD_H) % _BOARD_H;
10001f1c:	d0a7cd8b 	ldhu	r2,-24778(gp)
10001f20:	10bfffcc 	andi	r2,r2,65535
10001f24:	10a0001c 	xori	r2,r2,32768
10001f28:	10a00004 	addi	r2,r2,-32768
10001f2c:	10800284 	addi	r2,r2,10
10001f30:	00c003c4 	movi	r3,15
10001f34:	10c7283a 	div	r3,r2,r3
10001f38:	18c003e4 	muli	r3,r3,15
10001f3c:	10c5c83a 	sub	r2,r2,r3
10001f40:	d0a7cd8d 	sth	r2,-24778(gp)
		while(game->game_map[goal_pos_x][goal_pos_y] == WALL) goal_pos_y = (goal_pos_y + 1) % _BOARD_H;
10001f44:	00000a06 	br	10001f70 <det_goal_pos+0xa4>
10001f48:	d0a7cd8b 	ldhu	r2,-24778(gp)
10001f4c:	10bfffcc 	andi	r2,r2,65535
10001f50:	10a0001c 	xori	r2,r2,32768
10001f54:	10a00004 	addi	r2,r2,-32768
10001f58:	10800044 	addi	r2,r2,1
10001f5c:	00c003c4 	movi	r3,15
10001f60:	10c7283a 	div	r3,r2,r3
10001f64:	18c003e4 	muli	r3,r3,15
10001f68:	10c5c83a 	sub	r2,r2,r3
10001f6c:	d0a7cd8d 	sth	r2,-24778(gp)
10001f70:	d0a7cd0b 	ldhu	r2,-24780(gp)
10001f74:	113fffcc 	andi	r4,r2,65535
10001f78:	2120001c 	xori	r4,r4,32768
10001f7c:	21200004 	addi	r4,r4,-32768
10001f80:	d0a7cd8b 	ldhu	r2,-24778(gp)
10001f84:	10bfffcc 	andi	r2,r2,65535
10001f88:	10a0001c 	xori	r2,r2,32768
10001f8c:	10a00004 	addi	r2,r2,-32768
10001f90:	e0ffff17 	ldw	r3,-4(fp)
10001f94:	210003e4 	muli	r4,r4,15
10001f98:	2085883a 	add	r2,r4,r2
10001f9c:	100490ba 	slli	r2,r2,2
10001fa0:	1885883a 	add	r2,r3,r2
10001fa4:	10800017 	ldw	r2,0(r2)
10001fa8:	103fe726 	beq	r2,zero,10001f48 <det_goal_pos+0x7c>
	}
	if (keypress == 's' || keypress == 'S') {
10001fac:	e0bffe07 	ldb	r2,-8(fp)
10001fb0:	10801ce0 	cmpeqi	r2,r2,115
10001fb4:	1000031e 	bne	r2,zero,10001fc4 <det_goal_pos+0xf8>
10001fb8:	e0bffe07 	ldb	r2,-8(fp)
10001fbc:	108014d8 	cmpnei	r2,r2,83
10001fc0:	1000231e 	bne	r2,zero,10002050 <det_goal_pos+0x184>
		goal_pos_y = (game -> player.ypos + 5) % _BOARD_H;
10001fc4:	e0bfff17 	ldw	r2,-4(fp)
10001fc8:	1080e143 	ldbu	r2,901(r2)
10001fcc:	10803fcc 	andi	r2,r2,255
10001fd0:	10800144 	addi	r2,r2,5
10001fd4:	00c003c4 	movi	r3,15
10001fd8:	10c7283a 	div	r3,r2,r3
10001fdc:	18c003e4 	muli	r3,r3,15
10001fe0:	10c5c83a 	sub	r2,r2,r3
10001fe4:	d0a7cd8d 	sth	r2,-24778(gp)
		while(game->game_map[goal_pos_x][goal_pos_y] == WALL) goal_pos_y = (goal_pos_y - 1 + _BOARD_H) % _BOARD_H;
10001fe8:	00000a06 	br	10002014 <det_goal_pos+0x148>
10001fec:	d0a7cd8b 	ldhu	r2,-24778(gp)
10001ff0:	10bfffcc 	andi	r2,r2,65535
10001ff4:	10a0001c 	xori	r2,r2,32768
10001ff8:	10a00004 	addi	r2,r2,-32768
10001ffc:	10800384 	addi	r2,r2,14
10002000:	00c003c4 	movi	r3,15
10002004:	10c7283a 	div	r3,r2,r3
10002008:	18c003e4 	muli	r3,r3,15
1000200c:	10c5c83a 	sub	r2,r2,r3
10002010:	d0a7cd8d 	sth	r2,-24778(gp)
10002014:	d0a7cd0b 	ldhu	r2,-24780(gp)
10002018:	113fffcc 	andi	r4,r2,65535
1000201c:	2120001c 	xori	r4,r4,32768
10002020:	21200004 	addi	r4,r4,-32768
10002024:	d0a7cd8b 	ldhu	r2,-24778(gp)
10002028:	10bfffcc 	andi	r2,r2,65535
1000202c:	10a0001c 	xori	r2,r2,32768
10002030:	10a00004 	addi	r2,r2,-32768
10002034:	e0ffff17 	ldw	r3,-4(fp)
10002038:	210003e4 	muli	r4,r4,15
1000203c:	2085883a 	add	r2,r4,r2
10002040:	100490ba 	slli	r2,r2,2
10002044:	1885883a 	add	r2,r3,r2
10002048:	10800017 	ldw	r2,0(r2)
1000204c:	103fe726 	beq	r2,zero,10001fec <det_goal_pos+0x120>
	}
	if (keypress == 'a' || keypress == 'A') {
10002050:	e0bffe07 	ldb	r2,-8(fp)
10002054:	10801860 	cmpeqi	r2,r2,97
10002058:	1000031e 	bne	r2,zero,10002068 <det_goal_pos+0x19c>
1000205c:	e0bffe07 	ldb	r2,-8(fp)
10002060:	10801058 	cmpnei	r2,r2,65
10002064:	1000231e 	bne	r2,zero,100020f4 <det_goal_pos+0x228>
		goal_pos_x = (game->player.xpos - 5 + _BOARD_W) % _BOARD_W;
10002068:	e0bfff17 	ldw	r2,-4(fp)
1000206c:	1080e103 	ldbu	r2,900(r2)
10002070:	10803fcc 	andi	r2,r2,255
10002074:	10800284 	addi	r2,r2,10
10002078:	00c003c4 	movi	r3,15
1000207c:	10c7283a 	div	r3,r2,r3
10002080:	18c003e4 	muli	r3,r3,15
10002084:	10c5c83a 	sub	r2,r2,r3
10002088:	d0a7cd0d 	sth	r2,-24780(gp)
		while(game->game_map[goal_pos_x][goal_pos_y] == WALL) goal_pos_x = (goal_pos_x + 1) % _BOARD_W;
1000208c:	00000a06 	br	100020b8 <det_goal_pos+0x1ec>
10002090:	d0a7cd0b 	ldhu	r2,-24780(gp)
10002094:	10bfffcc 	andi	r2,r2,65535
10002098:	10a0001c 	xori	r2,r2,32768
1000209c:	10a00004 	addi	r2,r2,-32768
100020a0:	10800044 	addi	r2,r2,1
100020a4:	00c003c4 	movi	r3,15
100020a8:	10c7283a 	div	r3,r2,r3
100020ac:	18c003e4 	muli	r3,r3,15
100020b0:	10c5c83a 	sub	r2,r2,r3
100020b4:	d0a7cd0d 	sth	r2,-24780(gp)
100020b8:	d0a7cd0b 	ldhu	r2,-24780(gp)
100020bc:	113fffcc 	andi	r4,r2,65535
100020c0:	2120001c 	xori	r4,r4,32768
100020c4:	21200004 	addi	r4,r4,-32768
100020c8:	d0a7cd8b 	ldhu	r2,-24778(gp)
100020cc:	10bfffcc 	andi	r2,r2,65535
100020d0:	10a0001c 	xori	r2,r2,32768
100020d4:	10a00004 	addi	r2,r2,-32768
100020d8:	e0ffff17 	ldw	r3,-4(fp)
100020dc:	210003e4 	muli	r4,r4,15
100020e0:	2085883a 	add	r2,r4,r2
100020e4:	100490ba 	slli	r2,r2,2
100020e8:	1885883a 	add	r2,r3,r2
100020ec:	10800017 	ldw	r2,0(r2)
100020f0:	103fe726 	beq	r2,zero,10002090 <det_goal_pos+0x1c4>
	}
	if (keypress == 'd' || keypress == 'D') {
100020f4:	e0bffe07 	ldb	r2,-8(fp)
100020f8:	10801920 	cmpeqi	r2,r2,100
100020fc:	1000031e 	bne	r2,zero,1000210c <det_goal_pos+0x240>
10002100:	e0bffe07 	ldb	r2,-8(fp)
10002104:	10801118 	cmpnei	r2,r2,68
10002108:	1000231e 	bne	r2,zero,10002198 <det_goal_pos+0x2cc>
		goal_pos_x = (game->player.xpos + 5) % _BOARD_W;
1000210c:	e0bfff17 	ldw	r2,-4(fp)
10002110:	1080e103 	ldbu	r2,900(r2)
10002114:	10803fcc 	andi	r2,r2,255
10002118:	10800144 	addi	r2,r2,5
1000211c:	00c003c4 	movi	r3,15
10002120:	10c7283a 	div	r3,r2,r3
10002124:	18c003e4 	muli	r3,r3,15
10002128:	10c5c83a 	sub	r2,r2,r3
1000212c:	d0a7cd0d 	sth	r2,-24780(gp)
		while(game->game_map[goal_pos_x][goal_pos_y] == WALL) goal_pos_x = (goal_pos_x - 1 + _BOARD_W) % _BOARD_W;
10002130:	00000a06 	br	1000215c <det_goal_pos+0x290>
10002134:	d0a7cd0b 	ldhu	r2,-24780(gp)
10002138:	10bfffcc 	andi	r2,r2,65535
1000213c:	10a0001c 	xori	r2,r2,32768
10002140:	10a00004 	addi	r2,r2,-32768
10002144:	10800384 	addi	r2,r2,14
10002148:	00c003c4 	movi	r3,15
1000214c:	10c7283a 	div	r3,r2,r3
10002150:	18c003e4 	muli	r3,r3,15
10002154:	10c5c83a 	sub	r2,r2,r3
10002158:	d0a7cd0d 	sth	r2,-24780(gp)
1000215c:	d0a7cd0b 	ldhu	r2,-24780(gp)
10002160:	113fffcc 	andi	r4,r2,65535
10002164:	2120001c 	xori	r4,r4,32768
10002168:	21200004 	addi	r4,r4,-32768
1000216c:	d0a7cd8b 	ldhu	r2,-24778(gp)
10002170:	10bfffcc 	andi	r2,r2,65535
10002174:	10a0001c 	xori	r2,r2,32768
10002178:	10a00004 	addi	r2,r2,-32768
1000217c:	e0ffff17 	ldw	r3,-4(fp)
10002180:	210003e4 	muli	r4,r4,15
10002184:	2085883a 	add	r2,r4,r2
10002188:	100490ba 	slli	r2,r2,2
1000218c:	1885883a 	add	r2,r3,r2
10002190:	10800017 	ldw	r2,0(r2)
10002194:	103fe726 	beq	r2,zero,10002134 <det_goal_pos+0x268>
	}
}
10002198:	0001883a 	nop
1000219c:	e037883a 	mov	sp,fp
100021a0:	df000017 	ldw	fp,0(sp)
100021a4:	dec00104 	addi	sp,sp,4
100021a8:	f800283a 	ret

100021ac <pinkys_move>:

void pinkys_move(Game* game, char keypress) {
100021ac:	defeda04 	addi	sp,sp,-1176
100021b0:	dfc12515 	stw	ra,1172(sp)
100021b4:	df012415 	stw	fp,1168(sp)
100021b8:	df012404 	addi	fp,sp,1168
100021bc:	e13edd15 	stw	r4,-1164(fp)
100021c0:	2805883a 	mov	r2,r5
100021c4:	e0bedc05 	stb	r2,-1168(fp)
    // Pinky is dead.
    if(game->pinky.revive_cntdown > 0) {
100021c8:	e0bedd17 	ldw	r2,-1164(fp)
100021cc:	1080e50b 	ldhu	r2,916(r2)
100021d0:	10bfffcc 	andi	r2,r2,65535
100021d4:	10000726 	beq	r2,zero,100021f4 <pinkys_move+0x48>
        game->pinky.revive_cntdown -= 1;
100021d8:	e0bedd17 	ldw	r2,-1164(fp)
100021dc:	1080e50b 	ldhu	r2,916(r2)
100021e0:	10bfffc4 	addi	r2,r2,-1
100021e4:	1007883a 	mov	r3,r2
100021e8:	e0bedd17 	ldw	r2,-1164(fp)
100021ec:	10c0e50d 	sth	r3,916(r2)
100021f0:	00029706 	br	10002c50 <pinkys_move+0xaa4>
        return;
    }

    bool dst_finalize[_BOARD_H][_BOARD_W];
    Tile tmp_map[_BOARD_H][_BOARD_W];
    memcpy(tmp_map, game->game_map, sizeof(tmp_map));
100021f4:	e0fedd17 	ldw	r3,-1164(fp)
100021f8:	e0bee104 	addi	r2,fp,-1148
100021fc:	0180e104 	movi	r6,900
10002200:	180b883a 	mov	r5,r3
10002204:	1009883a 	mov	r4,r2
10002208:	0016be00 	call	10016be0 <memcpy>

    uint8_t i, j;
    for(i = 0; i<_BOARD_H;i+=1) {
1000220c:	e03fffc5 	stb	zero,-1(fp)
10002210:	00001906 	br	10002278 <pinkys_move+0xcc>
        for(j=0; j<_BOARD_W;j+=1) {
10002214:	e03fff85 	stb	zero,-2(fp)
10002218:	00001106 	br	10002260 <pinkys_move+0xb4>
            distances[i][j] = 63; //Something really long.
1000221c:	e0ffffc3 	ldbu	r3,-1(fp)
10002220:	e0bfff83 	ldbu	r2,-2(fp)
10002224:	18c003e4 	muli	r3,r3,15
10002228:	1889883a 	add	r4,r3,r2
1000222c:	00c00fc4 	movi	r3,63
10002230:	008400f4 	movhi	r2,4099
10002234:	2085883a 	add	r2,r4,r2
10002238:	10e95205 	stb	r3,-23224(r2)
            dst_finalize[i][j] = false; // All not finalized.
1000223c:	e0ffffc3 	ldbu	r3,-1(fp)
10002240:	e0bfff83 	ldbu	r2,-2(fp)
10002244:	18c003e4 	muli	r3,r3,15
10002248:	e0c7883a 	add	r3,fp,r3
1000224c:	1885883a 	add	r2,r3,r2
10002250:	103fc2c5 	stb	zero,-245(r2)
        for(j=0; j<_BOARD_W;j+=1) {
10002254:	e0bfff83 	ldbu	r2,-2(fp)
10002258:	10800044 	addi	r2,r2,1
1000225c:	e0bfff85 	stb	r2,-2(fp)
10002260:	e0bfff83 	ldbu	r2,-2(fp)
10002264:	108003f0 	cmpltui	r2,r2,15
10002268:	103fec1e 	bne	r2,zero,1000221c <pinkys_move+0x70>
    for(i = 0; i<_BOARD_H;i+=1) {
1000226c:	e0bfffc3 	ldbu	r2,-1(fp)
10002270:	10800044 	addi	r2,r2,1
10002274:	e0bfffc5 	stb	r2,-1(fp)
10002278:	e0bfffc3 	ldbu	r2,-1(fp)
1000227c:	108003f0 	cmpltui	r2,r2,15
10002280:	103fe41e 	bne	r2,zero,10002214 <pinkys_move+0x68>
        }
    }

    det_goal_pos(game, keypress);          // Determine the goal position of pinky
10002284:	e0bedc07 	ldb	r2,-1168(fp)
10002288:	100b883a 	mov	r5,r2
1000228c:	e13edd17 	ldw	r4,-1164(fp)
10002290:	0001ecc0 	call	10001ecc <det_goal_pos>
    distances[goal_pos_x][goal_pos_y] = 0; // Set the distance of goal to 0.
10002294:	d0a7cd0b 	ldhu	r2,-24780(gp)
10002298:	10ffffcc 	andi	r3,r2,65535
1000229c:	18e0001c 	xori	r3,r3,32768
100022a0:	18e00004 	addi	r3,r3,-32768
100022a4:	d0a7cd8b 	ldhu	r2,-24778(gp)
100022a8:	10bfffcc 	andi	r2,r2,65535
100022ac:	10a0001c 	xori	r2,r2,32768
100022b0:	10a00004 	addi	r2,r2,-32768
100022b4:	18c003e4 	muli	r3,r3,15
100022b8:	1887883a 	add	r3,r3,r2
100022bc:	008400f4 	movhi	r2,4099
100022c0:	1885883a 	add	r2,r3,r2
100022c4:	10295205 	stb	zero,-23224(r2)

	//Reapply dijkstra to the desired goal pos for pinky
    LinkedPoints* dijkstra_fringe_pinky;
    dijkstra_fringe_pinky = nullptr;
100022c8:	e03ffe15 	stw	zero,-8(fp)

    Point desired_pos;
    desired_pos.xpos = (uint8_t)goal_pos_x;
100022cc:	d0a7cd0b 	ldhu	r2,-24780(gp)
100022d0:	e0bee085 	stb	r2,-1150(fp)
    desired_pos.ypos = (uint8_t)goal_pos_y;
100022d4:	d0a7cd8b 	ldhu	r2,-24778(gp)
100022d8:	e0bee0c5 	stb	r2,-1149(fp)
    // Propagate from desired position to ghost.
    dijkstra_fringe_pinky = stack_push(dijkstra_fringe_pinky, &desired_pos);
100022dc:	e0bee084 	addi	r2,fp,-1150
100022e0:	100b883a 	mov	r5,r2
100022e4:	e13ffe17 	ldw	r4,-8(fp)
100022e8:	00012b40 	call	100012b4 <stack_push>
100022ec:	e0bffe15 	stw	r2,-8(fp)



    // Mark other ghosts as obstacles.
    tmp_map[game->inky.xpos][game->inky.ypos] = WALL;
100022f0:	e0bedd17 	ldw	r2,-1164(fp)
100022f4:	1080e583 	ldbu	r2,918(r2)
100022f8:	10c03fcc 	andi	r3,r2,255
100022fc:	e0bedd17 	ldw	r2,-1164(fp)
10002300:	1080e5c3 	ldbu	r2,919(r2)
10002304:	10803fcc 	andi	r2,r2,255
10002308:	18c003e4 	muli	r3,r3,15
1000230c:	1885883a 	add	r2,r3,r2
10002310:	100490ba 	slli	r2,r2,2
10002314:	e085883a 	add	r2,fp,r2
10002318:	103ee115 	stw	zero,-1148(r2)
    tmp_map[game->clyde.xpos][game->clyde.ypos] = WALL;
1000231c:	e0bedd17 	ldw	r2,-1164(fp)
10002320:	1080e703 	ldbu	r2,924(r2)
10002324:	10c03fcc 	andi	r3,r2,255
10002328:	e0bedd17 	ldw	r2,-1164(fp)
1000232c:	1080e743 	ldbu	r2,925(r2)
10002330:	10803fcc 	andi	r2,r2,255
10002334:	18c003e4 	muli	r3,r3,15
10002338:	1885883a 	add	r2,r3,r2
1000233c:	100490ba 	slli	r2,r2,2
10002340:	e085883a 	add	r2,fp,r2
10002344:	103ee115 	stw	zero,-1148(r2)
    tmp_map[game->blinky.xpos][game->blinky.ypos] = WALL;
10002348:	e0bedd17 	ldw	r2,-1164(fp)
1000234c:	1080e283 	ldbu	r2,906(r2)
10002350:	10c03fcc 	andi	r3,r2,255
10002354:	e0bedd17 	ldw	r2,-1164(fp)
10002358:	1080e2c3 	ldbu	r2,907(r2)
1000235c:	10803fcc 	andi	r2,r2,255
10002360:	18c003e4 	muli	r3,r3,15
10002364:	1885883a 	add	r2,r3,r2
10002368:	100490ba 	slli	r2,r2,2
1000236c:	e085883a 	add	r2,fp,r2
10002370:	103ee115 	stw	zero,-1148(r2)

    while(!stack_isempty(dijkstra_fringe_pinky)) {
10002374:	00017406 	br	10002948 <pinkys_move+0x79c>
        Point curr_seek;
        printf("*");
10002378:	01000a84 	movi	r4,42
1000237c:	0016fd00 	call	10016fd0 <putchar>
        fflush(stdout);
10002380:	d0a01117 	ldw	r2,-32700(gp)
10002384:	10800217 	ldw	r2,8(r2)
10002388:	1009883a 	mov	r4,r2
1000238c:	00151b80 	call	100151b8 <fflush>
        dijkstra_fringe_pinky = stack_pop(dijkstra_fringe_pinky, &curr_seek);
10002390:	e0bee004 	addi	r2,fp,-1152
10002394:	100b883a 	mov	r5,r2
10002398:	e13ffe17 	ldw	r4,-8(fp)
1000239c:	00013a80 	call	100013a8 <stack_pop>
100023a0:	e0bffe15 	stw	r2,-8(fp)
        dst_finalize[curr_seek.xpos][curr_seek.ypos] = true;
100023a4:	e0bee003 	ldbu	r2,-1152(fp)
100023a8:	10c03fcc 	andi	r3,r2,255
100023ac:	e0bee043 	ldbu	r2,-1151(fp)
100023b0:	10803fcc 	andi	r2,r2,255
100023b4:	18c003e4 	muli	r3,r3,15
100023b8:	e0c7883a 	add	r3,fp,r3
100023bc:	1885883a 	add	r2,r3,r2
100023c0:	00c00044 	movi	r3,1
100023c4:	10ffc2c5 	stb	r3,-245(r2)
        // Investigate UP of current point.
        int16_t nxpos = curr_seek.xpos;
100023c8:	e0bee003 	ldbu	r2,-1152(fp)
100023cc:	10803fcc 	andi	r2,r2,255
100023d0:	e0bffc8d 	sth	r2,-14(fp)
        int16_t nypos = curr_seek.ypos;
100023d4:	e0bee043 	ldbu	r2,-1151(fp)
100023d8:	10803fcc 	andi	r2,r2,255
100023dc:	e0bffc0d 	sth	r2,-16(fp)
        nxpos = (nxpos - 1 + _BOARD_H) % _BOARD_H;
100023e0:	e0bffc8f 	ldh	r2,-14(fp)
100023e4:	10800384 	addi	r2,r2,14
100023e8:	00c003c4 	movi	r3,15
100023ec:	10c7283a 	div	r3,r2,r3
100023f0:	18c003e4 	muli	r3,r3,15
100023f4:	10c5c83a 	sub	r2,r2,r3
100023f8:	e0bffc8d 	sth	r2,-14(fp)

        if(!dst_finalize[nxpos][nypos] && tmp_map[nxpos][nypos] != WALL) {
100023fc:	e0fffc8f 	ldh	r3,-14(fp)
10002400:	e0bffc0f 	ldh	r2,-16(fp)
10002404:	18c003e4 	muli	r3,r3,15
10002408:	e0c7883a 	add	r3,fp,r3
1000240c:	1885883a 	add	r2,r3,r2
10002410:	10bfc2c3 	ldbu	r2,-245(r2)
10002414:	1080005c 	xori	r2,r2,1
10002418:	10803fcc 	andi	r2,r2,255
1000241c:	10004226 	beq	r2,zero,10002528 <pinkys_move+0x37c>
10002420:	e0fffc8f 	ldh	r3,-14(fp)
10002424:	e0bffc0f 	ldh	r2,-16(fp)
10002428:	18c003e4 	muli	r3,r3,15
1000242c:	1885883a 	add	r2,r3,r2
10002430:	100490ba 	slli	r2,r2,2
10002434:	e085883a 	add	r2,fp,r2
10002438:	10bee117 	ldw	r2,-1148(r2)
1000243c:	10003a26 	beq	r2,zero,10002528 <pinkys_move+0x37c>
            distances[nxpos][nypos] = distances[nxpos][nypos] > distances[curr_seek.xpos][curr_seek.ypos]? distances[curr_seek.xpos][curr_seek.ypos]+1 : distances[nxpos][nypos];
10002440:	e0fffc8f 	ldh	r3,-14(fp)
10002444:	e0bffc0f 	ldh	r2,-16(fp)
10002448:	18c003e4 	muli	r3,r3,15
1000244c:	1887883a 	add	r3,r3,r2
10002450:	008400f4 	movhi	r2,4099
10002454:	1885883a 	add	r2,r3,r2
10002458:	11295203 	ldbu	r4,-23224(r2)
1000245c:	e0bee003 	ldbu	r2,-1152(fp)
10002460:	10c03fcc 	andi	r3,r2,255
10002464:	e0bee043 	ldbu	r2,-1151(fp)
10002468:	10803fcc 	andi	r2,r2,255
1000246c:	18c003e4 	muli	r3,r3,15
10002470:	1887883a 	add	r3,r3,r2
10002474:	008400f4 	movhi	r2,4099
10002478:	1885883a 	add	r2,r3,r2
1000247c:	10e95203 	ldbu	r3,-23224(r2)
10002480:	20803fcc 	andi	r2,r4,255
10002484:	1080201c 	xori	r2,r2,128
10002488:	10bfe004 	addi	r2,r2,-128
1000248c:	18c03fcc 	andi	r3,r3,255
10002490:	18c0201c 	xori	r3,r3,128
10002494:	18ffe004 	addi	r3,r3,-128
10002498:	18800c0e 	bge	r3,r2,100024cc <pinkys_move+0x320>
1000249c:	e0bee003 	ldbu	r2,-1152(fp)
100024a0:	10c03fcc 	andi	r3,r2,255
100024a4:	e0bee043 	ldbu	r2,-1151(fp)
100024a8:	10803fcc 	andi	r2,r2,255
100024ac:	18c003e4 	muli	r3,r3,15
100024b0:	1887883a 	add	r3,r3,r2
100024b4:	008400f4 	movhi	r2,4099
100024b8:	1885883a 	add	r2,r3,r2
100024bc:	10a95203 	ldbu	r2,-23224(r2)
100024c0:	10800044 	addi	r2,r2,1
100024c4:	1007883a 	mov	r3,r2
100024c8:	00000706 	br	100024e8 <pinkys_move+0x33c>
100024cc:	e0fffc8f 	ldh	r3,-14(fp)
100024d0:	e0bffc0f 	ldh	r2,-16(fp)
100024d4:	18c003e4 	muli	r3,r3,15
100024d8:	1887883a 	add	r3,r3,r2
100024dc:	008400f4 	movhi	r2,4099
100024e0:	1885883a 	add	r2,r3,r2
100024e4:	10e95203 	ldbu	r3,-23224(r2)
100024e8:	e13ffc8f 	ldh	r4,-14(fp)
100024ec:	e0bffc0f 	ldh	r2,-16(fp)
100024f0:	210003e4 	muli	r4,r4,15
100024f4:	2089883a 	add	r4,r4,r2
100024f8:	008400f4 	movhi	r2,4099
100024fc:	2085883a 	add	r2,r4,r2
10002500:	10e95205 	stb	r3,-23224(r2)
            Point npt;
            npt.xpos = (uint8_t)nxpos;
10002504:	e0bffc8b 	ldhu	r2,-14(fp)
10002508:	e0bedf85 	stb	r2,-1154(fp)
            npt.ypos = (uint8_t)nypos;
1000250c:	e0bffc0b 	ldhu	r2,-16(fp)
10002510:	e0bedfc5 	stb	r2,-1153(fp)
            dijkstra_fringe_pinky = stack_push(dijkstra_fringe_pinky, &npt);
10002514:	e0bedf84 	addi	r2,fp,-1154
10002518:	100b883a 	mov	r5,r2
1000251c:	e13ffe17 	ldw	r4,-8(fp)
10002520:	00012b40 	call	100012b4 <stack_push>
10002524:	e0bffe15 	stw	r2,-8(fp)
        }

        // Investigate DOWN.
        nxpos = curr_seek.xpos;
10002528:	e0bee003 	ldbu	r2,-1152(fp)
1000252c:	10803fcc 	andi	r2,r2,255
10002530:	e0bffc8d 	sth	r2,-14(fp)
        nypos = curr_seek.ypos;
10002534:	e0bee043 	ldbu	r2,-1151(fp)
10002538:	10803fcc 	andi	r2,r2,255
1000253c:	e0bffc0d 	sth	r2,-16(fp)
        nxpos = (nxpos + 1) % _BOARD_H;
10002540:	e0bffc8f 	ldh	r2,-14(fp)
10002544:	10800044 	addi	r2,r2,1
10002548:	00c003c4 	movi	r3,15
1000254c:	10c7283a 	div	r3,r2,r3
10002550:	18c003e4 	muli	r3,r3,15
10002554:	10c5c83a 	sub	r2,r2,r3
10002558:	e0bffc8d 	sth	r2,-14(fp)

        if(!dst_finalize[nxpos][nypos] && tmp_map[nxpos][nypos] != WALL) {
1000255c:	e0fffc8f 	ldh	r3,-14(fp)
10002560:	e0bffc0f 	ldh	r2,-16(fp)
10002564:	18c003e4 	muli	r3,r3,15
10002568:	e0c7883a 	add	r3,fp,r3
1000256c:	1885883a 	add	r2,r3,r2
10002570:	10bfc2c3 	ldbu	r2,-245(r2)
10002574:	1080005c 	xori	r2,r2,1
10002578:	10803fcc 	andi	r2,r2,255
1000257c:	10004226 	beq	r2,zero,10002688 <pinkys_move+0x4dc>
10002580:	e0fffc8f 	ldh	r3,-14(fp)
10002584:	e0bffc0f 	ldh	r2,-16(fp)
10002588:	18c003e4 	muli	r3,r3,15
1000258c:	1885883a 	add	r2,r3,r2
10002590:	100490ba 	slli	r2,r2,2
10002594:	e085883a 	add	r2,fp,r2
10002598:	10bee117 	ldw	r2,-1148(r2)
1000259c:	10003a26 	beq	r2,zero,10002688 <pinkys_move+0x4dc>
            distances[nxpos][nypos] = distances[nxpos][nypos] > distances[curr_seek.xpos][curr_seek.ypos]? distances[curr_seek.xpos][curr_seek.ypos]+1 : distances[nxpos][nypos];
100025a0:	e0fffc8f 	ldh	r3,-14(fp)
100025a4:	e0bffc0f 	ldh	r2,-16(fp)
100025a8:	18c003e4 	muli	r3,r3,15
100025ac:	1887883a 	add	r3,r3,r2
100025b0:	008400f4 	movhi	r2,4099
100025b4:	1885883a 	add	r2,r3,r2
100025b8:	11295203 	ldbu	r4,-23224(r2)
100025bc:	e0bee003 	ldbu	r2,-1152(fp)
100025c0:	10c03fcc 	andi	r3,r2,255
100025c4:	e0bee043 	ldbu	r2,-1151(fp)
100025c8:	10803fcc 	andi	r2,r2,255
100025cc:	18c003e4 	muli	r3,r3,15
100025d0:	1887883a 	add	r3,r3,r2
100025d4:	008400f4 	movhi	r2,4099
100025d8:	1885883a 	add	r2,r3,r2
100025dc:	10e95203 	ldbu	r3,-23224(r2)
100025e0:	20803fcc 	andi	r2,r4,255
100025e4:	1080201c 	xori	r2,r2,128
100025e8:	10bfe004 	addi	r2,r2,-128
100025ec:	18c03fcc 	andi	r3,r3,255
100025f0:	18c0201c 	xori	r3,r3,128
100025f4:	18ffe004 	addi	r3,r3,-128
100025f8:	18800c0e 	bge	r3,r2,1000262c <pinkys_move+0x480>
100025fc:	e0bee003 	ldbu	r2,-1152(fp)
10002600:	10c03fcc 	andi	r3,r2,255
10002604:	e0bee043 	ldbu	r2,-1151(fp)
10002608:	10803fcc 	andi	r2,r2,255
1000260c:	18c003e4 	muli	r3,r3,15
10002610:	1887883a 	add	r3,r3,r2
10002614:	008400f4 	movhi	r2,4099
10002618:	1885883a 	add	r2,r3,r2
1000261c:	10a95203 	ldbu	r2,-23224(r2)
10002620:	10800044 	addi	r2,r2,1
10002624:	1007883a 	mov	r3,r2
10002628:	00000706 	br	10002648 <pinkys_move+0x49c>
1000262c:	e0fffc8f 	ldh	r3,-14(fp)
10002630:	e0bffc0f 	ldh	r2,-16(fp)
10002634:	18c003e4 	muli	r3,r3,15
10002638:	1887883a 	add	r3,r3,r2
1000263c:	008400f4 	movhi	r2,4099
10002640:	1885883a 	add	r2,r3,r2
10002644:	10e95203 	ldbu	r3,-23224(r2)
10002648:	e13ffc8f 	ldh	r4,-14(fp)
1000264c:	e0bffc0f 	ldh	r2,-16(fp)
10002650:	210003e4 	muli	r4,r4,15
10002654:	2089883a 	add	r4,r4,r2
10002658:	008400f4 	movhi	r2,4099
1000265c:	2085883a 	add	r2,r4,r2
10002660:	10e95205 	stb	r3,-23224(r2)
            Point npt;
            npt.xpos = (uint8_t)nxpos;
10002664:	e0bffc8b 	ldhu	r2,-14(fp)
10002668:	e0bedf05 	stb	r2,-1156(fp)
            npt.ypos = (uint8_t)nypos;
1000266c:	e0bffc0b 	ldhu	r2,-16(fp)
10002670:	e0bedf45 	stb	r2,-1155(fp)
            dijkstra_fringe_pinky = stack_push(dijkstra_fringe_pinky, &npt);
10002674:	e0bedf04 	addi	r2,fp,-1156
10002678:	100b883a 	mov	r5,r2
1000267c:	e13ffe17 	ldw	r4,-8(fp)
10002680:	00012b40 	call	100012b4 <stack_push>
10002684:	e0bffe15 	stw	r2,-8(fp)
        }

        // Investigate LEFT.
        nxpos = curr_seek.xpos;
10002688:	e0bee003 	ldbu	r2,-1152(fp)
1000268c:	10803fcc 	andi	r2,r2,255
10002690:	e0bffc8d 	sth	r2,-14(fp)
        nypos = curr_seek.ypos;
10002694:	e0bee043 	ldbu	r2,-1151(fp)
10002698:	10803fcc 	andi	r2,r2,255
1000269c:	e0bffc0d 	sth	r2,-16(fp)
        nypos = (nypos - 1 + _BOARD_W) % _BOARD_W;
100026a0:	e0bffc0f 	ldh	r2,-16(fp)
100026a4:	10800384 	addi	r2,r2,14
100026a8:	00c003c4 	movi	r3,15
100026ac:	10c7283a 	div	r3,r2,r3
100026b0:	18c003e4 	muli	r3,r3,15
100026b4:	10c5c83a 	sub	r2,r2,r3
100026b8:	e0bffc0d 	sth	r2,-16(fp)

        if(!dst_finalize[nxpos][nypos]  && tmp_map[nxpos][nypos] != WALL) {
100026bc:	e0fffc8f 	ldh	r3,-14(fp)
100026c0:	e0bffc0f 	ldh	r2,-16(fp)
100026c4:	18c003e4 	muli	r3,r3,15
100026c8:	e0c7883a 	add	r3,fp,r3
100026cc:	1885883a 	add	r2,r3,r2
100026d0:	10bfc2c3 	ldbu	r2,-245(r2)
100026d4:	1080005c 	xori	r2,r2,1
100026d8:	10803fcc 	andi	r2,r2,255
100026dc:	10004226 	beq	r2,zero,100027e8 <pinkys_move+0x63c>
100026e0:	e0fffc8f 	ldh	r3,-14(fp)
100026e4:	e0bffc0f 	ldh	r2,-16(fp)
100026e8:	18c003e4 	muli	r3,r3,15
100026ec:	1885883a 	add	r2,r3,r2
100026f0:	100490ba 	slli	r2,r2,2
100026f4:	e085883a 	add	r2,fp,r2
100026f8:	10bee117 	ldw	r2,-1148(r2)
100026fc:	10003a26 	beq	r2,zero,100027e8 <pinkys_move+0x63c>
            distances[nxpos][nypos] = distances[nxpos][nypos] > distances[curr_seek.xpos][curr_seek.ypos]? distances[curr_seek.xpos][curr_seek.ypos]+1 : distances[nxpos][nypos];
10002700:	e0fffc8f 	ldh	r3,-14(fp)
10002704:	e0bffc0f 	ldh	r2,-16(fp)
10002708:	18c003e4 	muli	r3,r3,15
1000270c:	1887883a 	add	r3,r3,r2
10002710:	008400f4 	movhi	r2,4099
10002714:	1885883a 	add	r2,r3,r2
10002718:	11295203 	ldbu	r4,-23224(r2)
1000271c:	e0bee003 	ldbu	r2,-1152(fp)
10002720:	10c03fcc 	andi	r3,r2,255
10002724:	e0bee043 	ldbu	r2,-1151(fp)
10002728:	10803fcc 	andi	r2,r2,255
1000272c:	18c003e4 	muli	r3,r3,15
10002730:	1887883a 	add	r3,r3,r2
10002734:	008400f4 	movhi	r2,4099
10002738:	1885883a 	add	r2,r3,r2
1000273c:	10e95203 	ldbu	r3,-23224(r2)
10002740:	20803fcc 	andi	r2,r4,255
10002744:	1080201c 	xori	r2,r2,128
10002748:	10bfe004 	addi	r2,r2,-128
1000274c:	18c03fcc 	andi	r3,r3,255
10002750:	18c0201c 	xori	r3,r3,128
10002754:	18ffe004 	addi	r3,r3,-128
10002758:	18800c0e 	bge	r3,r2,1000278c <pinkys_move+0x5e0>
1000275c:	e0bee003 	ldbu	r2,-1152(fp)
10002760:	10c03fcc 	andi	r3,r2,255
10002764:	e0bee043 	ldbu	r2,-1151(fp)
10002768:	10803fcc 	andi	r2,r2,255
1000276c:	18c003e4 	muli	r3,r3,15
10002770:	1887883a 	add	r3,r3,r2
10002774:	008400f4 	movhi	r2,4099
10002778:	1885883a 	add	r2,r3,r2
1000277c:	10a95203 	ldbu	r2,-23224(r2)
10002780:	10800044 	addi	r2,r2,1
10002784:	1007883a 	mov	r3,r2
10002788:	00000706 	br	100027a8 <pinkys_move+0x5fc>
1000278c:	e0fffc8f 	ldh	r3,-14(fp)
10002790:	e0bffc0f 	ldh	r2,-16(fp)
10002794:	18c003e4 	muli	r3,r3,15
10002798:	1887883a 	add	r3,r3,r2
1000279c:	008400f4 	movhi	r2,4099
100027a0:	1885883a 	add	r2,r3,r2
100027a4:	10e95203 	ldbu	r3,-23224(r2)
100027a8:	e13ffc8f 	ldh	r4,-14(fp)
100027ac:	e0bffc0f 	ldh	r2,-16(fp)
100027b0:	210003e4 	muli	r4,r4,15
100027b4:	2089883a 	add	r4,r4,r2
100027b8:	008400f4 	movhi	r2,4099
100027bc:	2085883a 	add	r2,r4,r2
100027c0:	10e95205 	stb	r3,-23224(r2)
            Point npt;
            npt.xpos = (uint8_t)nxpos;
100027c4:	e0bffc8b 	ldhu	r2,-14(fp)
100027c8:	e0bede85 	stb	r2,-1158(fp)
            npt.ypos = (uint8_t)nypos;
100027cc:	e0bffc0b 	ldhu	r2,-16(fp)
100027d0:	e0bedec5 	stb	r2,-1157(fp)
            dijkstra_fringe_pinky = stack_push(dijkstra_fringe_pinky, &npt);
100027d4:	e0bede84 	addi	r2,fp,-1158
100027d8:	100b883a 	mov	r5,r2
100027dc:	e13ffe17 	ldw	r4,-8(fp)
100027e0:	00012b40 	call	100012b4 <stack_push>
100027e4:	e0bffe15 	stw	r2,-8(fp)
        }

        // Investigate RIGHT.
        nxpos = curr_seek.xpos;
100027e8:	e0bee003 	ldbu	r2,-1152(fp)
100027ec:	10803fcc 	andi	r2,r2,255
100027f0:	e0bffc8d 	sth	r2,-14(fp)
        nypos = curr_seek.ypos;
100027f4:	e0bee043 	ldbu	r2,-1151(fp)
100027f8:	10803fcc 	andi	r2,r2,255
100027fc:	e0bffc0d 	sth	r2,-16(fp)
        nypos = (nypos + 1) % _BOARD_W;
10002800:	e0bffc0f 	ldh	r2,-16(fp)
10002804:	10800044 	addi	r2,r2,1
10002808:	00c003c4 	movi	r3,15
1000280c:	10c7283a 	div	r3,r2,r3
10002810:	18c003e4 	muli	r3,r3,15
10002814:	10c5c83a 	sub	r2,r2,r3
10002818:	e0bffc0d 	sth	r2,-16(fp)

        if(!dst_finalize[nxpos][nypos]  && tmp_map[nxpos][nypos] != WALL) {
1000281c:	e0fffc8f 	ldh	r3,-14(fp)
10002820:	e0bffc0f 	ldh	r2,-16(fp)
10002824:	18c003e4 	muli	r3,r3,15
10002828:	e0c7883a 	add	r3,fp,r3
1000282c:	1885883a 	add	r2,r3,r2
10002830:	10bfc2c3 	ldbu	r2,-245(r2)
10002834:	1080005c 	xori	r2,r2,1
10002838:	10803fcc 	andi	r2,r2,255
1000283c:	10004226 	beq	r2,zero,10002948 <pinkys_move+0x79c>
10002840:	e0fffc8f 	ldh	r3,-14(fp)
10002844:	e0bffc0f 	ldh	r2,-16(fp)
10002848:	18c003e4 	muli	r3,r3,15
1000284c:	1885883a 	add	r2,r3,r2
10002850:	100490ba 	slli	r2,r2,2
10002854:	e085883a 	add	r2,fp,r2
10002858:	10bee117 	ldw	r2,-1148(r2)
1000285c:	10003a26 	beq	r2,zero,10002948 <pinkys_move+0x79c>
            distances[nxpos][nypos] = distances[nxpos][nypos] > distances[curr_seek.xpos][curr_seek.ypos]? distances[curr_seek.xpos][curr_seek.ypos]+1 : distances[nxpos][nypos];
10002860:	e0fffc8f 	ldh	r3,-14(fp)
10002864:	e0bffc0f 	ldh	r2,-16(fp)
10002868:	18c003e4 	muli	r3,r3,15
1000286c:	1887883a 	add	r3,r3,r2
10002870:	008400f4 	movhi	r2,4099
10002874:	1885883a 	add	r2,r3,r2
10002878:	11295203 	ldbu	r4,-23224(r2)
1000287c:	e0bee003 	ldbu	r2,-1152(fp)
10002880:	10c03fcc 	andi	r3,r2,255
10002884:	e0bee043 	ldbu	r2,-1151(fp)
10002888:	10803fcc 	andi	r2,r2,255
1000288c:	18c003e4 	muli	r3,r3,15
10002890:	1887883a 	add	r3,r3,r2
10002894:	008400f4 	movhi	r2,4099
10002898:	1885883a 	add	r2,r3,r2
1000289c:	10e95203 	ldbu	r3,-23224(r2)
100028a0:	20803fcc 	andi	r2,r4,255
100028a4:	1080201c 	xori	r2,r2,128
100028a8:	10bfe004 	addi	r2,r2,-128
100028ac:	18c03fcc 	andi	r3,r3,255
100028b0:	18c0201c 	xori	r3,r3,128
100028b4:	18ffe004 	addi	r3,r3,-128
100028b8:	18800c0e 	bge	r3,r2,100028ec <pinkys_move+0x740>
100028bc:	e0bee003 	ldbu	r2,-1152(fp)
100028c0:	10c03fcc 	andi	r3,r2,255
100028c4:	e0bee043 	ldbu	r2,-1151(fp)
100028c8:	10803fcc 	andi	r2,r2,255
100028cc:	18c003e4 	muli	r3,r3,15
100028d0:	1887883a 	add	r3,r3,r2
100028d4:	008400f4 	movhi	r2,4099
100028d8:	1885883a 	add	r2,r3,r2
100028dc:	10a95203 	ldbu	r2,-23224(r2)
100028e0:	10800044 	addi	r2,r2,1
100028e4:	1007883a 	mov	r3,r2
100028e8:	00000706 	br	10002908 <pinkys_move+0x75c>
100028ec:	e0fffc8f 	ldh	r3,-14(fp)
100028f0:	e0bffc0f 	ldh	r2,-16(fp)
100028f4:	18c003e4 	muli	r3,r3,15
100028f8:	1887883a 	add	r3,r3,r2
100028fc:	008400f4 	movhi	r2,4099
10002900:	1885883a 	add	r2,r3,r2
10002904:	10e95203 	ldbu	r3,-23224(r2)
10002908:	e13ffc8f 	ldh	r4,-14(fp)
1000290c:	e0bffc0f 	ldh	r2,-16(fp)
10002910:	210003e4 	muli	r4,r4,15
10002914:	2089883a 	add	r4,r4,r2
10002918:	008400f4 	movhi	r2,4099
1000291c:	2085883a 	add	r2,r4,r2
10002920:	10e95205 	stb	r3,-23224(r2)
            Point npt;
            npt.xpos = (uint8_t)nxpos;
10002924:	e0bffc8b 	ldhu	r2,-14(fp)
10002928:	e0bede05 	stb	r2,-1160(fp)
            npt.ypos = (uint8_t)nypos;
1000292c:	e0bffc0b 	ldhu	r2,-16(fp)
10002930:	e0bede45 	stb	r2,-1159(fp)
            dijkstra_fringe_pinky = stack_push(dijkstra_fringe_pinky, &npt);
10002934:	e0bede04 	addi	r2,fp,-1160
10002938:	100b883a 	mov	r5,r2
1000293c:	e13ffe17 	ldw	r4,-8(fp)
10002940:	00012b40 	call	100012b4 <stack_push>
10002944:	e0bffe15 	stw	r2,-8(fp)
    while(!stack_isempty(dijkstra_fringe_pinky)) {
10002948:	e13ffe17 	ldw	r4,-8(fp)
1000294c:	00014040 	call	10001404 <stack_isempty>
10002950:	1080005c 	xori	r2,r2,1
10002954:	10803fcc 	andi	r2,r2,255
10002958:	103e871e 	bne	r2,zero,10002378 <pinkys_move+0x1cc>
        }
    }

    // Now all tiles are marked with a distance. See where should pinky go.
    uint8_t best_xpos = game->pinky.xpos;
1000295c:	e0bedd17 	ldw	r2,-1164(fp)
10002960:	1080e403 	ldbu	r2,912(r2)
10002964:	e0bffdc5 	stb	r2,-9(fp)
    uint8_t best_ypos = game->pinky.ypos;
10002968:	e0bedd17 	ldw	r2,-1164(fp)
1000296c:	1080e443 	ldbu	r2,913(r2)
10002970:	e0bffd85 	stb	r2,-10(fp)
    uint8_t best_dist = 63;
10002974:	00800fc4 	movi	r2,63
10002978:	e0bffd45 	stb	r2,-11(fp)

    // Investigate UP.
    int16_t nxpos = game->pinky.xpos;
1000297c:	e0bedd17 	ldw	r2,-1164(fp)
10002980:	1080e403 	ldbu	r2,912(r2)
10002984:	10803fcc 	andi	r2,r2,255
10002988:	e0bffb8d 	sth	r2,-18(fp)
    int16_t nypos = game->pinky.ypos;
1000298c:	e0bedd17 	ldw	r2,-1164(fp)
10002990:	1080e443 	ldbu	r2,913(r2)
10002994:	10803fcc 	andi	r2,r2,255
10002998:	e0bffb0d 	sth	r2,-20(fp)
    nxpos = (nxpos - 1 + _BOARD_H) % _BOARD_H;
1000299c:	e0bffb8f 	ldh	r2,-18(fp)
100029a0:	10800384 	addi	r2,r2,14
100029a4:	00c003c4 	movi	r3,15
100029a8:	10c7283a 	div	r3,r2,r3
100029ac:	18c003e4 	muli	r3,r3,15
100029b0:	10c5c83a 	sub	r2,r2,r3
100029b4:	e0bffb8d 	sth	r2,-18(fp)

    if(distances[nxpos][nypos] < best_dist) {
100029b8:	e0fffb8f 	ldh	r3,-18(fp)
100029bc:	e0bffb0f 	ldh	r2,-20(fp)
100029c0:	18c003e4 	muli	r3,r3,15
100029c4:	1887883a 	add	r3,r3,r2
100029c8:	008400f4 	movhi	r2,4099
100029cc:	1885883a 	add	r2,r3,r2
100029d0:	10a95203 	ldbu	r2,-23224(r2)
100029d4:	10c03fcc 	andi	r3,r2,255
100029d8:	18c0201c 	xori	r3,r3,128
100029dc:	18ffe004 	addi	r3,r3,-128
100029e0:	e0bffd43 	ldbu	r2,-11(fp)
100029e4:	18800c0e 	bge	r3,r2,10002a18 <pinkys_move+0x86c>
        best_dist = (uint8_t)distances[nxpos][nypos];
100029e8:	e0fffb8f 	ldh	r3,-18(fp)
100029ec:	e0bffb0f 	ldh	r2,-20(fp)
100029f0:	18c003e4 	muli	r3,r3,15
100029f4:	1887883a 	add	r3,r3,r2
100029f8:	008400f4 	movhi	r2,4099
100029fc:	1885883a 	add	r2,r3,r2
10002a00:	10a95203 	ldbu	r2,-23224(r2)
10002a04:	e0bffd45 	stb	r2,-11(fp)
        best_xpos = (uint8_t)nxpos;
10002a08:	e0bffb8b 	ldhu	r2,-18(fp)
10002a0c:	e0bffdc5 	stb	r2,-9(fp)
        best_ypos = (uint8_t)nypos;
10002a10:	e0bffb0b 	ldhu	r2,-20(fp)
10002a14:	e0bffd85 	stb	r2,-10(fp)
    }

    // Investigate DOWN.
    nxpos = game->pinky.xpos;
10002a18:	e0bedd17 	ldw	r2,-1164(fp)
10002a1c:	1080e403 	ldbu	r2,912(r2)
10002a20:	10803fcc 	andi	r2,r2,255
10002a24:	e0bffb8d 	sth	r2,-18(fp)
    nypos = game->pinky.ypos;
10002a28:	e0bedd17 	ldw	r2,-1164(fp)
10002a2c:	1080e443 	ldbu	r2,913(r2)
10002a30:	10803fcc 	andi	r2,r2,255
10002a34:	e0bffb0d 	sth	r2,-20(fp)
    nxpos = (nxpos + 1) % _BOARD_H;
10002a38:	e0bffb8f 	ldh	r2,-18(fp)
10002a3c:	10800044 	addi	r2,r2,1
10002a40:	00c003c4 	movi	r3,15
10002a44:	10c7283a 	div	r3,r2,r3
10002a48:	18c003e4 	muli	r3,r3,15
10002a4c:	10c5c83a 	sub	r2,r2,r3
10002a50:	e0bffb8d 	sth	r2,-18(fp)

    if(distances[nxpos][nypos] < best_dist) {
10002a54:	e0fffb8f 	ldh	r3,-18(fp)
10002a58:	e0bffb0f 	ldh	r2,-20(fp)
10002a5c:	18c003e4 	muli	r3,r3,15
10002a60:	1887883a 	add	r3,r3,r2
10002a64:	008400f4 	movhi	r2,4099
10002a68:	1885883a 	add	r2,r3,r2
10002a6c:	10a95203 	ldbu	r2,-23224(r2)
10002a70:	10c03fcc 	andi	r3,r2,255
10002a74:	18c0201c 	xori	r3,r3,128
10002a78:	18ffe004 	addi	r3,r3,-128
10002a7c:	e0bffd43 	ldbu	r2,-11(fp)
10002a80:	18800c0e 	bge	r3,r2,10002ab4 <pinkys_move+0x908>
        best_dist = (uint8_t)distances[nxpos][nypos];
10002a84:	e0fffb8f 	ldh	r3,-18(fp)
10002a88:	e0bffb0f 	ldh	r2,-20(fp)
10002a8c:	18c003e4 	muli	r3,r3,15
10002a90:	1887883a 	add	r3,r3,r2
10002a94:	008400f4 	movhi	r2,4099
10002a98:	1885883a 	add	r2,r3,r2
10002a9c:	10a95203 	ldbu	r2,-23224(r2)
10002aa0:	e0bffd45 	stb	r2,-11(fp)
        best_xpos = (uint8_t)nxpos;
10002aa4:	e0bffb8b 	ldhu	r2,-18(fp)
10002aa8:	e0bffdc5 	stb	r2,-9(fp)
        best_ypos = (uint8_t)nypos;
10002aac:	e0bffb0b 	ldhu	r2,-20(fp)
10002ab0:	e0bffd85 	stb	r2,-10(fp)
    }

    // Investigate LEFT.
    nxpos = game->pinky.xpos;
10002ab4:	e0bedd17 	ldw	r2,-1164(fp)
10002ab8:	1080e403 	ldbu	r2,912(r2)
10002abc:	10803fcc 	andi	r2,r2,255
10002ac0:	e0bffb8d 	sth	r2,-18(fp)
    nypos = game->pinky.ypos;
10002ac4:	e0bedd17 	ldw	r2,-1164(fp)
10002ac8:	1080e443 	ldbu	r2,913(r2)
10002acc:	10803fcc 	andi	r2,r2,255
10002ad0:	e0bffb0d 	sth	r2,-20(fp)
    nypos = (nypos - 1 + _BOARD_W) % _BOARD_W;
10002ad4:	e0bffb0f 	ldh	r2,-20(fp)
10002ad8:	10800384 	addi	r2,r2,14
10002adc:	00c003c4 	movi	r3,15
10002ae0:	10c7283a 	div	r3,r2,r3
10002ae4:	18c003e4 	muli	r3,r3,15
10002ae8:	10c5c83a 	sub	r2,r2,r3
10002aec:	e0bffb0d 	sth	r2,-20(fp)

    if(distances[nxpos][nypos] < best_dist) {
10002af0:	e0fffb8f 	ldh	r3,-18(fp)
10002af4:	e0bffb0f 	ldh	r2,-20(fp)
10002af8:	18c003e4 	muli	r3,r3,15
10002afc:	1887883a 	add	r3,r3,r2
10002b00:	008400f4 	movhi	r2,4099
10002b04:	1885883a 	add	r2,r3,r2
10002b08:	10a95203 	ldbu	r2,-23224(r2)
10002b0c:	10c03fcc 	andi	r3,r2,255
10002b10:	18c0201c 	xori	r3,r3,128
10002b14:	18ffe004 	addi	r3,r3,-128
10002b18:	e0bffd43 	ldbu	r2,-11(fp)
10002b1c:	18800c0e 	bge	r3,r2,10002b50 <pinkys_move+0x9a4>
        best_dist = (uint8_t)distances[nxpos][nypos];
10002b20:	e0fffb8f 	ldh	r3,-18(fp)
10002b24:	e0bffb0f 	ldh	r2,-20(fp)
10002b28:	18c003e4 	muli	r3,r3,15
10002b2c:	1887883a 	add	r3,r3,r2
10002b30:	008400f4 	movhi	r2,4099
10002b34:	1885883a 	add	r2,r3,r2
10002b38:	10a95203 	ldbu	r2,-23224(r2)
10002b3c:	e0bffd45 	stb	r2,-11(fp)
        best_xpos = (uint8_t)nxpos;
10002b40:	e0bffb8b 	ldhu	r2,-18(fp)
10002b44:	e0bffdc5 	stb	r2,-9(fp)
        best_ypos = (uint8_t)nypos;
10002b48:	e0bffb0b 	ldhu	r2,-20(fp)
10002b4c:	e0bffd85 	stb	r2,-10(fp)
    }

    // Investigate RIGHT.
    nxpos = game->pinky.xpos;
10002b50:	e0bedd17 	ldw	r2,-1164(fp)
10002b54:	1080e403 	ldbu	r2,912(r2)
10002b58:	10803fcc 	andi	r2,r2,255
10002b5c:	e0bffb8d 	sth	r2,-18(fp)
    nypos = game->pinky.ypos;
10002b60:	e0bedd17 	ldw	r2,-1164(fp)
10002b64:	1080e443 	ldbu	r2,913(r2)
10002b68:	10803fcc 	andi	r2,r2,255
10002b6c:	e0bffb0d 	sth	r2,-20(fp)
    nypos = (nypos + 1) % _BOARD_W;
10002b70:	e0bffb0f 	ldh	r2,-20(fp)
10002b74:	10800044 	addi	r2,r2,1
10002b78:	00c003c4 	movi	r3,15
10002b7c:	10c7283a 	div	r3,r2,r3
10002b80:	18c003e4 	muli	r3,r3,15
10002b84:	10c5c83a 	sub	r2,r2,r3
10002b88:	e0bffb0d 	sth	r2,-20(fp)

    if(distances[nxpos][nypos] < best_dist) {
10002b8c:	e0fffb8f 	ldh	r3,-18(fp)
10002b90:	e0bffb0f 	ldh	r2,-20(fp)
10002b94:	18c003e4 	muli	r3,r3,15
10002b98:	1887883a 	add	r3,r3,r2
10002b9c:	008400f4 	movhi	r2,4099
10002ba0:	1885883a 	add	r2,r3,r2
10002ba4:	10a95203 	ldbu	r2,-23224(r2)
10002ba8:	10c03fcc 	andi	r3,r2,255
10002bac:	18c0201c 	xori	r3,r3,128
10002bb0:	18ffe004 	addi	r3,r3,-128
10002bb4:	e0bffd43 	ldbu	r2,-11(fp)
10002bb8:	18800c0e 	bge	r3,r2,10002bec <pinkys_move+0xa40>
        best_dist = (uint8_t)distances[nxpos][nypos];
10002bbc:	e0fffb8f 	ldh	r3,-18(fp)
10002bc0:	e0bffb0f 	ldh	r2,-20(fp)
10002bc4:	18c003e4 	muli	r3,r3,15
10002bc8:	1887883a 	add	r3,r3,r2
10002bcc:	008400f4 	movhi	r2,4099
10002bd0:	1885883a 	add	r2,r3,r2
10002bd4:	10a95203 	ldbu	r2,-23224(r2)
10002bd8:	e0bffd45 	stb	r2,-11(fp)
        best_xpos = (uint8_t)nxpos;
10002bdc:	e0bffb8b 	ldhu	r2,-18(fp)
10002be0:	e0bffdc5 	stb	r2,-9(fp)
        best_ypos = (uint8_t)nypos;
10002be4:	e0bffb0b 	ldhu	r2,-20(fp)
10002be8:	e0bffd85 	stb	r2,-10(fp)
    }

    if(best_dist != 63) {
10002bec:	e0bffd43 	ldbu	r2,-11(fp)
10002bf0:	10800fe0 	cmpeqi	r2,r2,63
10002bf4:	1000141e 	bne	r2,zero,10002c48 <pinkys_move+0xa9c>
    	addPendingPos(game->pinky.xpos, game->pinky.ypos);
10002bf8:	e0bedd17 	ldw	r2,-1164(fp)
10002bfc:	1080e403 	ldbu	r2,912(r2)
10002c00:	10c03fcc 	andi	r3,r2,255
10002c04:	e0bedd17 	ldw	r2,-1164(fp)
10002c08:	1080e443 	ldbu	r2,913(r2)
10002c0c:	10803fcc 	andi	r2,r2,255
10002c10:	100b883a 	mov	r5,r2
10002c14:	1809883a 	mov	r4,r3
10002c18:	00066a00 	call	100066a0 <addPendingPos>
    	addPendingPos(best_xpos, best_ypos);
10002c1c:	e0bffdc3 	ldbu	r2,-9(fp)
10002c20:	e0fffd83 	ldbu	r3,-10(fp)
10002c24:	180b883a 	mov	r5,r3
10002c28:	1009883a 	mov	r4,r2
10002c2c:	00066a00 	call	100066a0 <addPendingPos>
        game->pinky.xpos = best_xpos;
10002c30:	e0bedd17 	ldw	r2,-1164(fp)
10002c34:	e0fffdc3 	ldbu	r3,-9(fp)
10002c38:	10c0e405 	stb	r3,912(r2)
        game->pinky.ypos = best_ypos;
10002c3c:	e0bedd17 	ldw	r2,-1164(fp)
10002c40:	e0fffd83 	ldbu	r3,-10(fp)
10002c44:	10c0e445 	stb	r3,913(r2)
    }

    recur_free(dijkstra_fringe_pinky);
10002c48:	e13ffe17 	ldw	r4,-8(fp)
10002c4c:	00012680 	call	10001268 <recur_free>
}
10002c50:	e037883a 	mov	sp,fp
10002c54:	dfc00117 	ldw	ra,4(sp)
10002c58:	df000017 	ldw	fp,0(sp)
10002c5c:	dec00204 	addi	sp,sp,8
10002c60:	f800283a 	ret

10002c64 <inkys_move>:

static uint8_t ikdirs[4] = {5,5,5,5};
static uint8_t lastdirection = 0;
// Inky. Patrol an area.
// Use a psuedo-Mattrox distribution.
void inkys_move(Game* game) {
10002c64:	deff1a04 	addi	sp,sp,-920
10002c68:	dfc0e515 	stw	ra,916(sp)
10002c6c:	df00e415 	stw	fp,912(sp)
10002c70:	df00e404 	addi	fp,sp,912
10002c74:	e13f1c15 	stw	r4,-912(fp)
    // Inky's dead.
    if(game->inky.revive_cntdown > 0) {
10002c78:	e0bf1c17 	ldw	r2,-912(fp)
10002c7c:	1080e68b 	ldhu	r2,922(r2)
10002c80:	10bfffcc 	andi	r2,r2,65535
10002c84:	10000726 	beq	r2,zero,10002ca4 <inkys_move+0x40>
        game->inky.revive_cntdown -= 1;
10002c88:	e0bf1c17 	ldw	r2,-912(fp)
10002c8c:	1080e68b 	ldhu	r2,922(r2)
10002c90:	10bfffc4 	addi	r2,r2,-1
10002c94:	1007883a 	mov	r3,r2
10002c98:	e0bf1c17 	ldw	r2,-912(fp)
10002c9c:	10c0e68d 	sth	r3,922(r2)
10002ca0:	0000ca06 	br	10002fcc <inkys_move+0x368>
        return;
    }
    Tile tmp_map[_BOARD_H][_BOARD_W];
    memcpy(tmp_map, game->game_map, sizeof(tmp_map));
10002ca4:	e0ff1c17 	ldw	r3,-912(fp)
10002ca8:	e0bf1d04 	addi	r2,fp,-908
10002cac:	0180e104 	movi	r6,900
10002cb0:	180b883a 	mov	r5,r3
10002cb4:	1009883a 	mov	r4,r2
10002cb8:	0016be00 	call	10016be0 <memcpy>

    // Mark other ghosts as obstacles.
    tmp_map[game->pinky.xpos][game->pinky.ypos] = WALL;
10002cbc:	e0bf1c17 	ldw	r2,-912(fp)
10002cc0:	1080e403 	ldbu	r2,912(r2)
10002cc4:	10c03fcc 	andi	r3,r2,255
10002cc8:	e0bf1c17 	ldw	r2,-912(fp)
10002ccc:	1080e443 	ldbu	r2,913(r2)
10002cd0:	10803fcc 	andi	r2,r2,255
10002cd4:	18c003e4 	muli	r3,r3,15
10002cd8:	1885883a 	add	r2,r3,r2
10002cdc:	100490ba 	slli	r2,r2,2
10002ce0:	e085883a 	add	r2,fp,r2
10002ce4:	103f1d15 	stw	zero,-908(r2)
    tmp_map[game->clyde.xpos][game->clyde.ypos] = WALL;
10002ce8:	e0bf1c17 	ldw	r2,-912(fp)
10002cec:	1080e703 	ldbu	r2,924(r2)
10002cf0:	10c03fcc 	andi	r3,r2,255
10002cf4:	e0bf1c17 	ldw	r2,-912(fp)
10002cf8:	1080e743 	ldbu	r2,925(r2)
10002cfc:	10803fcc 	andi	r2,r2,255
10002d00:	18c003e4 	muli	r3,r3,15
10002d04:	1885883a 	add	r2,r3,r2
10002d08:	100490ba 	slli	r2,r2,2
10002d0c:	e085883a 	add	r2,fp,r2
10002d10:	103f1d15 	stw	zero,-908(r2)
    tmp_map[game->blinky.xpos][game->blinky.ypos] = WALL;
10002d14:	e0bf1c17 	ldw	r2,-912(fp)
10002d18:	1080e283 	ldbu	r2,906(r2)
10002d1c:	10c03fcc 	andi	r3,r2,255
10002d20:	e0bf1c17 	ldw	r2,-912(fp)
10002d24:	1080e2c3 	ldbu	r2,907(r2)
10002d28:	10803fcc 	andi	r2,r2,255
10002d2c:	18c003e4 	muli	r3,r3,15
10002d30:	1885883a 	add	r2,r3,r2
10002d34:	100490ba 	slli	r2,r2,2
10002d38:	e085883a 	add	r2,fp,r2
10002d3c:	103f1d15 	stw	zero,-908(r2)

	// A slightly higher chance to stay the same direction.
	ikdirs[lastdirection] += 3;
10002d40:	d0a7ce03 	ldbu	r2,-24776(gp)
10002d44:	10c03fcc 	andi	r3,r2,255
10002d48:	d0a00004 	addi	r2,gp,-32768
10002d4c:	1885883a 	add	r2,r3,r2
10002d50:	10800003 	ldbu	r2,0(r2)
10002d54:	d0e7ce03 	ldbu	r3,-24776(gp)
10002d58:	18c03fcc 	andi	r3,r3,255
10002d5c:	108000c4 	addi	r2,r2,3
10002d60:	1009883a 	mov	r4,r2
10002d64:	d0a00004 	addi	r2,gp,-32768
10002d68:	1885883a 	add	r2,r3,r2
10002d6c:	11000005 	stb	r4,0(r2)
	uint8_t nextlast;
    uint8_t direction;
    uint8_t trials = 0;
10002d70:	e03fff85 	stb	zero,-2(fp)
    bool success = false;
10002d74:	e03fff45 	stb	zero,-3(fp)

    while(!success && trials < 10) {
10002d78:	00008d06 	br	10002fb0 <inkys_move+0x34c>
        printf("*");
10002d7c:	01000a84 	movi	r4,42
10002d80:	0016fd00 	call	10016fd0 <putchar>
        direction = rand() % (ikdirs[0] + ikdirs[1] + ikdirs[2] + ikdirs[3]);
10002d84:	00170d80 	call	100170d8 <rand>
10002d88:	1007883a 	mov	r3,r2
10002d8c:	d0a00003 	ldbu	r2,-32768(gp)
10002d90:	11003fcc 	andi	r4,r2,255
10002d94:	d0a00043 	ldbu	r2,-32767(gp)
10002d98:	10803fcc 	andi	r2,r2,255
10002d9c:	2089883a 	add	r4,r4,r2
10002da0:	d0a00083 	ldbu	r2,-32766(gp)
10002da4:	10803fcc 	andi	r2,r2,255
10002da8:	2089883a 	add	r4,r4,r2
10002dac:	d0a000c3 	ldbu	r2,-32765(gp)
10002db0:	10803fcc 	andi	r2,r2,255
10002db4:	2085883a 	add	r2,r4,r2
10002db8:	1889283a 	div	r4,r3,r2
10002dbc:	2085383a 	mul	r2,r4,r2
10002dc0:	1885c83a 	sub	r2,r3,r2
10002dc4:	e0bffe85 	stb	r2,-6(fp)
        uint8_t newx = game->inky.xpos;
10002dc8:	e0bf1c17 	ldw	r2,-912(fp)
10002dcc:	1080e583 	ldbu	r2,918(r2)
10002dd0:	e0bfff05 	stb	r2,-4(fp)
        uint8_t newy = game->inky.ypos;
10002dd4:	e0bf1c17 	ldw	r2,-912(fp)
10002dd8:	1080e5c3 	ldbu	r2,919(r2)
10002ddc:	e0bffec5 	stb	r2,-5(fp)

        if(direction < ikdirs[0]) {
10002de0:	d0a00003 	ldbu	r2,-32768(gp)
10002de4:	e0fffe83 	ldbu	r3,-6(fp)
10002de8:	10803fcc 	andi	r2,r2,255
10002dec:	1880082e 	bgeu	r3,r2,10002e10 <inkys_move+0x1ac>
            newy -= 1;
10002df0:	e0bffec3 	ldbu	r2,-5(fp)
10002df4:	10bfffc4 	addi	r2,r2,-1
10002df8:	e0bffec5 	stb	r2,-5(fp)
            ikdirs[0] += 1;
10002dfc:	d0a00003 	ldbu	r2,-32768(gp)
10002e00:	10800044 	addi	r2,r2,1
10002e04:	d0a00005 	stb	r2,-32768(gp)
            nextlast = 0;
10002e08:	e03fffc5 	stb	zero,-1(fp)
10002e0c:	00002b06 	br	10002ebc <inkys_move+0x258>
        } else if (direction < ikdirs[0] + ikdirs[1]) {
10002e10:	e0fffe83 	ldbu	r3,-6(fp)
10002e14:	d0a00003 	ldbu	r2,-32768(gp)
10002e18:	11003fcc 	andi	r4,r2,255
10002e1c:	d0a00043 	ldbu	r2,-32767(gp)
10002e20:	10803fcc 	andi	r2,r2,255
10002e24:	2085883a 	add	r2,r4,r2
10002e28:	1880090e 	bge	r3,r2,10002e50 <inkys_move+0x1ec>
            newy += 1;
10002e2c:	e0bffec3 	ldbu	r2,-5(fp)
10002e30:	10800044 	addi	r2,r2,1
10002e34:	e0bffec5 	stb	r2,-5(fp)
            ikdirs[1] += 1;
10002e38:	d0a00043 	ldbu	r2,-32767(gp)
10002e3c:	10800044 	addi	r2,r2,1
10002e40:	d0a00045 	stb	r2,-32767(gp)
            nextlast = 1;
10002e44:	00800044 	movi	r2,1
10002e48:	e0bfffc5 	stb	r2,-1(fp)
10002e4c:	00001b06 	br	10002ebc <inkys_move+0x258>
        } else if (direction < ikdirs[0] + ikdirs[1] + ikdirs[2]) {
10002e50:	e0fffe83 	ldbu	r3,-6(fp)
10002e54:	d0a00003 	ldbu	r2,-32768(gp)
10002e58:	11003fcc 	andi	r4,r2,255
10002e5c:	d0a00043 	ldbu	r2,-32767(gp)
10002e60:	10803fcc 	andi	r2,r2,255
10002e64:	2089883a 	add	r4,r4,r2
10002e68:	d0a00083 	ldbu	r2,-32766(gp)
10002e6c:	10803fcc 	andi	r2,r2,255
10002e70:	2085883a 	add	r2,r4,r2
10002e74:	1880090e 	bge	r3,r2,10002e9c <inkys_move+0x238>
            newx -= 1;
10002e78:	e0bfff03 	ldbu	r2,-4(fp)
10002e7c:	10bfffc4 	addi	r2,r2,-1
10002e80:	e0bfff05 	stb	r2,-4(fp)
            ikdirs[2] += 1;
10002e84:	d0a00083 	ldbu	r2,-32766(gp)
10002e88:	10800044 	addi	r2,r2,1
10002e8c:	d0a00085 	stb	r2,-32766(gp)
            nextlast = 2;
10002e90:	00800084 	movi	r2,2
10002e94:	e0bfffc5 	stb	r2,-1(fp)
10002e98:	00000806 	br	10002ebc <inkys_move+0x258>
        } else {
            newx += 1;
10002e9c:	e0bfff03 	ldbu	r2,-4(fp)
10002ea0:	10800044 	addi	r2,r2,1
10002ea4:	e0bfff05 	stb	r2,-4(fp)
            ikdirs[3] += 1;
10002ea8:	d0a000c3 	ldbu	r2,-32765(gp)
10002eac:	10800044 	addi	r2,r2,1
10002eb0:	d0a000c5 	stb	r2,-32765(gp)
            nextlast = 3;
10002eb4:	008000c4 	movi	r2,3
10002eb8:	e0bfffc5 	stb	r2,-1(fp)
        }

        newx = (newx + _BOARD_W) % _BOARD_W;
10002ebc:	e0bfff03 	ldbu	r2,-4(fp)
10002ec0:	108003c4 	addi	r2,r2,15
10002ec4:	00c003c4 	movi	r3,15
10002ec8:	10c7283a 	div	r3,r2,r3
10002ecc:	18c003e4 	muli	r3,r3,15
10002ed0:	10c5c83a 	sub	r2,r2,r3
10002ed4:	e0bfff05 	stb	r2,-4(fp)
        newy = (newy + _BOARD_H) % _BOARD_H;
10002ed8:	e0bffec3 	ldbu	r2,-5(fp)
10002edc:	108003c4 	addi	r2,r2,15
10002ee0:	00c003c4 	movi	r3,15
10002ee4:	10c7283a 	div	r3,r2,r3
10002ee8:	18c003e4 	muli	r3,r3,15
10002eec:	10c5c83a 	sub	r2,r2,r3
10002ef0:	e0bffec5 	stb	r2,-5(fp)

        ikdirs[lastdirection] -= 10;
10002ef4:	d0a7ce03 	ldbu	r2,-24776(gp)
10002ef8:	10c03fcc 	andi	r3,r2,255
10002efc:	d0a00004 	addi	r2,gp,-32768
10002f00:	1885883a 	add	r2,r3,r2
10002f04:	10800003 	ldbu	r2,0(r2)
10002f08:	d0e7ce03 	ldbu	r3,-24776(gp)
10002f0c:	18c03fcc 	andi	r3,r3,255
10002f10:	10bffd84 	addi	r2,r2,-10
10002f14:	1009883a 	mov	r4,r2
10002f18:	d0a00004 	addi	r2,gp,-32768
10002f1c:	1885883a 	add	r2,r3,r2
10002f20:	11000005 	stb	r4,0(r2)
        lastdirection = nextlast;
10002f24:	e0bfffc3 	ldbu	r2,-1(fp)
10002f28:	d0a7ce05 	stb	r2,-24776(gp)

        if(tmp_map[newx][newy] != WALL) {
10002f2c:	e0ffff03 	ldbu	r3,-4(fp)
10002f30:	e0bffec3 	ldbu	r2,-5(fp)
10002f34:	18c003e4 	muli	r3,r3,15
10002f38:	1885883a 	add	r2,r3,r2
10002f3c:	100490ba 	slli	r2,r2,2
10002f40:	e085883a 	add	r2,fp,r2
10002f44:	10bf1d17 	ldw	r2,-908(r2)
10002f48:	10001626 	beq	r2,zero,10002fa4 <inkys_move+0x340>
        	addPendingPos(game->inky.xpos, game->inky.ypos);
10002f4c:	e0bf1c17 	ldw	r2,-912(fp)
10002f50:	1080e583 	ldbu	r2,918(r2)
10002f54:	10c03fcc 	andi	r3,r2,255
10002f58:	e0bf1c17 	ldw	r2,-912(fp)
10002f5c:	1080e5c3 	ldbu	r2,919(r2)
10002f60:	10803fcc 	andi	r2,r2,255
10002f64:	100b883a 	mov	r5,r2
10002f68:	1809883a 	mov	r4,r3
10002f6c:	00066a00 	call	100066a0 <addPendingPos>
        	addPendingPos(newx, newy);
10002f70:	e0bfff03 	ldbu	r2,-4(fp)
10002f74:	e0fffec3 	ldbu	r3,-5(fp)
10002f78:	180b883a 	mov	r5,r3
10002f7c:	1009883a 	mov	r4,r2
10002f80:	00066a00 	call	100066a0 <addPendingPos>
            game->inky.xpos = newx;
10002f84:	e0bf1c17 	ldw	r2,-912(fp)
10002f88:	e0ffff03 	ldbu	r3,-4(fp)
10002f8c:	10c0e585 	stb	r3,918(r2)
            game->inky.ypos = newy;
10002f90:	e0bf1c17 	ldw	r2,-912(fp)
10002f94:	e0fffec3 	ldbu	r3,-5(fp)
10002f98:	10c0e5c5 	stb	r3,919(r2)
            success = true;
10002f9c:	00800044 	movi	r2,1
10002fa0:	e0bfff45 	stb	r2,-3(fp)
        }
        trials += 1;
10002fa4:	e0bfff83 	ldbu	r2,-2(fp)
10002fa8:	10800044 	addi	r2,r2,1
10002fac:	e0bfff85 	stb	r2,-2(fp)
    while(!success && trials < 10) {
10002fb0:	e0bfff43 	ldbu	r2,-3(fp)
10002fb4:	1080005c 	xori	r2,r2,1
10002fb8:	10803fcc 	andi	r2,r2,255
10002fbc:	10000326 	beq	r2,zero,10002fcc <inkys_move+0x368>
10002fc0:	e0bfff83 	ldbu	r2,-2(fp)
10002fc4:	108002b0 	cmpltui	r2,r2,10
10002fc8:	103f6c1e 	bne	r2,zero,10002d7c <inkys_move+0x118>
    }
}
10002fcc:	e037883a 	mov	sp,fp
10002fd0:	dfc00117 	ldw	ra,4(sp)
10002fd4:	df000017 	ldw	fp,0(sp)
10002fd8:	dec00204 	addi	sp,sp,8
10002fdc:	f800283a 	ret

10002fe0 <clydes_move>:

// Clyde. Move randomly.
void clydes_move(Game* game) {
10002fe0:	deff1a04 	addi	sp,sp,-920
10002fe4:	dfc0e515 	stw	ra,916(sp)
10002fe8:	df00e415 	stw	fp,912(sp)
10002fec:	df00e404 	addi	fp,sp,912
10002ff0:	e13f1c15 	stw	r4,-912(fp)
    // Clyde's dead.
    if(game->clyde.revive_cntdown > 0) {
10002ff4:	e0bf1c17 	ldw	r2,-912(fp)
10002ff8:	1080e80b 	ldhu	r2,928(r2)
10002ffc:	10bfffcc 	andi	r2,r2,65535
10003000:	10000726 	beq	r2,zero,10003020 <clydes_move+0x40>
        game->clyde.revive_cntdown -= 1;
10003004:	e0bf1c17 	ldw	r2,-912(fp)
10003008:	1080e80b 	ldhu	r2,928(r2)
1000300c:	10bfffc4 	addi	r2,r2,-1
10003010:	1007883a 	mov	r3,r2
10003014:	e0bf1c17 	ldw	r2,-912(fp)
10003018:	10c0e80d 	sth	r3,928(r2)
1000301c:	00009d06 	br	10003294 <clydes_move+0x2b4>
        return;
    }
    Tile tmp_map[_BOARD_H][_BOARD_W];
    memcpy(tmp_map, game->game_map, sizeof(tmp_map));
10003020:	e0ff1c17 	ldw	r3,-912(fp)
10003024:	e0bf1d04 	addi	r2,fp,-908
10003028:	0180e104 	movi	r6,900
1000302c:	180b883a 	mov	r5,r3
10003030:	1009883a 	mov	r4,r2
10003034:	0016be00 	call	10016be0 <memcpy>

    // Mark other ghosts as obstacles.
    tmp_map[game->pinky.xpos][game->inky.ypos] = WALL;
10003038:	e0bf1c17 	ldw	r2,-912(fp)
1000303c:	1080e403 	ldbu	r2,912(r2)
10003040:	10c03fcc 	andi	r3,r2,255
10003044:	e0bf1c17 	ldw	r2,-912(fp)
10003048:	1080e5c3 	ldbu	r2,919(r2)
1000304c:	10803fcc 	andi	r2,r2,255
10003050:	18c003e4 	muli	r3,r3,15
10003054:	1885883a 	add	r2,r3,r2
10003058:	100490ba 	slli	r2,r2,2
1000305c:	e085883a 	add	r2,fp,r2
10003060:	103f1d15 	stw	zero,-908(r2)
    tmp_map[game->inky.xpos][game->inky.ypos] = WALL;
10003064:	e0bf1c17 	ldw	r2,-912(fp)
10003068:	1080e583 	ldbu	r2,918(r2)
1000306c:	10c03fcc 	andi	r3,r2,255
10003070:	e0bf1c17 	ldw	r2,-912(fp)
10003074:	1080e5c3 	ldbu	r2,919(r2)
10003078:	10803fcc 	andi	r2,r2,255
1000307c:	18c003e4 	muli	r3,r3,15
10003080:	1885883a 	add	r2,r3,r2
10003084:	100490ba 	slli	r2,r2,2
10003088:	e085883a 	add	r2,fp,r2
1000308c:	103f1d15 	stw	zero,-908(r2)
    tmp_map[game->blinky.xpos][game->blinky.ypos] = WALL;
10003090:	e0bf1c17 	ldw	r2,-912(fp)
10003094:	1080e283 	ldbu	r2,906(r2)
10003098:	10c03fcc 	andi	r3,r2,255
1000309c:	e0bf1c17 	ldw	r2,-912(fp)
100030a0:	1080e2c3 	ldbu	r2,907(r2)
100030a4:	10803fcc 	andi	r2,r2,255
100030a8:	18c003e4 	muli	r3,r3,15
100030ac:	1885883a 	add	r2,r3,r2
100030b0:	100490ba 	slli	r2,r2,2
100030b4:	e085883a 	add	r2,fp,r2
100030b8:	103f1d15 	stw	zero,-908(r2)
    uint8_t rand_direction;
    uint8_t trials = 0;
100030bc:	e03fffc5 	stb	zero,-1(fp)
    bool success = false;
100030c0:	e03fff85 	stb	zero,-2(fp)
    while(!success && trials < 10) {
100030c4:	00006c06 	br	10003278 <clydes_move+0x298>
        printf("*");
100030c8:	01000a84 	movi	r4,42
100030cc:	0016fd00 	call	10016fd0 <putchar>
        rand_direction = rand() % 4;
100030d0:	00170d80 	call	100170d8 <rand>
100030d4:	1007883a 	mov	r3,r2
100030d8:	00a00034 	movhi	r2,32768
100030dc:	108000c4 	addi	r2,r2,3
100030e0:	1884703a 	and	r2,r3,r2
100030e4:	1000040e 	bge	r2,zero,100030f8 <clydes_move+0x118>
100030e8:	10bfffc4 	addi	r2,r2,-1
100030ec:	00ffff04 	movi	r3,-4
100030f0:	10c4b03a 	or	r2,r2,r3
100030f4:	10800044 	addi	r2,r2,1
100030f8:	e0bffe45 	stb	r2,-7(fp)
        int16_t newx, newy;
        switch(rand_direction) {
100030fc:	e0bffe43 	ldbu	r2,-7(fp)
10003100:	10c00060 	cmpeqi	r3,r2,1
10003104:	18000d1e 	bne	r3,zero,1000313c <clydes_move+0x15c>
10003108:	10c000a0 	cmpeqi	r3,r2,2
1000310c:	1800151e 	bne	r3,zero,10003164 <clydes_move+0x184>
10003110:	10001e1e 	bne	r2,zero,1000318c <clydes_move+0x1ac>
            case 0: {
                newx = game->clyde.xpos + 1;
10003114:	e0bf1c17 	ldw	r2,-912(fp)
10003118:	1080e703 	ldbu	r2,924(r2)
1000311c:	10803fcc 	andi	r2,r2,255
10003120:	10800044 	addi	r2,r2,1
10003124:	e0bfff0d 	sth	r2,-4(fp)
                newy = game->clyde.ypos;
10003128:	e0bf1c17 	ldw	r2,-912(fp)
1000312c:	1080e743 	ldbu	r2,925(r2)
10003130:	10803fcc 	andi	r2,r2,255
10003134:	e0bffe8d 	sth	r2,-6(fp)
                break;
10003138:	00001e06 	br	100031b4 <clydes_move+0x1d4>
            }
            case 1: {
                newx = game->clyde.xpos - 1;
1000313c:	e0bf1c17 	ldw	r2,-912(fp)
10003140:	1080e703 	ldbu	r2,924(r2)
10003144:	10803fcc 	andi	r2,r2,255
10003148:	10bfffc4 	addi	r2,r2,-1
1000314c:	e0bfff0d 	sth	r2,-4(fp)
                newy = game->clyde.ypos;
10003150:	e0bf1c17 	ldw	r2,-912(fp)
10003154:	1080e743 	ldbu	r2,925(r2)
10003158:	10803fcc 	andi	r2,r2,255
1000315c:	e0bffe8d 	sth	r2,-6(fp)
                break;
10003160:	00001406 	br	100031b4 <clydes_move+0x1d4>
            }
            case 2: {
                newx = game->clyde.xpos;
10003164:	e0bf1c17 	ldw	r2,-912(fp)
10003168:	1080e703 	ldbu	r2,924(r2)
1000316c:	10803fcc 	andi	r2,r2,255
10003170:	e0bfff0d 	sth	r2,-4(fp)
                newy = game->clyde.ypos + 1;
10003174:	e0bf1c17 	ldw	r2,-912(fp)
10003178:	1080e743 	ldbu	r2,925(r2)
1000317c:	10803fcc 	andi	r2,r2,255
10003180:	10800044 	addi	r2,r2,1
10003184:	e0bffe8d 	sth	r2,-6(fp)
                break;
10003188:	00000a06 	br	100031b4 <clydes_move+0x1d4>
            }
            default: {
                newx = game->clyde.xpos;
1000318c:	e0bf1c17 	ldw	r2,-912(fp)
10003190:	1080e703 	ldbu	r2,924(r2)
10003194:	10803fcc 	andi	r2,r2,255
10003198:	e0bfff0d 	sth	r2,-4(fp)
                newy = game->clyde.ypos - 1;
1000319c:	e0bf1c17 	ldw	r2,-912(fp)
100031a0:	1080e743 	ldbu	r2,925(r2)
100031a4:	10803fcc 	andi	r2,r2,255
100031a8:	10bfffc4 	addi	r2,r2,-1
100031ac:	e0bffe8d 	sth	r2,-6(fp)
                break;
100031b0:	0001883a 	nop
            }
        }
        newx = (newx + _BOARD_W) % _BOARD_W;
100031b4:	e0bfff0f 	ldh	r2,-4(fp)
100031b8:	108003c4 	addi	r2,r2,15
100031bc:	00c003c4 	movi	r3,15
100031c0:	10c7283a 	div	r3,r2,r3
100031c4:	18c003e4 	muli	r3,r3,15
100031c8:	10c5c83a 	sub	r2,r2,r3
100031cc:	e0bfff0d 	sth	r2,-4(fp)
        newy = (newy + _BOARD_H) % _BOARD_H;
100031d0:	e0bffe8f 	ldh	r2,-6(fp)
100031d4:	108003c4 	addi	r2,r2,15
100031d8:	00c003c4 	movi	r3,15
100031dc:	10c7283a 	div	r3,r2,r3
100031e0:	18c003e4 	muli	r3,r3,15
100031e4:	10c5c83a 	sub	r2,r2,r3
100031e8:	e0bffe8d 	sth	r2,-6(fp)
        if(tmp_map[newx][newy] != WALL) {
100031ec:	e0ffff0f 	ldh	r3,-4(fp)
100031f0:	e0bffe8f 	ldh	r2,-6(fp)
100031f4:	18c003e4 	muli	r3,r3,15
100031f8:	1885883a 	add	r2,r3,r2
100031fc:	100490ba 	slli	r2,r2,2
10003200:	e085883a 	add	r2,fp,r2
10003204:	10bf1d17 	ldw	r2,-908(r2)
10003208:	10001826 	beq	r2,zero,1000326c <clydes_move+0x28c>
            // Add to update queue.
        	addPendingPos(game->clyde.xpos, game->clyde.ypos);
1000320c:	e0bf1c17 	ldw	r2,-912(fp)
10003210:	1080e703 	ldbu	r2,924(r2)
10003214:	10c03fcc 	andi	r3,r2,255
10003218:	e0bf1c17 	ldw	r2,-912(fp)
1000321c:	1080e743 	ldbu	r2,925(r2)
10003220:	10803fcc 	andi	r2,r2,255
10003224:	100b883a 	mov	r5,r2
10003228:	1809883a 	mov	r4,r3
1000322c:	00066a00 	call	100066a0 <addPendingPos>
        	addPendingPos(newx, newy);
10003230:	e0bfff0f 	ldh	r2,-4(fp)
10003234:	e0fffe8f 	ldh	r3,-6(fp)
10003238:	180b883a 	mov	r5,r3
1000323c:	1009883a 	mov	r4,r2
10003240:	00066a00 	call	100066a0 <addPendingPos>
            game->clyde.xpos = (uint8_t)newx;
10003244:	e0bfff0b 	ldhu	r2,-4(fp)
10003248:	1007883a 	mov	r3,r2
1000324c:	e0bf1c17 	ldw	r2,-912(fp)
10003250:	10c0e705 	stb	r3,924(r2)
            game->clyde.ypos = (uint8_t)newy;
10003254:	e0bffe8b 	ldhu	r2,-6(fp)
10003258:	1007883a 	mov	r3,r2
1000325c:	e0bf1c17 	ldw	r2,-912(fp)
10003260:	10c0e745 	stb	r3,925(r2)
            success = true;
10003264:	00800044 	movi	r2,1
10003268:	e0bfff85 	stb	r2,-2(fp)
        }
        trials += 1;
1000326c:	e0bfffc3 	ldbu	r2,-1(fp)
10003270:	10800044 	addi	r2,r2,1
10003274:	e0bfffc5 	stb	r2,-1(fp)
    while(!success && trials < 10) {
10003278:	e0bfff83 	ldbu	r2,-2(fp)
1000327c:	1080005c 	xori	r2,r2,1
10003280:	10803fcc 	andi	r2,r2,255
10003284:	10000326 	beq	r2,zero,10003294 <clydes_move+0x2b4>
10003288:	e0bfffc3 	ldbu	r2,-1(fp)
1000328c:	108002b0 	cmpltui	r2,r2,10
10003290:	103f8d1e 	bne	r2,zero,100030c8 <clydes_move+0xe8>
	}
}
10003294:	e037883a 	mov	sp,fp
10003298:	dfc00117 	ldw	ra,4(sp)
1000329c:	df000017 	ldw	fp,0(sp)
100032a0:	dec00204 	addi	sp,sp,8
100032a4:	f800283a 	ret

100032a8 <blinkyPalette>:

void blinkyPalette() {
100032a8:	defffd04 	addi	sp,sp,-12
100032ac:	dfc00215 	stw	ra,8(sp)
100032b0:	df000115 	stw	fp,4(sp)
100032b4:	df000104 	addi	fp,sp,4
	Palette* binkyPalette;
	binkyPalette = malloc(sizeof(Palette));
100032b8:	01000504 	movi	r4,20
100032bc:	00162580 	call	10016258 <malloc>
100032c0:	e0bfff15 	stw	r2,-4(fp)
	binkyPalette->colors[0] = 0x000000;
100032c4:	e0bfff17 	ldw	r2,-4(fp)
100032c8:	10000115 	stw	zero,4(r2)
	binkyPalette->colors[3] = 0xFF5243;
100032cc:	e0ffff17 	ldw	r3,-4(fp)
100032d0:	00803ff4 	movhi	r2,255
100032d4:	109490c4 	addi	r2,r2,21059
100032d8:	18800415 	stw	r2,16(r3)
	binkyPalette->paletteId = 3;
100032dc:	e0bfff17 	ldw	r2,-4(fp)
100032e0:	00c000c4 	movi	r3,3
100032e4:	10c00015 	stw	r3,0(r2)
	writePalette(binkyPalette);
100032e8:	e13fff17 	ldw	r4,-4(fp)
100032ec:	00050c40 	call	100050c4 <writePalette>
	free(binkyPalette);
100032f0:	e13fff17 	ldw	r4,-4(fp)
100032f4:	00162680 	call	10016268 <free>
}
100032f8:	0001883a 	nop
100032fc:	e037883a 	mov	sp,fp
10003300:	dfc00117 	ldw	ra,4(sp)
10003304:	df000017 	ldw	fp,0(sp)
10003308:	dec00204 	addi	sp,sp,8
1000330c:	f800283a 	ret

10003310 <pinkyPalette>:

void pinkyPalette() {
10003310:	defffd04 	addi	sp,sp,-12
10003314:	dfc00215 	stw	ra,8(sp)
10003318:	df000115 	stw	fp,4(sp)
1000331c:	df000104 	addi	fp,sp,4
	Palette* pinkyPalette;
	pinkyPalette = malloc(sizeof(Palette));
10003320:	01000504 	movi	r4,20
10003324:	00162580 	call	10016258 <malloc>
10003328:	e0bfff15 	stw	r2,-4(fp)
	pinkyPalette->colors[0] = 0x000000;
1000332c:	e0bfff17 	ldw	r2,-4(fp)
10003330:	10000115 	stw	zero,4(r2)
	pinkyPalette->colors[3] = 0xC92CE8;
10003334:	e0ffff17 	ldw	r3,-4(fp)
10003338:	00803274 	movhi	r2,201
1000333c:	108b3a04 	addi	r2,r2,11496
10003340:	18800415 	stw	r2,16(r3)
	pinkyPalette->paletteId = 4;
10003344:	e0bfff17 	ldw	r2,-4(fp)
10003348:	00c00104 	movi	r3,4
1000334c:	10c00015 	stw	r3,0(r2)
	writePalette(pinkyPalette);
10003350:	e13fff17 	ldw	r4,-4(fp)
10003354:	00050c40 	call	100050c4 <writePalette>
	free(pinkyPalette);
10003358:	e13fff17 	ldw	r4,-4(fp)
1000335c:	00162680 	call	10016268 <free>
}
10003360:	0001883a 	nop
10003364:	e037883a 	mov	sp,fp
10003368:	dfc00117 	ldw	ra,4(sp)
1000336c:	df000017 	ldw	fp,0(sp)
10003370:	dec00204 	addi	sp,sp,8
10003374:	f800283a 	ret

10003378 <inkyPalette>:

void inkyPalette(){
10003378:	defffd04 	addi	sp,sp,-12
1000337c:	dfc00215 	stw	ra,8(sp)
10003380:	df000115 	stw	fp,4(sp)
10003384:	df000104 	addi	fp,sp,4
	Palette* inkyPalette;
	inkyPalette = malloc(sizeof(Palette));
10003388:	01000504 	movi	r4,20
1000338c:	00162580 	call	10016258 <malloc>
10003390:	e0bfff15 	stw	r2,-4(fp)
	inkyPalette->colors[0] = 0x000000;
10003394:	e0bfff17 	ldw	r2,-4(fp)
10003398:	10000115 	stw	zero,4(r2)
	inkyPalette->colors[3] = 0x2CD0E8;
1000339c:	e0ffff17 	ldw	r3,-4(fp)
100033a0:	00800b74 	movhi	r2,45
100033a4:	10b43a04 	addi	r2,r2,-12056
100033a8:	18800415 	stw	r2,16(r3)
	inkyPalette->paletteId = 5;
100033ac:	e0bfff17 	ldw	r2,-4(fp)
100033b0:	00c00144 	movi	r3,5
100033b4:	10c00015 	stw	r3,0(r2)
	writePalette(inkyPalette);
100033b8:	e13fff17 	ldw	r4,-4(fp)
100033bc:	00050c40 	call	100050c4 <writePalette>
	free(inkyPalette);
100033c0:	e13fff17 	ldw	r4,-4(fp)
100033c4:	00162680 	call	10016268 <free>
}
100033c8:	0001883a 	nop
100033cc:	e037883a 	mov	sp,fp
100033d0:	dfc00117 	ldw	ra,4(sp)
100033d4:	df000017 	ldw	fp,0(sp)
100033d8:	dec00204 	addi	sp,sp,8
100033dc:	f800283a 	ret

100033e0 <clydePalette>:

void clydePalette() {
100033e0:	defffd04 	addi	sp,sp,-12
100033e4:	dfc00215 	stw	ra,8(sp)
100033e8:	df000115 	stw	fp,4(sp)
100033ec:	df000104 	addi	fp,sp,4
	Palette* clydePalette = malloc(sizeof(Palette));
100033f0:	01000504 	movi	r4,20
100033f4:	00162580 	call	10016258 <malloc>
100033f8:	e0bfff15 	stw	r2,-4(fp)
	clydePalette->colors[0] = 0x000000;
100033fc:	e0bfff17 	ldw	r2,-4(fp)
10003400:	10000115 	stw	zero,4(r2)
	clydePalette->colors[3] = 0xFFB732;
10003404:	e0ffff17 	ldw	r3,-4(fp)
10003408:	00804034 	movhi	r2,256
1000340c:	10adcc84 	addi	r2,r2,-18638
10003410:	18800415 	stw	r2,16(r3)
	clydePalette->paletteId = 6;
10003414:	e0bfff17 	ldw	r2,-4(fp)
10003418:	00c00184 	movi	r3,6
1000341c:	10c00015 	stw	r3,0(r2)
	writePalette(clydePalette);
10003420:	e13fff17 	ldw	r4,-4(fp)
10003424:	00050c40 	call	100050c4 <writePalette>
	free(clydePalette);
10003428:	e13fff17 	ldw	r4,-4(fp)
1000342c:	00162680 	call	10016268 <free>
}
10003430:	0001883a 	nop
10003434:	e037883a 	mov	sp,fp
10003438:	dfc00117 	ldw	ra,4(sp)
1000343c:	df000017 	ldw	fp,0(sp)
10003440:	dec00204 	addi	sp,sp,8
10003444:	f800283a 	ret

10003448 <gbPalette>:

void gbPalette() {
10003448:	defffd04 	addi	sp,sp,-12
1000344c:	dfc00215 	stw	ra,8(sp)
10003450:	df000115 	stw	fp,4(sp)
10003454:	df000104 	addi	fp,sp,4
	Palette* gbPalette = malloc(sizeof(Palette));
10003458:	01000504 	movi	r4,20
1000345c:	00162580 	call	10016258 <malloc>
10003460:	e0bfff15 	stw	r2,-4(fp)
	gbPalette->colors[0] = 0x000000;
10003464:	e0bfff17 	ldw	r2,-4(fp)
10003468:	10000115 	stw	zero,4(r2)
	gbPalette->colors[1] = 0xFFFFFF;	// White
1000346c:	e0ffff17 	ldw	r3,-4(fp)
10003470:	00804034 	movhi	r2,256
10003474:	10bfffc4 	addi	r2,r2,-1
10003478:	18800215 	stw	r2,8(r3)
	gbPalette->colors[2] = 0xFFFFFF;
1000347c:	e0ffff17 	ldw	r3,-4(fp)
10003480:	00804034 	movhi	r2,256
10003484:	10bfffc4 	addi	r2,r2,-1
10003488:	18800315 	stw	r2,12(r3)
	gbPalette->colors[3] = 0xFFFF00;	// Yellow
1000348c:	e0ffff17 	ldw	r3,-4(fp)
10003490:	00804034 	movhi	r2,256
10003494:	10bfc004 	addi	r2,r2,-256
10003498:	18800415 	stw	r2,16(r3)
	gbPalette->paletteId = 1;
1000349c:	e0bfff17 	ldw	r2,-4(fp)
100034a0:	00c00044 	movi	r3,1
100034a4:	10c00015 	stw	r3,0(r2)
	writePalette(gbPalette);
100034a8:	e13fff17 	ldw	r4,-4(fp)
100034ac:	00050c40 	call	100050c4 <writePalette>
	free(gbPalette);
100034b0:	e13fff17 	ldw	r4,-4(fp)
100034b4:	00162680 	call	10016268 <free>
}
100034b8:	0001883a 	nop
100034bc:	e037883a 	mov	sp,fp
100034c0:	dfc00117 	ldw	ra,4(sp)
100034c4:	df000017 	ldw	fp,0(sp)
100034c8:	dec00204 	addi	sp,sp,8
100034cc:	f800283a 	ret

100034d0 <textPalette>:

void textPalette() {
100034d0:	defffd04 	addi	sp,sp,-12
100034d4:	dfc00215 	stw	ra,8(sp)
100034d8:	df000115 	stw	fp,4(sp)
100034dc:	df000104 	addi	fp,sp,4
	Palette* textPalette = malloc(sizeof(Palette));
100034e0:	01000504 	movi	r4,20
100034e4:	00162580 	call	10016258 <malloc>
100034e8:	e0bfff15 	stw	r2,-4(fp)
	textPalette->colors[0] = 0x000000;
100034ec:	e0bfff17 	ldw	r2,-4(fp)
100034f0:	10000115 	stw	zero,4(r2)
	textPalette->colors[1] = 0xFFFFFF;
100034f4:	e0ffff17 	ldw	r3,-4(fp)
100034f8:	00804034 	movhi	r2,256
100034fc:	10bfffc4 	addi	r2,r2,-1
10003500:	18800215 	stw	r2,8(r3)
	textPalette->colors[2] = 0xFFFFFF;
10003504:	e0ffff17 	ldw	r3,-4(fp)
10003508:	00804034 	movhi	r2,256
1000350c:	10bfffc4 	addi	r2,r2,-1
10003510:	18800315 	stw	r2,12(r3)
	textPalette->colors[3] = 0xFFFFFF;
10003514:	e0ffff17 	ldw	r3,-4(fp)
10003518:	00804034 	movhi	r2,256
1000351c:	10bfffc4 	addi	r2,r2,-1
10003520:	18800415 	stw	r2,16(r3)
	textPalette->paletteId = 0;
10003524:	e0bfff17 	ldw	r2,-4(fp)
10003528:	10000015 	stw	zero,0(r2)
	writePalette(textPalette);
1000352c:	e13fff17 	ldw	r4,-4(fp)
10003530:	00050c40 	call	100050c4 <writePalette>
	free(textPalette);
10003534:	e13fff17 	ldw	r4,-4(fp)
10003538:	00162680 	call	10016268 <free>
}
1000353c:	0001883a 	nop
10003540:	e037883a 	mov	sp,fp
10003544:	dfc00117 	ldw	ra,4(sp)
10003548:	df000017 	ldw	fp,0(sp)
1000354c:	dec00204 	addi	sp,sp,8
10003550:	f800283a 	ret

10003554 <wallPalette>:

void wallPalette() {
10003554:	defffd04 	addi	sp,sp,-12
10003558:	dfc00215 	stw	ra,8(sp)
1000355c:	df000115 	stw	fp,4(sp)
10003560:	df000104 	addi	fp,sp,4
	Palette* wallPalette = malloc(sizeof(Palette));
10003564:	01000504 	movi	r4,20
10003568:	00162580 	call	10016258 <malloc>
1000356c:	e0bfff15 	stw	r2,-4(fp)
	wallPalette->colors[0] = 0x0000FF;
10003570:	e0bfff17 	ldw	r2,-4(fp)
10003574:	00c03fc4 	movi	r3,255
10003578:	10c00115 	stw	r3,4(r2)
	wallPalette->colors[1] = 0x000000;
1000357c:	e0bfff17 	ldw	r2,-4(fp)
10003580:	10000215 	stw	zero,8(r2)
	wallPalette->colors[2] = 0x000000;
10003584:	e0bfff17 	ldw	r2,-4(fp)
10003588:	10000315 	stw	zero,12(r2)
	wallPalette->colors[3] = 0x000000;
1000358c:	e0bfff17 	ldw	r2,-4(fp)
10003590:	10000415 	stw	zero,16(r2)
	wallPalette->paletteId = 2;
10003594:	e0bfff17 	ldw	r2,-4(fp)
10003598:	00c00084 	movi	r3,2
1000359c:	10c00015 	stw	r3,0(r2)
	writePalette(wallPalette);
100035a0:	e13fff17 	ldw	r4,-4(fp)
100035a4:	00050c40 	call	100050c4 <writePalette>
	free(wallPalette);
100035a8:	e13fff17 	ldw	r4,-4(fp)
100035ac:	00162680 	call	10016268 <free>
}
100035b0:	0001883a 	nop
100035b4:	e037883a 	mov	sp,fp
100035b8:	dfc00117 	ldw	ra,4(sp)
100035bc:	df000017 	ldw	fp,0(sp)
100035c0:	dec00204 	addi	sp,sp,8
100035c4:	f800283a 	ret

100035c8 <initScreen>:
// This function initializes the screen.
void initScreen() {
100035c8:	deff5c04 	addi	sp,sp,-656
100035cc:	dfc0a315 	stw	ra,652(sp)
100035d0:	df00a215 	stw	fp,648(sp)
100035d4:	df00a204 	addi	fp,sp,648
	textPalette();
100035d8:	00034d00 	call	100034d0 <textPalette>
	clearScreen();
100035dc:	00054540 	call	10005454 <clearScreen>

	writeText(0,0,"Score",0);
100035e0:	000f883a 	mov	r7,zero
100035e4:	018400b4 	movhi	r6,4098
100035e8:	3193f604 	addi	r6,r6,20440
100035ec:	000b883a 	mov	r5,zero
100035f0:	0009883a 	mov	r4,zero
100035f4:	00053bc0 	call	100053bc <writeText>
	writeText(2,1,"000000",0);
100035f8:	000f883a 	mov	r7,zero
100035fc:	018400b4 	movhi	r6,4098
10003600:	3193f804 	addi	r6,r6,20448
10003604:	01400044 	movi	r5,1
10003608:	01000084 	movi	r4,2
1000360c:	00053bc0 	call	100053bc <writeText>
	writeText(0,2,"HighScore",0);
10003610:	000f883a 	mov	r7,zero
10003614:	018400b4 	movhi	r6,4098
10003618:	3193fa04 	addi	r6,r6,20456
1000361c:	01400084 	movi	r5,2
10003620:	0009883a 	mov	r4,zero
10003624:	00053bc0 	call	100053bc <writeText>
	writeText(2,3,"000000",0);
10003628:	000f883a 	mov	r7,zero
1000362c:	018400b4 	movhi	r6,4098
10003630:	3193f804 	addi	r6,r6,20448
10003634:	014000c4 	movi	r5,3
10003638:	01000084 	movi	r4,2
1000363c:	00053bc0 	call	100053bc <writeText>

	gbPalette();
10003640:	00034480 	call	10003448 <gbPalette>
	wallPalette();
10003644:	00035540 	call	10003554 <wallPalette>

	blinkyPalette();
10003648:	00032a80 	call	100032a8 <blinkyPalette>
	inkyPalette();
1000364c:	00033780 	call	10003378 <inkyPalette>
	pinkyPalette();
10003650:	00033100 	call	10003310 <pinkyPalette>
	clydePalette();
10003654:	00033e00 	call	100033e0 <clydePalette>

	Sprite candy_left;
	Sprite candy_right;
	Sprite scandy_left;
	Sprite scandy_right;
	candy_left.sprite_id = 1;
10003658:	00800044 	movi	r2,1
1000365c:	e0bff78d 	sth	r2,-34(fp)
	candy_right.sprite_id = 2;
10003660:	00800084 	movi	r2,2
10003664:	e0bfef0d 	sth	r2,-68(fp)
	scandy_left.sprite_id = 3;
10003668:	008000c4 	movi	r2,3
1000366c:	e0bfe68d 	sth	r2,-102(fp)
	scandy_right.sprite_id = 4;
10003670:	00800104 	movi	r2,4
10003674:	e0bfde0d 	sth	r2,-136(fp)
	char candy_matl[16][8] = {
10003678:	e0ffbe04 	addi	r3,fp,-264
1000367c:	008400b4 	movhi	r2,4098
10003680:	1093fc84 	addi	r2,r2,20466
10003684:	01002004 	movi	r4,128
10003688:	200d883a 	mov	r6,r4
1000368c:	100b883a 	mov	r5,r2
10003690:	1809883a 	mov	r4,r3
10003694:	0016be00 	call	10016be0 <memcpy>
			"        ",
			"        ",
			"        ",
			"        ",
	};
	char candy_matr[16][8] = {
10003698:	e0ff9e04 	addi	r3,fp,-392
1000369c:	008400b4 	movhi	r2,4098
100036a0:	10941c84 	addi	r2,r2,20594
100036a4:	01002004 	movi	r4,128
100036a8:	200d883a 	mov	r6,r4
100036ac:	100b883a 	mov	r5,r2
100036b0:	1809883a 	mov	r4,r3
100036b4:	0016be00 	call	10016be0 <memcpy>
			"        ",
			"        ",
			"        ",
			"        ",
	};
	char scandy_matl[16][8] = {
100036b8:	e0ff7e04 	addi	r3,fp,-520
100036bc:	008400b4 	movhi	r2,4098
100036c0:	10943c84 	addi	r2,r2,20722
100036c4:	01002004 	movi	r4,128
100036c8:	200d883a 	mov	r6,r4
100036cc:	100b883a 	mov	r5,r2
100036d0:	1809883a 	mov	r4,r3
100036d4:	0016be00 	call	10016be0 <memcpy>
			"      *@",
			"       *",
			"        ",
			"        ",
	};
	char scandy_matr[16][8] = {
100036d8:	e0ff5e04 	addi	r3,fp,-648
100036dc:	008400b4 	movhi	r2,4098
100036e0:	10945c84 	addi	r2,r2,20850
100036e4:	01002004 	movi	r4,128
100036e8:	200d883a 	mov	r6,r4
100036ec:	100b883a 	mov	r5,r2
100036f0:	1809883a 	mov	r4,r3
100036f4:	0016be00 	call	10016be0 <memcpy>
			"@*      ",
			"*       ",
			"        ",
			"        ",
	};
	parseSprite(&candy_left, candy_matl);
100036f8:	e0ffbe04 	addi	r3,fp,-264
100036fc:	e0bff784 	addi	r2,fp,-34
10003700:	180b883a 	mov	r5,r3
10003704:	1009883a 	mov	r4,r2
10003708:	00052700 	call	10005270 <parseSprite>
	writeSprite(&candy_left);
1000370c:	e0bff784 	addi	r2,fp,-34
10003710:	1009883a 	mov	r4,r2
10003714:	00052e80 	call	100052e8 <writeSprite>
	parseSprite(&candy_right, candy_matr);
10003718:	e0ff9e04 	addi	r3,fp,-392
1000371c:	e0bfef04 	addi	r2,fp,-68
10003720:	180b883a 	mov	r5,r3
10003724:	1009883a 	mov	r4,r2
10003728:	00052700 	call	10005270 <parseSprite>
	writeSprite(&candy_right);
1000372c:	e0bfef04 	addi	r2,fp,-68
10003730:	1009883a 	mov	r4,r2
10003734:	00052e80 	call	100052e8 <writeSprite>
	parseSprite(&scandy_left, scandy_matl);
10003738:	e0ff7e04 	addi	r3,fp,-520
1000373c:	e0bfe684 	addi	r2,fp,-102
10003740:	180b883a 	mov	r5,r3
10003744:	1009883a 	mov	r4,r2
10003748:	00052700 	call	10005270 <parseSprite>
	writeSprite(&scandy_left);
1000374c:	e0bfe684 	addi	r2,fp,-102
10003750:	1009883a 	mov	r4,r2
10003754:	00052e80 	call	100052e8 <writeSprite>
	parseSprite(&scandy_right, scandy_matr);
10003758:	e0ff5e04 	addi	r3,fp,-648
1000375c:	e0bfde04 	addi	r2,fp,-136
10003760:	180b883a 	mov	r5,r3
10003764:	1009883a 	mov	r4,r2
10003768:	00052700 	call	10005270 <parseSprite>
	writeSprite(&scandy_right);
1000376c:	e0bfde04 	addi	r2,fp,-136
10003770:	1009883a 	mov	r4,r2
10003774:	00052e80 	call	100052e8 <writeSprite>
}
10003778:	0001883a 	nop
1000377c:	e037883a 	mov	sp,fp
10003780:	dfc00117 	ldw	ra,4(sp)
10003784:	df000017 	ldw	fp,0(sp)
10003788:	dec00204 	addi	sp,sp,8
1000378c:	f800283a 	ret

10003790 <drawBoard>:

// Draw the game board.
void drawBoard(Game* game) {
10003790:	defff904 	addi	sp,sp,-28
10003794:	dfc00615 	stw	ra,24(sp)
10003798:	df000515 	stw	fp,20(sp)
1000379c:	df000504 	addi	fp,sp,20
100037a0:	e13ffb15 	stw	r4,-20(fp)
	// Draw the board.
	for(int i=0;i<_BOARD_W;i+=1) {
100037a4:	e03fff15 	stw	zero,-4(fp)
100037a8:	00009006 	br	100039ec <drawBoard+0x25c>
		for(int j=0;j<_BOARD_H;j+=1) {
100037ac:	e03ffe15 	stw	zero,-8(fp)
100037b0:	00008806 	br	100039d4 <drawBoard+0x244>
			if(i==game->blinky.xpos && j==game->blinky.ypos) {
100037b4:	e0bffb17 	ldw	r2,-20(fp)
100037b8:	1080e283 	ldbu	r2,906(r2)
100037bc:	10803fcc 	andi	r2,r2,255
100037c0:	e0ffff17 	ldw	r3,-4(fp)
100037c4:	1880051e 	bne	r3,r2,100037dc <drawBoard+0x4c>
100037c8:	e0bffb17 	ldw	r2,-20(fp)
100037cc:	1080e2c3 	ldbu	r2,907(r2)
100037d0:	10803fcc 	andi	r2,r2,255
100037d4:	e0fffe17 	ldw	r3,-8(fp)
100037d8:	18807226 	beq	r3,r2,100039a4 <drawBoard+0x214>
				continue;
			} else if(i==game->pinky.xpos && j==game->pinky.ypos) {
100037dc:	e0bffb17 	ldw	r2,-20(fp)
100037e0:	1080e403 	ldbu	r2,912(r2)
100037e4:	10803fcc 	andi	r2,r2,255
100037e8:	e0ffff17 	ldw	r3,-4(fp)
100037ec:	1880051e 	bne	r3,r2,10003804 <drawBoard+0x74>
100037f0:	e0bffb17 	ldw	r2,-20(fp)
100037f4:	1080e443 	ldbu	r2,913(r2)
100037f8:	10803fcc 	andi	r2,r2,255
100037fc:	e0fffe17 	ldw	r3,-8(fp)
10003800:	18806a26 	beq	r3,r2,100039ac <drawBoard+0x21c>
				continue;
			} else if(i==game->inky.xpos && j==game->inky.ypos) {
10003804:	e0bffb17 	ldw	r2,-20(fp)
10003808:	1080e583 	ldbu	r2,918(r2)
1000380c:	10803fcc 	andi	r2,r2,255
10003810:	e0ffff17 	ldw	r3,-4(fp)
10003814:	1880051e 	bne	r3,r2,1000382c <drawBoard+0x9c>
10003818:	e0bffb17 	ldw	r2,-20(fp)
1000381c:	1080e5c3 	ldbu	r2,919(r2)
10003820:	10803fcc 	andi	r2,r2,255
10003824:	e0fffe17 	ldw	r3,-8(fp)
10003828:	18806226 	beq	r3,r2,100039b4 <drawBoard+0x224>
				continue;
			} else if(i==game->clyde.xpos && j==game->clyde.ypos) {
1000382c:	e0bffb17 	ldw	r2,-20(fp)
10003830:	1080e703 	ldbu	r2,924(r2)
10003834:	10803fcc 	andi	r2,r2,255
10003838:	e0ffff17 	ldw	r3,-4(fp)
1000383c:	1880051e 	bne	r3,r2,10003854 <drawBoard+0xc4>
10003840:	e0bffb17 	ldw	r2,-20(fp)
10003844:	1080e743 	ldbu	r2,925(r2)
10003848:	10803fcc 	andi	r2,r2,255
1000384c:	e0fffe17 	ldw	r3,-8(fp)
10003850:	18805a26 	beq	r3,r2,100039bc <drawBoard+0x22c>
				continue;
			} else if(i==game->player.xpos && j==game->player.ypos) {
10003854:	e0bffb17 	ldw	r2,-20(fp)
10003858:	1080e103 	ldbu	r2,900(r2)
1000385c:	10803fcc 	andi	r2,r2,255
10003860:	e0ffff17 	ldw	r3,-4(fp)
10003864:	1880051e 	bne	r3,r2,1000387c <drawBoard+0xec>
10003868:	e0bffb17 	ldw	r2,-20(fp)
1000386c:	1080e143 	ldbu	r2,901(r2)
10003870:	10803fcc 	andi	r2,r2,255
10003874:	e0fffe17 	ldw	r3,-8(fp)
10003878:	18805226 	beq	r3,r2,100039c4 <drawBoard+0x234>
				continue;
			}
			int curr_tile_xb = j*2+20;
1000387c:	e0bffe17 	ldw	r2,-8(fp)
10003880:	10800284 	addi	r2,r2,10
10003884:	1085883a 	add	r2,r2,r2
10003888:	e0bffd15 	stw	r2,-12(fp)
			int curr_tile_y = i;
1000388c:	e0bfff17 	ldw	r2,-4(fp)
10003890:	e0bffc15 	stw	r2,-16(fp)
			switch(game->game_map[i][j]) {
10003894:	e0fffb17 	ldw	r3,-20(fp)
10003898:	e0bfff17 	ldw	r2,-4(fp)
1000389c:	110003e4 	muli	r4,r2,15
100038a0:	e0bffe17 	ldw	r2,-8(fp)
100038a4:	2085883a 	add	r2,r4,r2
100038a8:	100490ba 	slli	r2,r2,2
100038ac:	1885883a 	add	r2,r3,r2
100038b0:	10800017 	ldw	r2,0(r2)
100038b4:	10c00060 	cmpeqi	r3,r2,1
100038b8:	1800131e 	bne	r3,zero,10003908 <drawBoard+0x178>
100038bc:	10000526 	beq	r2,zero,100038d4 <drawBoard+0x144>
100038c0:	10c000a0 	cmpeqi	r3,r2,2
100038c4:	18002a1e 	bne	r3,zero,10003970 <drawBoard+0x1e0>
100038c8:	108000e0 	cmpeqi	r2,r2,3
100038cc:	10001b1e 	bne	r2,zero,1000393c <drawBoard+0x1ac>
100038d0:	00003d06 	br	100039c8 <drawBoard+0x238>
				case WALL: {
					drawTile(curr_tile_xb, curr_tile_y, 2, 0);
100038d4:	000f883a 	mov	r7,zero
100038d8:	01800084 	movi	r6,2
100038dc:	e17ffc17 	ldw	r5,-16(fp)
100038e0:	e13ffd17 	ldw	r4,-12(fp)
100038e4:	0004f980 	call	10004f98 <drawTile>
					drawTile(curr_tile_xb+1, curr_tile_y, 2, 0);
100038e8:	e0bffd17 	ldw	r2,-12(fp)
100038ec:	10800044 	addi	r2,r2,1
100038f0:	000f883a 	mov	r7,zero
100038f4:	01800084 	movi	r6,2
100038f8:	e17ffc17 	ldw	r5,-16(fp)
100038fc:	1009883a 	mov	r4,r2
10003900:	0004f980 	call	10004f98 <drawTile>
					break;
10003904:	00003006 	br	100039c8 <drawBoard+0x238>
				}
				case CANDY: {
					drawTile(curr_tile_xb, curr_tile_y, 1, 129);
10003908:	01c02044 	movi	r7,129
1000390c:	01800044 	movi	r6,1
10003910:	e17ffc17 	ldw	r5,-16(fp)
10003914:	e13ffd17 	ldw	r4,-12(fp)
10003918:	0004f980 	call	10004f98 <drawTile>
					drawTile(curr_tile_xb+1, curr_tile_y, 1, 130);
1000391c:	e0bffd17 	ldw	r2,-12(fp)
10003920:	10800044 	addi	r2,r2,1
10003924:	01c02084 	movi	r7,130
10003928:	01800044 	movi	r6,1
1000392c:	e17ffc17 	ldw	r5,-16(fp)
10003930:	1009883a 	mov	r4,r2
10003934:	0004f980 	call	10004f98 <drawTile>
					break;
10003938:	00002306 	br	100039c8 <drawBoard+0x238>
				}
				case WAY: {
					drawTile(curr_tile_xb,curr_tile_y, 1, 0);
1000393c:	000f883a 	mov	r7,zero
10003940:	01800044 	movi	r6,1
10003944:	e17ffc17 	ldw	r5,-16(fp)
10003948:	e13ffd17 	ldw	r4,-12(fp)
1000394c:	0004f980 	call	10004f98 <drawTile>
					drawTile(curr_tile_xb+1,curr_tile_y, 1, 0);
10003950:	e0bffd17 	ldw	r2,-12(fp)
10003954:	10800044 	addi	r2,r2,1
10003958:	000f883a 	mov	r7,zero
1000395c:	01800044 	movi	r6,1
10003960:	e17ffc17 	ldw	r5,-16(fp)
10003964:	1009883a 	mov	r4,r2
10003968:	0004f980 	call	10004f98 <drawTile>
					break;
1000396c:	00001606 	br	100039c8 <drawBoard+0x238>
				}
				case SUPER: {
					drawTile(curr_tile_xb, curr_tile_y, 1, 131);
10003970:	01c020c4 	movi	r7,131
10003974:	01800044 	movi	r6,1
10003978:	e17ffc17 	ldw	r5,-16(fp)
1000397c:	e13ffd17 	ldw	r4,-12(fp)
10003980:	0004f980 	call	10004f98 <drawTile>
					drawTile(curr_tile_xb+1, curr_tile_y, 1, 132);
10003984:	e0bffd17 	ldw	r2,-12(fp)
10003988:	10800044 	addi	r2,r2,1
1000398c:	01c02104 	movi	r7,132
10003990:	01800044 	movi	r6,1
10003994:	e17ffc17 	ldw	r5,-16(fp)
10003998:	1009883a 	mov	r4,r2
1000399c:	0004f980 	call	10004f98 <drawTile>
					break;
100039a0:	00000906 	br	100039c8 <drawBoard+0x238>
				continue;
100039a4:	0001883a 	nop
100039a8:	00000706 	br	100039c8 <drawBoard+0x238>
				continue;
100039ac:	0001883a 	nop
100039b0:	00000506 	br	100039c8 <drawBoard+0x238>
				continue;
100039b4:	0001883a 	nop
100039b8:	00000306 	br	100039c8 <drawBoard+0x238>
				continue;
100039bc:	0001883a 	nop
100039c0:	00000106 	br	100039c8 <drawBoard+0x238>
				continue;
100039c4:	0001883a 	nop
		for(int j=0;j<_BOARD_H;j+=1) {
100039c8:	e0bffe17 	ldw	r2,-8(fp)
100039cc:	10800044 	addi	r2,r2,1
100039d0:	e0bffe15 	stw	r2,-8(fp)
100039d4:	e0bffe17 	ldw	r2,-8(fp)
100039d8:	108003d0 	cmplti	r2,r2,15
100039dc:	103f751e 	bne	r2,zero,100037b4 <drawBoard+0x24>
	for(int i=0;i<_BOARD_W;i+=1) {
100039e0:	e0bfff17 	ldw	r2,-4(fp)
100039e4:	10800044 	addi	r2,r2,1
100039e8:	e0bfff15 	stw	r2,-4(fp)
100039ec:	e0bfff17 	ldw	r2,-4(fp)
100039f0:	108003d0 	cmplti	r2,r2,15
100039f4:	103f6d1e 	bne	r2,zero,100037ac <drawBoard+0x1c>
			}
		}
	}

	// Draw player
	drawTile(game->player.ypos*2+20, game->player.xpos, 1, 1);
100039f8:	e0bffb17 	ldw	r2,-20(fp)
100039fc:	1080e143 	ldbu	r2,901(r2)
10003a00:	10803fcc 	andi	r2,r2,255
10003a04:	10800284 	addi	r2,r2,10
10003a08:	1085883a 	add	r2,r2,r2
10003a0c:	1007883a 	mov	r3,r2
10003a10:	e0bffb17 	ldw	r2,-20(fp)
10003a14:	1080e103 	ldbu	r2,900(r2)
10003a18:	10803fcc 	andi	r2,r2,255
10003a1c:	01c00044 	movi	r7,1
10003a20:	01800044 	movi	r6,1
10003a24:	100b883a 	mov	r5,r2
10003a28:	1809883a 	mov	r4,r3
10003a2c:	0004f980 	call	10004f98 <drawTile>
	drawTile(game->player.ypos*2+21, game->player.xpos, 1, 2);
10003a30:	e0bffb17 	ldw	r2,-20(fp)
10003a34:	1080e143 	ldbu	r2,901(r2)
10003a38:	10803fcc 	andi	r2,r2,255
10003a3c:	1085883a 	add	r2,r2,r2
10003a40:	10c00544 	addi	r3,r2,21
10003a44:	e0bffb17 	ldw	r2,-20(fp)
10003a48:	1080e103 	ldbu	r2,900(r2)
10003a4c:	10803fcc 	andi	r2,r2,255
10003a50:	01c00084 	movi	r7,2
10003a54:	01800044 	movi	r6,1
10003a58:	100b883a 	mov	r5,r2
10003a5c:	1809883a 	mov	r4,r3
10003a60:	0004f980 	call	10004f98 <drawTile>
	// Draw ghosts.
	drawTile(game->blinky.ypos*2+20, game->blinky.xpos, 3, 3);
10003a64:	e0bffb17 	ldw	r2,-20(fp)
10003a68:	1080e2c3 	ldbu	r2,907(r2)
10003a6c:	10803fcc 	andi	r2,r2,255
10003a70:	10800284 	addi	r2,r2,10
10003a74:	1085883a 	add	r2,r2,r2
10003a78:	1007883a 	mov	r3,r2
10003a7c:	e0bffb17 	ldw	r2,-20(fp)
10003a80:	1080e283 	ldbu	r2,906(r2)
10003a84:	10803fcc 	andi	r2,r2,255
10003a88:	01c000c4 	movi	r7,3
10003a8c:	018000c4 	movi	r6,3
10003a90:	100b883a 	mov	r5,r2
10003a94:	1809883a 	mov	r4,r3
10003a98:	0004f980 	call	10004f98 <drawTile>
	drawTile(game->blinky.ypos*2+21, game->blinky.xpos, 3, 4);
10003a9c:	e0bffb17 	ldw	r2,-20(fp)
10003aa0:	1080e2c3 	ldbu	r2,907(r2)
10003aa4:	10803fcc 	andi	r2,r2,255
10003aa8:	1085883a 	add	r2,r2,r2
10003aac:	10c00544 	addi	r3,r2,21
10003ab0:	e0bffb17 	ldw	r2,-20(fp)
10003ab4:	1080e283 	ldbu	r2,906(r2)
10003ab8:	10803fcc 	andi	r2,r2,255
10003abc:	01c00104 	movi	r7,4
10003ac0:	018000c4 	movi	r6,3
10003ac4:	100b883a 	mov	r5,r2
10003ac8:	1809883a 	mov	r4,r3
10003acc:	0004f980 	call	10004f98 <drawTile>
	drawTile(game->pinky.ypos*2+20, game->pinky.xpos, 4, 3);
10003ad0:	e0bffb17 	ldw	r2,-20(fp)
10003ad4:	1080e443 	ldbu	r2,913(r2)
10003ad8:	10803fcc 	andi	r2,r2,255
10003adc:	10800284 	addi	r2,r2,10
10003ae0:	1085883a 	add	r2,r2,r2
10003ae4:	1007883a 	mov	r3,r2
10003ae8:	e0bffb17 	ldw	r2,-20(fp)
10003aec:	1080e403 	ldbu	r2,912(r2)
10003af0:	10803fcc 	andi	r2,r2,255
10003af4:	01c000c4 	movi	r7,3
10003af8:	01800104 	movi	r6,4
10003afc:	100b883a 	mov	r5,r2
10003b00:	1809883a 	mov	r4,r3
10003b04:	0004f980 	call	10004f98 <drawTile>
	drawTile(game->pinky.ypos*2+21, game->pinky.xpos, 4, 4);
10003b08:	e0bffb17 	ldw	r2,-20(fp)
10003b0c:	1080e443 	ldbu	r2,913(r2)
10003b10:	10803fcc 	andi	r2,r2,255
10003b14:	1085883a 	add	r2,r2,r2
10003b18:	10c00544 	addi	r3,r2,21
10003b1c:	e0bffb17 	ldw	r2,-20(fp)
10003b20:	1080e403 	ldbu	r2,912(r2)
10003b24:	10803fcc 	andi	r2,r2,255
10003b28:	01c00104 	movi	r7,4
10003b2c:	01800104 	movi	r6,4
10003b30:	100b883a 	mov	r5,r2
10003b34:	1809883a 	mov	r4,r3
10003b38:	0004f980 	call	10004f98 <drawTile>
	drawTile(game->inky.ypos*2+20, game->inky.xpos, 5, 3);
10003b3c:	e0bffb17 	ldw	r2,-20(fp)
10003b40:	1080e5c3 	ldbu	r2,919(r2)
10003b44:	10803fcc 	andi	r2,r2,255
10003b48:	10800284 	addi	r2,r2,10
10003b4c:	1085883a 	add	r2,r2,r2
10003b50:	1007883a 	mov	r3,r2
10003b54:	e0bffb17 	ldw	r2,-20(fp)
10003b58:	1080e583 	ldbu	r2,918(r2)
10003b5c:	10803fcc 	andi	r2,r2,255
10003b60:	01c000c4 	movi	r7,3
10003b64:	01800144 	movi	r6,5
10003b68:	100b883a 	mov	r5,r2
10003b6c:	1809883a 	mov	r4,r3
10003b70:	0004f980 	call	10004f98 <drawTile>
	drawTile(game->inky.ypos*2+21, game->inky.xpos, 5, 4);
10003b74:	e0bffb17 	ldw	r2,-20(fp)
10003b78:	1080e5c3 	ldbu	r2,919(r2)
10003b7c:	10803fcc 	andi	r2,r2,255
10003b80:	1085883a 	add	r2,r2,r2
10003b84:	10c00544 	addi	r3,r2,21
10003b88:	e0bffb17 	ldw	r2,-20(fp)
10003b8c:	1080e583 	ldbu	r2,918(r2)
10003b90:	10803fcc 	andi	r2,r2,255
10003b94:	01c00104 	movi	r7,4
10003b98:	01800144 	movi	r6,5
10003b9c:	100b883a 	mov	r5,r2
10003ba0:	1809883a 	mov	r4,r3
10003ba4:	0004f980 	call	10004f98 <drawTile>
	drawTile(game->clyde.ypos*2+20, game->clyde.xpos, 6, 3);
10003ba8:	e0bffb17 	ldw	r2,-20(fp)
10003bac:	1080e743 	ldbu	r2,925(r2)
10003bb0:	10803fcc 	andi	r2,r2,255
10003bb4:	10800284 	addi	r2,r2,10
10003bb8:	1085883a 	add	r2,r2,r2
10003bbc:	1007883a 	mov	r3,r2
10003bc0:	e0bffb17 	ldw	r2,-20(fp)
10003bc4:	1080e703 	ldbu	r2,924(r2)
10003bc8:	10803fcc 	andi	r2,r2,255
10003bcc:	01c000c4 	movi	r7,3
10003bd0:	01800184 	movi	r6,6
10003bd4:	100b883a 	mov	r5,r2
10003bd8:	1809883a 	mov	r4,r3
10003bdc:	0004f980 	call	10004f98 <drawTile>
	drawTile(game->clyde.ypos*2+21, game->clyde.xpos, 6, 4);
10003be0:	e0bffb17 	ldw	r2,-20(fp)
10003be4:	1080e743 	ldbu	r2,925(r2)
10003be8:	10803fcc 	andi	r2,r2,255
10003bec:	1085883a 	add	r2,r2,r2
10003bf0:	10c00544 	addi	r3,r2,21
10003bf4:	e0bffb17 	ldw	r2,-20(fp)
10003bf8:	1080e703 	ldbu	r2,924(r2)
10003bfc:	10803fcc 	andi	r2,r2,255
10003c00:	01c00104 	movi	r7,4
10003c04:	01800184 	movi	r6,6
10003c08:	100b883a 	mov	r5,r2
10003c0c:	1809883a 	mov	r4,r3
10003c10:	0004f980 	call	10004f98 <drawTile>
}
10003c14:	0001883a 	nop
10003c18:	e037883a 	mov	sp,fp
10003c1c:	dfc00117 	ldw	ra,4(sp)
10003c20:	df000017 	ldw	fp,0(sp)
10003c24:	dec00204 	addi	sp,sp,8
10003c28:	f800283a 	ret

10003c2c <updateBoard>:

// Update board. change mimimal tiles.
void updateBoard(Game* game) {
10003c2c:	defffa04 	addi	sp,sp,-24
10003c30:	dfc00515 	stw	ra,20(sp)
10003c34:	df000415 	stw	fp,16(sp)
10003c38:	df000404 	addi	fp,sp,16
10003c3c:	e13ffc15 	stw	r4,-16(fp)
	while(hasRemain()) {
10003c40:	0000a506 	br	10003ed8 <updateBoard+0x2ac>
		TileCollection k = getOne();
10003c44:	00067140 	call	10006714 <getOne>
10003c48:	e0bffd8d 	sth	r2,-10(fp)
		if(k.tile_x < 0) return;
10003c4c:	e0bffd83 	ldbu	r2,-10(fp)
10003c50:	10803fcc 	andi	r2,r2,255
10003c54:	1080201c 	xori	r2,r2,128
10003c58:	10bfe004 	addi	r2,r2,-128
10003c5c:	10012a16 	blt	r2,zero,10004108 <updateBoard+0x4dc>
		if(k.tile_x==game->blinky.xpos && k.tile_y==game->blinky.ypos) {
10003c60:	e0bffd83 	ldbu	r2,-10(fp)
10003c64:	10c03fcc 	andi	r3,r2,255
10003c68:	18c0201c 	xori	r3,r3,128
10003c6c:	18ffe004 	addi	r3,r3,-128
10003c70:	e0bffc17 	ldw	r2,-16(fp)
10003c74:	1080e283 	ldbu	r2,906(r2)
10003c78:	10803fcc 	andi	r2,r2,255
10003c7c:	1880081e 	bne	r3,r2,10003ca0 <updateBoard+0x74>
10003c80:	e0bffdc3 	ldbu	r2,-9(fp)
10003c84:	10c03fcc 	andi	r3,r2,255
10003c88:	18c0201c 	xori	r3,r3,128
10003c8c:	18ffe004 	addi	r3,r3,-128
10003c90:	e0bffc17 	ldw	r2,-16(fp)
10003c94:	1080e2c3 	ldbu	r2,907(r2)
10003c98:	10803fcc 	andi	r2,r2,255
10003c9c:	18808726 	beq	r3,r2,10003ebc <updateBoard+0x290>
			continue;
		} else if(k.tile_x==game->pinky.xpos && k.tile_y==game->pinky.ypos) {
10003ca0:	e0bffd83 	ldbu	r2,-10(fp)
10003ca4:	10c03fcc 	andi	r3,r2,255
10003ca8:	18c0201c 	xori	r3,r3,128
10003cac:	18ffe004 	addi	r3,r3,-128
10003cb0:	e0bffc17 	ldw	r2,-16(fp)
10003cb4:	1080e403 	ldbu	r2,912(r2)
10003cb8:	10803fcc 	andi	r2,r2,255
10003cbc:	1880081e 	bne	r3,r2,10003ce0 <updateBoard+0xb4>
10003cc0:	e0bffdc3 	ldbu	r2,-9(fp)
10003cc4:	10c03fcc 	andi	r3,r2,255
10003cc8:	18c0201c 	xori	r3,r3,128
10003ccc:	18ffe004 	addi	r3,r3,-128
10003cd0:	e0bffc17 	ldw	r2,-16(fp)
10003cd4:	1080e443 	ldbu	r2,913(r2)
10003cd8:	10803fcc 	andi	r2,r2,255
10003cdc:	18807926 	beq	r3,r2,10003ec4 <updateBoard+0x298>
			continue;
		} else if(k.tile_x==game->inky.xpos && k.tile_y==game->inky.ypos) {
10003ce0:	e0bffd83 	ldbu	r2,-10(fp)
10003ce4:	10c03fcc 	andi	r3,r2,255
10003ce8:	18c0201c 	xori	r3,r3,128
10003cec:	18ffe004 	addi	r3,r3,-128
10003cf0:	e0bffc17 	ldw	r2,-16(fp)
10003cf4:	1080e583 	ldbu	r2,918(r2)
10003cf8:	10803fcc 	andi	r2,r2,255
10003cfc:	1880081e 	bne	r3,r2,10003d20 <updateBoard+0xf4>
10003d00:	e0bffdc3 	ldbu	r2,-9(fp)
10003d04:	10c03fcc 	andi	r3,r2,255
10003d08:	18c0201c 	xori	r3,r3,128
10003d0c:	18ffe004 	addi	r3,r3,-128
10003d10:	e0bffc17 	ldw	r2,-16(fp)
10003d14:	1080e5c3 	ldbu	r2,919(r2)
10003d18:	10803fcc 	andi	r2,r2,255
10003d1c:	18806b26 	beq	r3,r2,10003ecc <updateBoard+0x2a0>
			continue;
		} else if(k.tile_x==game->clyde.xpos && k.tile_y==game->clyde.ypos) {
10003d20:	e0bffd83 	ldbu	r2,-10(fp)
10003d24:	10c03fcc 	andi	r3,r2,255
10003d28:	18c0201c 	xori	r3,r3,128
10003d2c:	18ffe004 	addi	r3,r3,-128
10003d30:	e0bffc17 	ldw	r2,-16(fp)
10003d34:	1080e703 	ldbu	r2,924(r2)
10003d38:	10803fcc 	andi	r2,r2,255
10003d3c:	1880081e 	bne	r3,r2,10003d60 <updateBoard+0x134>
10003d40:	e0bffdc3 	ldbu	r2,-9(fp)
10003d44:	10c03fcc 	andi	r3,r2,255
10003d48:	18c0201c 	xori	r3,r3,128
10003d4c:	18ffe004 	addi	r3,r3,-128
10003d50:	e0bffc17 	ldw	r2,-16(fp)
10003d54:	1080e743 	ldbu	r2,925(r2)
10003d58:	10803fcc 	andi	r2,r2,255
10003d5c:	18805d26 	beq	r3,r2,10003ed4 <updateBoard+0x2a8>
			continue;
		}
		int curr_tile_xb = k.tile_y*2+20;
10003d60:	e0bffdc3 	ldbu	r2,-9(fp)
10003d64:	10803fcc 	andi	r2,r2,255
10003d68:	1080201c 	xori	r2,r2,128
10003d6c:	10bfe004 	addi	r2,r2,-128
10003d70:	10800284 	addi	r2,r2,10
10003d74:	1085883a 	add	r2,r2,r2
10003d78:	e0bfff15 	stw	r2,-4(fp)
		int curr_tile_y = k.tile_x;
10003d7c:	e0bffd83 	ldbu	r2,-10(fp)
10003d80:	10803fcc 	andi	r2,r2,255
10003d84:	1080201c 	xori	r2,r2,128
10003d88:	10bfe004 	addi	r2,r2,-128
10003d8c:	e0bffe15 	stw	r2,-8(fp)
		switch(game->game_map[k.tile_x][k.tile_y]) {
10003d90:	e0bffd83 	ldbu	r2,-10(fp)
10003d94:	11003fcc 	andi	r4,r2,255
10003d98:	2100201c 	xori	r4,r4,128
10003d9c:	213fe004 	addi	r4,r4,-128
10003da0:	e0bffdc3 	ldbu	r2,-9(fp)
10003da4:	10803fcc 	andi	r2,r2,255
10003da8:	1080201c 	xori	r2,r2,128
10003dac:	10bfe004 	addi	r2,r2,-128
10003db0:	e0fffc17 	ldw	r3,-16(fp)
10003db4:	210003e4 	muli	r4,r4,15
10003db8:	2085883a 	add	r2,r4,r2
10003dbc:	100490ba 	slli	r2,r2,2
10003dc0:	1885883a 	add	r2,r3,r2
10003dc4:	10800017 	ldw	r2,0(r2)
10003dc8:	10c00060 	cmpeqi	r3,r2,1
10003dcc:	1800131e 	bne	r3,zero,10003e1c <updateBoard+0x1f0>
10003dd0:	10000526 	beq	r2,zero,10003de8 <updateBoard+0x1bc>
10003dd4:	10c000a0 	cmpeqi	r3,r2,2
10003dd8:	18002a1e 	bne	r3,zero,10003e84 <updateBoard+0x258>
10003ddc:	108000e0 	cmpeqi	r2,r2,3
10003de0:	10001b1e 	bne	r2,zero,10003e50 <updateBoard+0x224>
10003de4:	00003c06 	br	10003ed8 <updateBoard+0x2ac>
			case WALL: {
				drawTile(curr_tile_xb, curr_tile_y, 2, 0);
10003de8:	000f883a 	mov	r7,zero
10003dec:	01800084 	movi	r6,2
10003df0:	e17ffe17 	ldw	r5,-8(fp)
10003df4:	e13fff17 	ldw	r4,-4(fp)
10003df8:	0004f980 	call	10004f98 <drawTile>
				drawTile(curr_tile_xb+1, curr_tile_y, 2, 0);
10003dfc:	e0bfff17 	ldw	r2,-4(fp)
10003e00:	10800044 	addi	r2,r2,1
10003e04:	000f883a 	mov	r7,zero
10003e08:	01800084 	movi	r6,2
10003e0c:	e17ffe17 	ldw	r5,-8(fp)
10003e10:	1009883a 	mov	r4,r2
10003e14:	0004f980 	call	10004f98 <drawTile>
				break;
10003e18:	00002f06 	br	10003ed8 <updateBoard+0x2ac>
			}
			case CANDY: {
				drawTile(curr_tile_xb, curr_tile_y, 1, 129);
10003e1c:	01c02044 	movi	r7,129
10003e20:	01800044 	movi	r6,1
10003e24:	e17ffe17 	ldw	r5,-8(fp)
10003e28:	e13fff17 	ldw	r4,-4(fp)
10003e2c:	0004f980 	call	10004f98 <drawTile>
				drawTile(curr_tile_xb+1, curr_tile_y, 1, 130);
10003e30:	e0bfff17 	ldw	r2,-4(fp)
10003e34:	10800044 	addi	r2,r2,1
10003e38:	01c02084 	movi	r7,130
10003e3c:	01800044 	movi	r6,1
10003e40:	e17ffe17 	ldw	r5,-8(fp)
10003e44:	1009883a 	mov	r4,r2
10003e48:	0004f980 	call	10004f98 <drawTile>
				break;
10003e4c:	00002206 	br	10003ed8 <updateBoard+0x2ac>
			}
			case WAY: {
				drawTile(curr_tile_xb,curr_tile_y, 1, 0);
10003e50:	000f883a 	mov	r7,zero
10003e54:	01800044 	movi	r6,1
10003e58:	e17ffe17 	ldw	r5,-8(fp)
10003e5c:	e13fff17 	ldw	r4,-4(fp)
10003e60:	0004f980 	call	10004f98 <drawTile>
				drawTile(curr_tile_xb+1,curr_tile_y, 1, 0);
10003e64:	e0bfff17 	ldw	r2,-4(fp)
10003e68:	10800044 	addi	r2,r2,1
10003e6c:	000f883a 	mov	r7,zero
10003e70:	01800044 	movi	r6,1
10003e74:	e17ffe17 	ldw	r5,-8(fp)
10003e78:	1009883a 	mov	r4,r2
10003e7c:	0004f980 	call	10004f98 <drawTile>
				break;
10003e80:	00001506 	br	10003ed8 <updateBoard+0x2ac>
			}
			case SUPER: {
				drawTile(curr_tile_xb, curr_tile_y, 1, 131);
10003e84:	01c020c4 	movi	r7,131
10003e88:	01800044 	movi	r6,1
10003e8c:	e17ffe17 	ldw	r5,-8(fp)
10003e90:	e13fff17 	ldw	r4,-4(fp)
10003e94:	0004f980 	call	10004f98 <drawTile>
				drawTile(curr_tile_xb+1, curr_tile_y, 1, 132);
10003e98:	e0bfff17 	ldw	r2,-4(fp)
10003e9c:	10800044 	addi	r2,r2,1
10003ea0:	01c02104 	movi	r7,132
10003ea4:	01800044 	movi	r6,1
10003ea8:	e17ffe17 	ldw	r5,-8(fp)
10003eac:	1009883a 	mov	r4,r2
10003eb0:	0004f980 	call	10004f98 <drawTile>
				break;
10003eb4:	0001883a 	nop
10003eb8:	00000706 	br	10003ed8 <updateBoard+0x2ac>
			continue;
10003ebc:	0001883a 	nop
10003ec0:	00000506 	br	10003ed8 <updateBoard+0x2ac>
			continue;
10003ec4:	0001883a 	nop
10003ec8:	00000306 	br	10003ed8 <updateBoard+0x2ac>
			continue;
10003ecc:	0001883a 	nop
10003ed0:	00000106 	br	10003ed8 <updateBoard+0x2ac>
			continue;
10003ed4:	0001883a 	nop
	while(hasRemain()) {
10003ed8:	00068100 	call	10006810 <hasRemain>
10003edc:	10803fcc 	andi	r2,r2,255
10003ee0:	103f581e 	bne	r2,zero,10003c44 <updateBoard+0x18>
			}
		}
	}

	// Draw player
	drawTile(game->player.ypos*2+20, game->player.xpos, 1, 1);
10003ee4:	e0bffc17 	ldw	r2,-16(fp)
10003ee8:	1080e143 	ldbu	r2,901(r2)
10003eec:	10803fcc 	andi	r2,r2,255
10003ef0:	10800284 	addi	r2,r2,10
10003ef4:	1085883a 	add	r2,r2,r2
10003ef8:	1007883a 	mov	r3,r2
10003efc:	e0bffc17 	ldw	r2,-16(fp)
10003f00:	1080e103 	ldbu	r2,900(r2)
10003f04:	10803fcc 	andi	r2,r2,255
10003f08:	01c00044 	movi	r7,1
10003f0c:	01800044 	movi	r6,1
10003f10:	100b883a 	mov	r5,r2
10003f14:	1809883a 	mov	r4,r3
10003f18:	0004f980 	call	10004f98 <drawTile>
	drawTile(game->player.ypos*2+21, game->player.xpos, 1, 2);
10003f1c:	e0bffc17 	ldw	r2,-16(fp)
10003f20:	1080e143 	ldbu	r2,901(r2)
10003f24:	10803fcc 	andi	r2,r2,255
10003f28:	1085883a 	add	r2,r2,r2
10003f2c:	10c00544 	addi	r3,r2,21
10003f30:	e0bffc17 	ldw	r2,-16(fp)
10003f34:	1080e103 	ldbu	r2,900(r2)
10003f38:	10803fcc 	andi	r2,r2,255
10003f3c:	01c00084 	movi	r7,2
10003f40:	01800044 	movi	r6,1
10003f44:	100b883a 	mov	r5,r2
10003f48:	1809883a 	mov	r4,r3
10003f4c:	0004f980 	call	10004f98 <drawTile>
	// Draw ghosts.
	drawTile(game->blinky.ypos*2+20, game->blinky.xpos, 3, 3);
10003f50:	e0bffc17 	ldw	r2,-16(fp)
10003f54:	1080e2c3 	ldbu	r2,907(r2)
10003f58:	10803fcc 	andi	r2,r2,255
10003f5c:	10800284 	addi	r2,r2,10
10003f60:	1085883a 	add	r2,r2,r2
10003f64:	1007883a 	mov	r3,r2
10003f68:	e0bffc17 	ldw	r2,-16(fp)
10003f6c:	1080e283 	ldbu	r2,906(r2)
10003f70:	10803fcc 	andi	r2,r2,255
10003f74:	01c000c4 	movi	r7,3
10003f78:	018000c4 	movi	r6,3
10003f7c:	100b883a 	mov	r5,r2
10003f80:	1809883a 	mov	r4,r3
10003f84:	0004f980 	call	10004f98 <drawTile>
	drawTile(game->blinky.ypos*2+21, game->blinky.xpos, 3, 4);
10003f88:	e0bffc17 	ldw	r2,-16(fp)
10003f8c:	1080e2c3 	ldbu	r2,907(r2)
10003f90:	10803fcc 	andi	r2,r2,255
10003f94:	1085883a 	add	r2,r2,r2
10003f98:	10c00544 	addi	r3,r2,21
10003f9c:	e0bffc17 	ldw	r2,-16(fp)
10003fa0:	1080e283 	ldbu	r2,906(r2)
10003fa4:	10803fcc 	andi	r2,r2,255
10003fa8:	01c00104 	movi	r7,4
10003fac:	018000c4 	movi	r6,3
10003fb0:	100b883a 	mov	r5,r2
10003fb4:	1809883a 	mov	r4,r3
10003fb8:	0004f980 	call	10004f98 <drawTile>
	drawTile(game->pinky.ypos*2+20, game->pinky.xpos, 4, 3);
10003fbc:	e0bffc17 	ldw	r2,-16(fp)
10003fc0:	1080e443 	ldbu	r2,913(r2)
10003fc4:	10803fcc 	andi	r2,r2,255
10003fc8:	10800284 	addi	r2,r2,10
10003fcc:	1085883a 	add	r2,r2,r2
10003fd0:	1007883a 	mov	r3,r2
10003fd4:	e0bffc17 	ldw	r2,-16(fp)
10003fd8:	1080e403 	ldbu	r2,912(r2)
10003fdc:	10803fcc 	andi	r2,r2,255
10003fe0:	01c000c4 	movi	r7,3
10003fe4:	01800104 	movi	r6,4
10003fe8:	100b883a 	mov	r5,r2
10003fec:	1809883a 	mov	r4,r3
10003ff0:	0004f980 	call	10004f98 <drawTile>
	drawTile(game->pinky.ypos*2+21, game->pinky.xpos, 4, 4);
10003ff4:	e0bffc17 	ldw	r2,-16(fp)
10003ff8:	1080e443 	ldbu	r2,913(r2)
10003ffc:	10803fcc 	andi	r2,r2,255
10004000:	1085883a 	add	r2,r2,r2
10004004:	10c00544 	addi	r3,r2,21
10004008:	e0bffc17 	ldw	r2,-16(fp)
1000400c:	1080e403 	ldbu	r2,912(r2)
10004010:	10803fcc 	andi	r2,r2,255
10004014:	01c00104 	movi	r7,4
10004018:	01800104 	movi	r6,4
1000401c:	100b883a 	mov	r5,r2
10004020:	1809883a 	mov	r4,r3
10004024:	0004f980 	call	10004f98 <drawTile>
	drawTile(game->inky.ypos*2+20, game->inky.xpos, 5, 3);
10004028:	e0bffc17 	ldw	r2,-16(fp)
1000402c:	1080e5c3 	ldbu	r2,919(r2)
10004030:	10803fcc 	andi	r2,r2,255
10004034:	10800284 	addi	r2,r2,10
10004038:	1085883a 	add	r2,r2,r2
1000403c:	1007883a 	mov	r3,r2
10004040:	e0bffc17 	ldw	r2,-16(fp)
10004044:	1080e583 	ldbu	r2,918(r2)
10004048:	10803fcc 	andi	r2,r2,255
1000404c:	01c000c4 	movi	r7,3
10004050:	01800144 	movi	r6,5
10004054:	100b883a 	mov	r5,r2
10004058:	1809883a 	mov	r4,r3
1000405c:	0004f980 	call	10004f98 <drawTile>
	drawTile(game->inky.ypos*2+21, game->inky.xpos, 5, 4);
10004060:	e0bffc17 	ldw	r2,-16(fp)
10004064:	1080e5c3 	ldbu	r2,919(r2)
10004068:	10803fcc 	andi	r2,r2,255
1000406c:	1085883a 	add	r2,r2,r2
10004070:	10c00544 	addi	r3,r2,21
10004074:	e0bffc17 	ldw	r2,-16(fp)
10004078:	1080e583 	ldbu	r2,918(r2)
1000407c:	10803fcc 	andi	r2,r2,255
10004080:	01c00104 	movi	r7,4
10004084:	01800144 	movi	r6,5
10004088:	100b883a 	mov	r5,r2
1000408c:	1809883a 	mov	r4,r3
10004090:	0004f980 	call	10004f98 <drawTile>
	drawTile(game->clyde.ypos*2+20, game->clyde.xpos, 6, 3);
10004094:	e0bffc17 	ldw	r2,-16(fp)
10004098:	1080e743 	ldbu	r2,925(r2)
1000409c:	10803fcc 	andi	r2,r2,255
100040a0:	10800284 	addi	r2,r2,10
100040a4:	1085883a 	add	r2,r2,r2
100040a8:	1007883a 	mov	r3,r2
100040ac:	e0bffc17 	ldw	r2,-16(fp)
100040b0:	1080e703 	ldbu	r2,924(r2)
100040b4:	10803fcc 	andi	r2,r2,255
100040b8:	01c000c4 	movi	r7,3
100040bc:	01800184 	movi	r6,6
100040c0:	100b883a 	mov	r5,r2
100040c4:	1809883a 	mov	r4,r3
100040c8:	0004f980 	call	10004f98 <drawTile>
	drawTile(game->clyde.ypos*2+21, game->clyde.xpos, 6, 4);
100040cc:	e0bffc17 	ldw	r2,-16(fp)
100040d0:	1080e743 	ldbu	r2,925(r2)
100040d4:	10803fcc 	andi	r2,r2,255
100040d8:	1085883a 	add	r2,r2,r2
100040dc:	10c00544 	addi	r3,r2,21
100040e0:	e0bffc17 	ldw	r2,-16(fp)
100040e4:	1080e703 	ldbu	r2,924(r2)
100040e8:	10803fcc 	andi	r2,r2,255
100040ec:	01c00104 	movi	r7,4
100040f0:	01800184 	movi	r6,6
100040f4:	100b883a 	mov	r5,r2
100040f8:	1809883a 	mov	r4,r3
100040fc:	0004f980 	call	10004f98 <drawTile>

	clearQueue();
10004100:	000686c0 	call	1000686c <clearQueue>
10004104:	00000106 	br	1000410c <updateBoard+0x4e0>
		if(k.tile_x < 0) return;
10004108:	0001883a 	nop
}
1000410c:	e037883a 	mov	sp,fp
10004110:	dfc00117 	ldw	ra,4(sp)
10004114:	df000017 	ldw	fp,0(sp)
10004118:	dec00204 	addi	sp,sp,8
1000411c:	f800283a 	ret

10004120 <main>:
//
//                                Main function
//
//----------------------------------------------------------------------------------------//
int main(void)
{
10004120:	deff0d04 	addi	sp,sp,-972
10004124:	dfc0f215 	stw	ra,968(sp)
10004128:	df00f115 	stw	fp,964(sp)
1000412c:	df00f104 	addi	fp,sp,964
	printf("Main function started...\n");
10004130:	010400b4 	movhi	r4,4098
10004134:	21147d04 	addi	r4,r4,20980
10004138:	00170b40 	call	100170b4 <puts>
	IO_init();
1000413c:	00005140 	call	10000514 <IO_init>
	printf("Creating board...\n");
10004140:	010400b4 	movhi	r4,4098
10004144:	21148404 	addi	r4,r4,21008
10004148:	00170b40 	call	100170b4 <puts>
	Game mainGame;
	printf("Initializing game...\n");
1000414c:	010400b4 	movhi	r4,4098
10004150:	21148904 	addi	r4,r4,21028
10004154:	00170b40 	call	100170b4 <puts>
	init_game(&mainGame);
10004158:	e0bf0f04 	addi	r2,fp,-964
1000415c:	1009883a 	mov	r4,r2
10004160:	00006ec0 	call	100006ec <init_game>
	printf("Drawing initial board...\n");
10004164:	010400b4 	movhi	r4,4098
10004168:	21148f04 	addi	r4,r4,21052
1000416c:	00170b40 	call	100170b4 <puts>
	drawBoard(&mainGame);
10004170:	e0bf0f04 	addi	r2,fp,-964
10004174:	1009883a 	mov	r4,r2
10004178:	00037900 	call	10003790 <drawBoard>

	printf("Start USB loop...\n");
1000417c:	010400b4 	movhi	r4,4098
10004180:	21149604 	addi	r4,r4,21080
10004184:	00170b40 	call	100170b4 <puts>

	alt_u16 intStat;
	alt_u16 usb_ctl_val;
	static alt_u16 ctl_reg = 0;
	static alt_u16 no_device = 0;
	alt_u16 fs_device = 0;
10004188:	e03ffd8d 	sth	zero,-10(fp)
	int keycode = 0;
1000418c:	e03ffc15 	stw	zero,-16(fp)
	alt_u8 toggle = 0;
10004190:	e03fff45 	stb	zero,-3(fp)
	alt_u8 data_size;
	alt_u8 hot_plug_count;
	alt_u16 code;

	printf("USB keyboard setup...\n\n");
10004194:	010400b4 	movhi	r4,4098
10004198:	21149b04 	addi	r4,r4,21100
1000419c:	00170b40 	call	100170b4 <puts>

	//----------------------------------------SIE1 initial---------------------------------------------------//
	USB_HOT_PLUG:
	// UsbSoftReset();

	drawBoard(&mainGame);
100041a0:	e0bf0f04 	addi	r2,fp,-964
100041a4:	1009883a 	mov	r4,r2
100041a8:	00037900 	call	10003790 <drawBoard>
	for(int i=0; i<=5;i++) {
100041ac:	e03ffe15 	stw	zero,-8(fp)
100041b0:	00000e06 	br	100041ec <main+0xcc>
		printf("[VGA_VS PIO %d] = %08x", i, vga_vs_ptr[i]);
100041b4:	e0bffe17 	ldw	r2,-8(fp)
100041b8:	10804804 	addi	r2,r2,288
100041bc:	10800003 	ldbu	r2,0(r2)
100041c0:	10803fcc 	andi	r2,r2,255
100041c4:	1080201c 	xori	r2,r2,128
100041c8:	10bfe004 	addi	r2,r2,-128
100041cc:	100d883a 	mov	r6,r2
100041d0:	e17ffe17 	ldw	r5,-8(fp)
100041d4:	010400b4 	movhi	r4,4098
100041d8:	2114a104 	addi	r4,r4,21124
100041dc:	0016f900 	call	10016f90 <printf>
	for(int i=0; i<=5;i++) {
100041e0:	e0bffe17 	ldw	r2,-8(fp)
100041e4:	10800044 	addi	r2,r2,1
100041e8:	e0bffe15 	stw	r2,-8(fp)
100041ec:	e0bffe17 	ldw	r2,-8(fp)
100041f0:	10800190 	cmplti	r2,r2,6
100041f4:	103fef1e 	bne	r2,zero,100041b4 <main+0x94>
	}
	if(vga_vs_ptr[3]) {	// Edge detection register
100041f8:	008048c4 	movi	r2,291
100041fc:	10800003 	ldbu	r2,0(r2)
10004200:	10803fcc 	andi	r2,r2,255
10004204:	1080201c 	xori	r2,r2,128
10004208:	10bfe004 	addi	r2,r2,-128
1000420c:	10000826 	beq	r2,zero,10004230 <main+0x110>
		updateBoard(&mainGame);
10004210:	e0bf0f04 	addi	r2,fp,-964
10004214:	1009883a 	mov	r4,r2
10004218:	0003c2c0 	call	10003c2c <updateBoard>
		vga_vs_ptr[3] = 0x00000000;
1000421c:	008048c4 	movi	r2,291
10004220:	10000005 	stb	zero,0(r2)
		printf("Board Updated\n");
10004224:	010400b4 	movhi	r4,4098
10004228:	2114a704 	addi	r4,r4,21148
1000422c:	00170b40 	call	100170b4 <puts>
	}

	// STEP 1a:
	UsbWrite (HPI_SIE1_MSG_ADR, 0);
10004230:	000b883a 	mov	r5,zero
10004234:	01005104 	movi	r4,324
10004238:	00054d00 	call	100054d0 <UsbWrite>
	UsbWrite (HOST1_STAT_REG, 0xFFFF);
1000423c:	017fffd4 	movui	r5,65535
10004240:	01302414 	movui	r4,49296
10004244:	00054d00 	call	100054d0 <UsbWrite>

	/* Set HUSB_pEOT time */
	UsbWrite(HUSB_pEOT, 600); // adjust the according to your USB device speed
10004248:	01409604 	movi	r5,600
1000424c:	01006d04 	movi	r4,436
10004250:	00054d00 	call	100054d0 <UsbWrite>

	usb_ctl_val = SOFEOP1_TO_CPU_EN | RESUME1_TO_HPI_EN;// | SOFEOP1_TO_HPI_EN;
10004254:	00811004 	movi	r2,1088
10004258:	e0bfff8d 	sth	r2,-2(fp)
	UsbWrite(HPI_IRQ_ROUTING_REG, usb_ctl_val);
1000425c:	e0bfff8b 	ldhu	r2,-2(fp)
10004260:	100b883a 	mov	r5,r2
10004264:	01005084 	movi	r4,322
10004268:	00054d00 	call	100054d0 <UsbWrite>

	intStat = A_CHG_IRQ_EN | SOF_EOP_IRQ_EN ;
1000426c:	00808404 	movi	r2,528
10004270:	e0bffb8d 	sth	r2,-18(fp)
	UsbWrite(HOST1_IRQ_EN_REG, intStat);
10004274:	e0bffb8b 	ldhu	r2,-18(fp)
10004278:	100b883a 	mov	r5,r2
1000427c:	01302314 	movui	r4,49292
10004280:	00054d00 	call	100054d0 <UsbWrite>
	// STEP 1a end

	// STEP 1b begin
	UsbWrite(COMM_R0,0x0000);//reset time
10004284:	000b883a 	mov	r5,zero
10004288:	01007104 	movi	r4,452
1000428c:	00054d00 	call	100054d0 <UsbWrite>
	UsbWrite(COMM_R1,0x0000);  //port number
10004290:	000b883a 	mov	r5,zero
10004294:	01007184 	movi	r4,454
10004298:	00054d00 	call	100054d0 <UsbWrite>
	UsbWrite(COMM_R2,0x0000);  //r1
1000429c:	000b883a 	mov	r5,zero
100042a0:	01007204 	movi	r4,456
100042a4:	00054d00 	call	100054d0 <UsbWrite>
	UsbWrite(COMM_R3,0x0000);  //r1
100042a8:	000b883a 	mov	r5,zero
100042ac:	01007284 	movi	r4,458
100042b0:	00054d00 	call	100054d0 <UsbWrite>
	UsbWrite(COMM_R4,0x0000);  //r1
100042b4:	000b883a 	mov	r5,zero
100042b8:	01007304 	movi	r4,460
100042bc:	00054d00 	call	100054d0 <UsbWrite>
	UsbWrite(COMM_R5,0x0000);  //r1
100042c0:	000b883a 	mov	r5,zero
100042c4:	01007384 	movi	r4,462
100042c8:	00054d00 	call	100054d0 <UsbWrite>
	UsbWrite(COMM_R6,0x0000);  //r1
100042cc:	000b883a 	mov	r5,zero
100042d0:	01007404 	movi	r4,464
100042d4:	00054d00 	call	100054d0 <UsbWrite>
	UsbWrite(COMM_R7,0x0000);  //r1
100042d8:	000b883a 	mov	r5,zero
100042dc:	01007484 	movi	r4,466
100042e0:	00054d00 	call	100054d0 <UsbWrite>
	UsbWrite(COMM_R8,0x0000);  //r1
100042e4:	000b883a 	mov	r5,zero
100042e8:	01007504 	movi	r4,468
100042ec:	00054d00 	call	100054d0 <UsbWrite>
	UsbWrite(COMM_R9,0x0000);  //r1
100042f0:	000b883a 	mov	r5,zero
100042f4:	01007584 	movi	r4,470
100042f8:	00054d00 	call	100054d0 <UsbWrite>
	UsbWrite(COMM_R10,0x0000);  //r1
100042fc:	000b883a 	mov	r5,zero
10004300:	01007604 	movi	r4,472
10004304:	00054d00 	call	100054d0 <UsbWrite>
	UsbWrite(COMM_R11,0x0000);  //r1
10004308:	000b883a 	mov	r5,zero
1000430c:	01007684 	movi	r4,474
10004310:	00054d00 	call	100054d0 <UsbWrite>
	UsbWrite(COMM_R12,0x0000);  //r1
10004314:	000b883a 	mov	r5,zero
10004318:	01007704 	movi	r4,476
1000431c:	00054d00 	call	100054d0 <UsbWrite>
	UsbWrite(COMM_R13,0x0000);  //r1
10004320:	000b883a 	mov	r5,zero
10004324:	01007784 	movi	r4,478
10004328:	00054d00 	call	100054d0 <UsbWrite>
	UsbWrite(COMM_INT_NUM,HUSB_SIE1_INIT_INT); //HUSB_SIE1_INIT_INT
1000432c:	01401c84 	movi	r5,114
10004330:	01007084 	movi	r4,450
10004334:	00054d00 	call	100054d0 <UsbWrite>
	IO_write(HPI_MAILBOX,COMM_EXEC_INT);
10004338:	01738054 	movui	r5,52737
1000433c:	01000044 	movi	r4,1
10004340:	00006100 	call	10000610 <IO_write>

	while (!(IO_read(HPI_STATUS) & 0xFFFF) )  //read sie1 msg register
10004344:	0001883a 	nop
10004348:	010000c4 	movi	r4,3
1000434c:	00006840 	call	10000684 <IO_read>
10004350:	10bfffcc 	andi	r2,r2,65535
10004354:	103ffc26 	beq	r2,zero,10004348 <main+0x228>
	{
	}
	while (IO_read(HPI_MAILBOX) != COMM_ACK)
10004358:	00000806 	br	1000437c <main+0x25c>
	{
		printf("[ERROR]:routine mailbox data is %x\n",IO_read(HPI_MAILBOX));
1000435c:	01000044 	movi	r4,1
10004360:	00006840 	call	10000684 <IO_read>
10004364:	10bfffcc 	andi	r2,r2,65535
10004368:	100b883a 	mov	r5,r2
1000436c:	010400b4 	movhi	r4,4098
10004370:	2114ab04 	addi	r4,r4,21164
10004374:	0016f900 	call	10016f90 <printf>
		goto USB_HOT_PLUG;
10004378:	003f8906 	br	100041a0 <main+0x80>
	while (IO_read(HPI_MAILBOX) != COMM_ACK)
1000437c:	01000044 	movi	r4,1
10004380:	00006840 	call	10000684 <IO_read>
10004384:	10bfffcc 	andi	r2,r2,65535
10004388:	1083fb58 	cmpnei	r2,r2,4077
1000438c:	103ff31e 	bne	r2,zero,1000435c <main+0x23c>
	}
	// STEP 1b end

	printf("STEP 1 Complete");
10004390:	010400b4 	movhi	r4,4098
10004394:	2114b404 	addi	r4,r4,21200
10004398:	0016f900 	call	10016f90 <printf>
	// STEP 2 begin
	UsbWrite(COMM_INT_NUM,HUSB_RESET_INT); //husb reset
1000439c:	01401d04 	movi	r5,116
100043a0:	01007084 	movi	r4,450
100043a4:	00054d00 	call	100054d0 <UsbWrite>
	UsbWrite(COMM_R0,0x003c);//reset time
100043a8:	01400f04 	movi	r5,60
100043ac:	01007104 	movi	r4,452
100043b0:	00054d00 	call	100054d0 <UsbWrite>
	UsbWrite(COMM_R1,0x0000);  //port number
100043b4:	000b883a 	mov	r5,zero
100043b8:	01007184 	movi	r4,454
100043bc:	00054d00 	call	100054d0 <UsbWrite>
	UsbWrite(COMM_R2,0x0000);  //r1
100043c0:	000b883a 	mov	r5,zero
100043c4:	01007204 	movi	r4,456
100043c8:	00054d00 	call	100054d0 <UsbWrite>
	UsbWrite(COMM_R3,0x0000);  //r1
100043cc:	000b883a 	mov	r5,zero
100043d0:	01007284 	movi	r4,458
100043d4:	00054d00 	call	100054d0 <UsbWrite>
	UsbWrite(COMM_R4,0x0000);  //r1
100043d8:	000b883a 	mov	r5,zero
100043dc:	01007304 	movi	r4,460
100043e0:	00054d00 	call	100054d0 <UsbWrite>
	UsbWrite(COMM_R5,0x0000);  //r1
100043e4:	000b883a 	mov	r5,zero
100043e8:	01007384 	movi	r4,462
100043ec:	00054d00 	call	100054d0 <UsbWrite>
	UsbWrite(COMM_R6,0x0000);  //r1
100043f0:	000b883a 	mov	r5,zero
100043f4:	01007404 	movi	r4,464
100043f8:	00054d00 	call	100054d0 <UsbWrite>
	UsbWrite(COMM_R7,0x0000);  //r1
100043fc:	000b883a 	mov	r5,zero
10004400:	01007484 	movi	r4,466
10004404:	00054d00 	call	100054d0 <UsbWrite>
	UsbWrite(COMM_R8,0x0000);  //r1
10004408:	000b883a 	mov	r5,zero
1000440c:	01007504 	movi	r4,468
10004410:	00054d00 	call	100054d0 <UsbWrite>
	UsbWrite(COMM_R9,0x0000);  //r1
10004414:	000b883a 	mov	r5,zero
10004418:	01007584 	movi	r4,470
1000441c:	00054d00 	call	100054d0 <UsbWrite>
	UsbWrite(COMM_R10,0x0000);  //r1
10004420:	000b883a 	mov	r5,zero
10004424:	01007604 	movi	r4,472
10004428:	00054d00 	call	100054d0 <UsbWrite>
	UsbWrite(COMM_R11,0x0000);  //r1
1000442c:	000b883a 	mov	r5,zero
10004430:	01007684 	movi	r4,474
10004434:	00054d00 	call	100054d0 <UsbWrite>
	UsbWrite(COMM_R12,0x0000);  //r1
10004438:	000b883a 	mov	r5,zero
1000443c:	01007704 	movi	r4,476
10004440:	00054d00 	call	100054d0 <UsbWrite>
	UsbWrite(COMM_R13,0x0000);  //r1
10004444:	000b883a 	mov	r5,zero
10004448:	01007784 	movi	r4,478
1000444c:	00054d00 	call	100054d0 <UsbWrite>

	IO_write(HPI_MAILBOX,COMM_EXEC_INT);
10004450:	01738054 	movui	r5,52737
10004454:	01000044 	movi	r4,1
10004458:	00006100 	call	10000610 <IO_write>

	while (IO_read(HPI_MAILBOX) != COMM_ACK)
1000445c:	0001883a 	nop
10004460:	01000044 	movi	r4,1
10004464:	00006840 	call	10000684 <IO_read>
10004468:	10bfffcc 	andi	r2,r2,65535
1000446c:	1083fb58 	cmpnei	r2,r2,4077
10004470:	10000826 	beq	r2,zero,10004494 <main+0x374>
	{
		printf("[ERROR]:routine mailbox data is %x\n",IO_read(HPI_MAILBOX));
10004474:	01000044 	movi	r4,1
10004478:	00006840 	call	10000684 <IO_read>
1000447c:	10bfffcc 	andi	r2,r2,65535
10004480:	100b883a 	mov	r5,r2
10004484:	010400b4 	movhi	r4,4098
10004488:	2114ab04 	addi	r4,r4,21164
1000448c:	0016f900 	call	10016f90 <printf>
		goto USB_HOT_PLUG;
10004490:	003f4306 	br	100041a0 <main+0x80>
	}
	// STEP 2 end

	ctl_reg = USB1_CTL_REG;
10004494:	00b02284 	movi	r2,-16246
10004498:	d0a7ce8d 	sth	r2,-24774(gp)
	no_device = (A_DP_STAT | A_DM_STAT);
1000449c:	008c0004 	movi	r2,12288
100044a0:	d0a7cf0d 	sth	r2,-24772(gp)
	fs_device = A_DP_STAT;
100044a4:	00880004 	movi	r2,8192
100044a8:	e0bffd8d 	sth	r2,-10(fp)
	usb_ctl_val = UsbRead(ctl_reg);
100044ac:	d0a7ce8b 	ldhu	r2,-24774(gp)
100044b0:	10bfffcc 	andi	r2,r2,65535
100044b4:	1009883a 	mov	r4,r2
100044b8:	000552c0 	call	1000552c <UsbRead>
100044bc:	e0bfff8d 	sth	r2,-2(fp)

	if (!(usb_ctl_val & no_device))
100044c0:	d0a7cf0b 	ldhu	r2,-24772(gp)
100044c4:	e0ffff8b 	ldhu	r3,-2(fp)
100044c8:	1884703a 	and	r2,r3,r2
100044cc:	10bfffcc 	andi	r2,r2,65535
100044d0:	1000351e 	bne	r2,zero,100045a8 <main+0x488>
	{
		for(hot_plug_count = 0 ; hot_plug_count < 5 ; hot_plug_count++)
100044d4:	e03fff05 	stb	zero,-4(fp)
100044d8:	00000f06 	br	10004518 <main+0x3f8>
		{
			usleep(5*1000);
100044dc:	0104e204 	movi	r4,5000
100044e0:	00231340 	call	10023134 <usleep>
			usb_ctl_val = UsbRead(ctl_reg);
100044e4:	d0a7ce8b 	ldhu	r2,-24774(gp)
100044e8:	10bfffcc 	andi	r2,r2,65535
100044ec:	1009883a 	mov	r4,r2
100044f0:	000552c0 	call	1000552c <UsbRead>
100044f4:	e0bfff8d 	sth	r2,-2(fp)
			if(usb_ctl_val & no_device) break;
100044f8:	d0a7cf0b 	ldhu	r2,-24772(gp)
100044fc:	e0ffff8b 	ldhu	r3,-2(fp)
10004500:	1884703a 	and	r2,r3,r2
10004504:	10bfffcc 	andi	r2,r2,65535
10004508:	1000071e 	bne	r2,zero,10004528 <main+0x408>
		for(hot_plug_count = 0 ; hot_plug_count < 5 ; hot_plug_count++)
1000450c:	e0bfff03 	ldbu	r2,-4(fp)
10004510:	10800044 	addi	r2,r2,1
10004514:	e0bfff05 	stb	r2,-4(fp)
10004518:	e0bfff03 	ldbu	r2,-4(fp)
1000451c:	10800170 	cmpltui	r2,r2,5
10004520:	103fee1e 	bne	r2,zero,100044dc <main+0x3bc>
10004524:	00000106 	br	1000452c <main+0x40c>
			if(usb_ctl_val & no_device) break;
10004528:	0001883a 	nop
		}
		if(!(usb_ctl_val & no_device))
1000452c:	d0a7cf0b 	ldhu	r2,-24772(gp)
10004530:	e0ffff8b 	ldhu	r3,-2(fp)
10004534:	1884703a 	and	r2,r3,r2
10004538:	10bfffcc 	andi	r2,r2,65535
1000453c:	1000261e 	bne	r2,zero,100045d8 <main+0x4b8>
		{
			printf("\n[INFO]: no device is present in SIE1!\n");
10004540:	010400b4 	movhi	r4,4098
10004544:	2114b804 	addi	r4,r4,21216
10004548:	00170b40 	call	100170b4 <puts>
			printf("[INFO]: please insert a USB keyboard in SIE1!\n");
1000454c:	010400b4 	movhi	r4,4098
10004550:	2114c204 	addi	r4,r4,21256
10004554:	00170b40 	call	100170b4 <puts>
			while (!(usb_ctl_val & no_device))
10004558:	00000d06 	br	10004590 <main+0x470>
			{
				usb_ctl_val = UsbRead(ctl_reg);
1000455c:	d0a7ce8b 	ldhu	r2,-24774(gp)
10004560:	10bfffcc 	andi	r2,r2,65535
10004564:	1009883a 	mov	r4,r2
10004568:	000552c0 	call	1000552c <UsbRead>
1000456c:	e0bfff8d 	sth	r2,-2(fp)
				if(usb_ctl_val & no_device)
10004570:	d0a7cf0b 	ldhu	r2,-24772(gp)
10004574:	e0ffff8b 	ldhu	r3,-2(fp)
10004578:	1884703a 	and	r2,r3,r2
1000457c:	10bfffcc 	andi	r2,r2,65535
10004580:	10000126 	beq	r2,zero,10004588 <main+0x468>
					goto USB_HOT_PLUG;
10004584:	003f0606 	br	100041a0 <main+0x80>

				usleep(2000);
10004588:	0101f404 	movi	r4,2000
1000458c:	00231340 	call	10023134 <usleep>
			while (!(usb_ctl_val & no_device))
10004590:	d0a7cf0b 	ldhu	r2,-24772(gp)
10004594:	e0ffff8b 	ldhu	r3,-2(fp)
10004598:	1884703a 	and	r2,r3,r2
1000459c:	10bfffcc 	andi	r2,r2,65535
100045a0:	103fee26 	beq	r2,zero,1000455c <main+0x43c>
100045a4:	00000c06 	br	100045d8 <main+0x4b8>
		}
	}
	else
	{
		/* check for low speed or full speed by reading D+ and D- lines */
		if (usb_ctl_val & fs_device)
100045a8:	e0ffff8b 	ldhu	r3,-2(fp)
100045ac:	e0bffd8b 	ldhu	r2,-10(fp)
100045b0:	1884703a 	and	r2,r3,r2
100045b4:	10bfffcc 	andi	r2,r2,65535
100045b8:	10000426 	beq	r2,zero,100045cc <main+0x4ac>
		{
			printf("[INFO]: full speed device\n");
100045bc:	010400b4 	movhi	r4,4098
100045c0:	2114ce04 	addi	r4,r4,21304
100045c4:	00170b40 	call	100170b4 <puts>
100045c8:	00000306 	br	100045d8 <main+0x4b8>
		}
		else
		{
			printf("[INFO]: low speed device\n");
100045cc:	010400b4 	movhi	r4,4098
100045d0:	2114d504 	addi	r4,r4,21332
100045d4:	00170b40 	call	100170b4 <puts>



	// STEP 3 begin
	//------------------------------------------------------set address -----------------------------------------------------------------
	UsbSetAddress();
100045d8:	00056240 	call	10005624 <UsbSetAddress>

	while (!(IO_read(HPI_STATUS) & HPI_STATUS_SIE1msg_FLAG) )  //read sie1 msg register
100045dc:	00000306 	br	100045ec <main+0x4cc>
	{
		UsbSetAddress();
100045e0:	00056240 	call	10005624 <UsbSetAddress>
		usleep(10*1000);
100045e4:	0109c404 	movi	r4,10000
100045e8:	00231340 	call	10023134 <usleep>
	while (!(IO_read(HPI_STATUS) & HPI_STATUS_SIE1msg_FLAG) )  //read sie1 msg register
100045ec:	010000c4 	movi	r4,3
100045f0:	00006840 	call	10000684 <IO_read>
100045f4:	10bfffcc 	andi	r2,r2,65535
100045f8:	1080040c 	andi	r2,r2,16
100045fc:	103ff826 	beq	r2,zero,100045e0 <main+0x4c0>
	}

	UsbWaitTDListDone();
10004600:	00064c40 	call	100064c4 <UsbWaitTDListDone>

	IO_write(HPI_ADDR,0x0506); // i
10004604:	01414184 	movi	r5,1286
10004608:	01000084 	movi	r4,2
1000460c:	00006100 	call	10000610 <IO_write>
	printf("[ENUM PROCESS]:step 3 TD Status Byte is %x\n",IO_read(HPI_DATA));
10004610:	0009883a 	mov	r4,zero
10004614:	00006840 	call	10000684 <IO_read>
10004618:	10bfffcc 	andi	r2,r2,65535
1000461c:	100b883a 	mov	r5,r2
10004620:	010400b4 	movhi	r4,4098
10004624:	2114dc04 	addi	r4,r4,21360
10004628:	0016f900 	call	10016f90 <printf>

	IO_write(HPI_ADDR,0x0508); // n
1000462c:	01414204 	movi	r5,1288
10004630:	01000084 	movi	r4,2
10004634:	00006100 	call	10000610 <IO_write>
	usb_ctl_val = IO_read(HPI_DATA);
10004638:	0009883a 	mov	r4,zero
1000463c:	00006840 	call	10000684 <IO_read>
10004640:	e0bfff8d 	sth	r2,-2(fp)
	printf("[ENUM PROCESS]:step 3 TD Control Byte is %x\n",usb_ctl_val);
10004644:	e0bfff8b 	ldhu	r2,-2(fp)
10004648:	100b883a 	mov	r5,r2
1000464c:	010400b4 	movhi	r4,4098
10004650:	2114e704 	addi	r4,r4,21404
10004654:	0016f900 	call	10016f90 <printf>
	while (usb_ctl_val != 0x03) // retries occurred
10004658:	e0bfff8b 	ldhu	r2,-2(fp)
1000465c:	108000e0 	cmpeqi	r2,r2,3
10004660:	1000031e 	bne	r2,zero,10004670 <main+0x550>
	{
		usb_ctl_val = UsbGetRetryCnt();
10004664:	00065480 	call	10006548 <UsbGetRetryCnt>
10004668:	e0bfff8d 	sth	r2,-2(fp)

		goto USB_HOT_PLUG;
1000466c:	003ecc06 	br	100041a0 <main+0x80>
	}

	printf("------------[ENUM PROCESS]:set address done!---------------\n");
10004670:	010400b4 	movhi	r4,4098
10004674:	2114f304 	addi	r4,r4,21452
10004678:	00170b40 	call	100170b4 <puts>

	// STEP 4 begin
	//-------------------------------get device descriptor-1 -----------------------------------//
	// TASK: Call the appropriate function for this step.
	UsbGetDeviceDesc1(); 	// Get Device Descriptor -1
1000467c:	00057240 	call	10005724 <UsbGetDeviceDesc1>

	//usleep(10*1000);
	while (!(IO_read(HPI_STATUS) & HPI_STATUS_SIE1msg_FLAG) )  //read sie1 msg register
10004680:	00000306 	br	10004690 <main+0x570>
	{
		// TASK: Call the appropriate function again if it wasn't processed successfully.
		UsbGetDeviceDesc1();
10004684:	00057240 	call	10005724 <UsbGetDeviceDesc1>
		usleep(10*1000);
10004688:	0109c404 	movi	r4,10000
1000468c:	00231340 	call	10023134 <usleep>
	while (!(IO_read(HPI_STATUS) & HPI_STATUS_SIE1msg_FLAG) )  //read sie1 msg register
10004690:	010000c4 	movi	r4,3
10004694:	00006840 	call	10000684 <IO_read>
10004698:	10bfffcc 	andi	r2,r2,65535
1000469c:	1080040c 	andi	r2,r2,16
100046a0:	103ff826 	beq	r2,zero,10004684 <main+0x564>
	}

	UsbWaitTDListDone();
100046a4:	00064c40 	call	100064c4 <UsbWaitTDListDone>

	IO_write(HPI_ADDR,0x0506);
100046a8:	01414184 	movi	r5,1286
100046ac:	01000084 	movi	r4,2
100046b0:	00006100 	call	10000610 <IO_write>
	printf("[ENUM PROCESS]:step 4 TD Status Byte is %x\n",IO_read(HPI_DATA));
100046b4:	0009883a 	mov	r4,zero
100046b8:	00006840 	call	10000684 <IO_read>
100046bc:	10bfffcc 	andi	r2,r2,65535
100046c0:	100b883a 	mov	r5,r2
100046c4:	010400b4 	movhi	r4,4098
100046c8:	21150204 	addi	r4,r4,21512
100046cc:	0016f900 	call	10016f90 <printf>

	IO_write(HPI_ADDR,0x0508);
100046d0:	01414204 	movi	r5,1288
100046d4:	01000084 	movi	r4,2
100046d8:	00006100 	call	10000610 <IO_write>
	usb_ctl_val = IO_read(HPI_DATA);
100046dc:	0009883a 	mov	r4,zero
100046e0:	00006840 	call	10000684 <IO_read>
100046e4:	e0bfff8d 	sth	r2,-2(fp)
	printf("[ENUM PROCESS]:step 4 TD Control Byte is %x\n",usb_ctl_val);
100046e8:	e0bfff8b 	ldhu	r2,-2(fp)
100046ec:	100b883a 	mov	r5,r2
100046f0:	010400b4 	movhi	r4,4098
100046f4:	21150d04 	addi	r4,r4,21556
100046f8:	0016f900 	call	10016f90 <printf>
	while (usb_ctl_val != 0x03)
100046fc:	e0bfff8b 	ldhu	r2,-2(fp)
10004700:	108000e0 	cmpeqi	r2,r2,3
10004704:	1000061e 	bne	r2,zero,10004720 <main+0x600>
	{
		usb_ctl_val = UsbGetRetryCnt();
10004708:	00065480 	call	10006548 <UsbGetRetryCnt>
1000470c:	e0bfff8d 	sth	r2,-2(fp)

		// Fatal problem; try again
		printf ("Encountered Fatal Error, restarting\n");
10004710:	010400b4 	movhi	r4,4098
10004714:	21151904 	addi	r4,r4,21604
10004718:	00170b40 	call	100170b4 <puts>
		goto USB_HOT_PLUG;
1000471c:	003ea006 	br	100041a0 <main+0x80>
	}

	printf("---------------[ENUM PROCESS]:get device descriptor-1 done!-----------------\n");
10004720:	010400b4 	movhi	r4,4098
10004724:	21152204 	addi	r4,r4,21640
10004728:	00170b40 	call	100170b4 <puts>


	//--------------------------------get device descriptor-2---------------------------------------------//
	//get device descriptor
	// TASK: Call the appropriate function for this step.
	UsbGetDeviceDesc2(); 	// Get Device Descriptor -2
1000472c:	000586c0 	call	1000586c <UsbGetDeviceDesc2>

	//if no message
	while (!(IO_read(HPI_STATUS) & HPI_STATUS_SIE1msg_FLAG) )  //read sie1 msg register
10004730:	00000306 	br	10004740 <main+0x620>
	{
		//resend the get device descriptor
		//get device descriptor
		// TASK: Call the appropriate function again if it wasn't processed successfully.
		UsbGetDeviceDesc2();
10004734:	000586c0 	call	1000586c <UsbGetDeviceDesc2>
		usleep(10*1000);
10004738:	0109c404 	movi	r4,10000
1000473c:	00231340 	call	10023134 <usleep>
	while (!(IO_read(HPI_STATUS) & HPI_STATUS_SIE1msg_FLAG) )  //read sie1 msg register
10004740:	010000c4 	movi	r4,3
10004744:	00006840 	call	10000684 <IO_read>
10004748:	10bfffcc 	andi	r2,r2,65535
1000474c:	1080040c 	andi	r2,r2,16
10004750:	103ff826 	beq	r2,zero,10004734 <main+0x614>
	}

	UsbWaitTDListDone();
10004754:	00064c40 	call	100064c4 <UsbWaitTDListDone>

	IO_write(HPI_ADDR,0x0506);
10004758:	01414184 	movi	r5,1286
1000475c:	01000084 	movi	r4,2
10004760:	00006100 	call	10000610 <IO_write>
	printf("[ENUM PROCESS]:step 4 TD Status Byte is %x\n",IO_read(HPI_DATA));
10004764:	0009883a 	mov	r4,zero
10004768:	00006840 	call	10000684 <IO_read>
1000476c:	10bfffcc 	andi	r2,r2,65535
10004770:	100b883a 	mov	r5,r2
10004774:	010400b4 	movhi	r4,4098
10004778:	21150204 	addi	r4,r4,21512
1000477c:	0016f900 	call	10016f90 <printf>

	IO_write(HPI_ADDR,0x0508);
10004780:	01414204 	movi	r5,1288
10004784:	01000084 	movi	r4,2
10004788:	00006100 	call	10000610 <IO_write>
	usb_ctl_val = IO_read(HPI_DATA);
1000478c:	0009883a 	mov	r4,zero
10004790:	00006840 	call	10000684 <IO_read>
10004794:	e0bfff8d 	sth	r2,-2(fp)
	printf("[ENUM PROCESS]:step 4 TD Control Byte is %x\n",usb_ctl_val);
10004798:	e0bfff8b 	ldhu	r2,-2(fp)
1000479c:	100b883a 	mov	r5,r2
100047a0:	010400b4 	movhi	r4,4098
100047a4:	21150d04 	addi	r4,r4,21556
100047a8:	0016f900 	call	10016f90 <printf>
	while (usb_ctl_val != 0x03)
100047ac:	e0bfff8b 	ldhu	r2,-2(fp)
100047b0:	108000e0 	cmpeqi	r2,r2,3
100047b4:	1000061e 	bne	r2,zero,100047d0 <main+0x6b0>
	{
		usb_ctl_val = UsbGetRetryCnt();
100047b8:	00065480 	call	10006548 <UsbGetRetryCnt>
100047bc:	e0bfff8d 	sth	r2,-2(fp)

		// Fatal problem; try again
		printf ("Encountered Fatal Error, restarting\n");
100047c0:	010400b4 	movhi	r4,4098
100047c4:	21151904 	addi	r4,r4,21604
100047c8:	00170b40 	call	100170b4 <puts>
		goto USB_HOT_PLUG;
100047cc:	003e7406 	br	100041a0 <main+0x80>
	}

	printf("------------[ENUM PROCESS]:get device descriptor-2 done!--------------\n");
100047d0:	010400b4 	movhi	r4,4098
100047d4:	21153604 	addi	r4,r4,21720
100047d8:	00170b40 	call	100170b4 <puts>


	// STEP 5 begin
	//-----------------------------------get configuration descriptor -1 ----------------------------------//
	// TASK: Call the appropriate function for this step.
	UsbGetConfigDesc1(); 	// Get Configuration Descriptor -1
100047dc:	0005a440 	call	10005a44 <UsbGetConfigDesc1>

	//if no message
	while (!(IO_read(HPI_STATUS) & HPI_STATUS_SIE1msg_FLAG) )  //read sie1 msg register
100047e0:	00000306 	br	100047f0 <main+0x6d0>
	{
		//resend the get device descriptor
		//get device descriptor

		// TASK: Call the appropriate function again if it wasn't processed successfully.
		UsbGetConfigDesc1();
100047e4:	0005a440 	call	10005a44 <UsbGetConfigDesc1>
		usleep(10*1000);
100047e8:	0109c404 	movi	r4,10000
100047ec:	00231340 	call	10023134 <usleep>
	while (!(IO_read(HPI_STATUS) & HPI_STATUS_SIE1msg_FLAG) )  //read sie1 msg register
100047f0:	010000c4 	movi	r4,3
100047f4:	00006840 	call	10000684 <IO_read>
100047f8:	10bfffcc 	andi	r2,r2,65535
100047fc:	1080040c 	andi	r2,r2,16
10004800:	103ff826 	beq	r2,zero,100047e4 <main+0x6c4>
	}

	UsbWaitTDListDone();
10004804:	00064c40 	call	100064c4 <UsbWaitTDListDone>

	IO_write(HPI_ADDR,0x0506);
10004808:	01414184 	movi	r5,1286
1000480c:	01000084 	movi	r4,2
10004810:	00006100 	call	10000610 <IO_write>
	printf("[ENUM PROCESS]:step 5 TD Status Byte is %x\n",IO_read(HPI_DATA));
10004814:	0009883a 	mov	r4,zero
10004818:	00006840 	call	10000684 <IO_read>
1000481c:	10bfffcc 	andi	r2,r2,65535
10004820:	100b883a 	mov	r5,r2
10004824:	010400b4 	movhi	r4,4098
10004828:	21154804 	addi	r4,r4,21792
1000482c:	0016f900 	call	10016f90 <printf>

	IO_write(HPI_ADDR,0x0508);
10004830:	01414204 	movi	r5,1288
10004834:	01000084 	movi	r4,2
10004838:	00006100 	call	10000610 <IO_write>
	usb_ctl_val = IO_read(HPI_DATA);
1000483c:	0009883a 	mov	r4,zero
10004840:	00006840 	call	10000684 <IO_read>
10004844:	e0bfff8d 	sth	r2,-2(fp)
	printf("[ENUM PROCESS]:step 5 TD Control Byte is %x\n",usb_ctl_val);
10004848:	e0bfff8b 	ldhu	r2,-2(fp)
1000484c:	100b883a 	mov	r5,r2
10004850:	010400b4 	movhi	r4,4098
10004854:	21155304 	addi	r4,r4,21836
10004858:	0016f900 	call	10016f90 <printf>
	while (usb_ctl_val != 0x03)
1000485c:	e0bfff8b 	ldhu	r2,-2(fp)
10004860:	108000e0 	cmpeqi	r2,r2,3
10004864:	1000061e 	bne	r2,zero,10004880 <main+0x760>
	{
		usb_ctl_val = UsbGetRetryCnt();
10004868:	00065480 	call	10006548 <UsbGetRetryCnt>
1000486c:	e0bfff8d 	sth	r2,-2(fp)

		// Fatal problem; try again
		printf ("Encountered Fatal Error, restarting\n");
10004870:	010400b4 	movhi	r4,4098
10004874:	21151904 	addi	r4,r4,21604
10004878:	00170b40 	call	100170b4 <puts>
		goto USB_HOT_PLUG;
1000487c:	003e4806 	br	100041a0 <main+0x80>
	}
	printf("------------[ENUM PROCESS]:get configuration descriptor-1 pass------------\n");
10004880:	010400b4 	movhi	r4,4098
10004884:	21155f04 	addi	r4,r4,21884
10004888:	00170b40 	call	100170b4 <puts>

	// STEP 6 begin
	//-----------------------------------get configuration descriptor-2------------------------------------//
	//get device descriptor
	// TASK: Call the appropriate function for this step.
	UsbGetConfigDesc2(); 	// Get Configuration Descriptor -2
1000488c:	0005bd40 	call	10005bd4 <UsbGetConfigDesc2>

	usleep(100*1000);
10004890:	010000b4 	movhi	r4,2
10004894:	2121a804 	addi	r4,r4,-31072
10004898:	00231340 	call	10023134 <usleep>
	//if no message
	while (!(IO_read(HPI_STATUS) & HPI_STATUS_SIE1msg_FLAG) )  //read sie1 msg register
1000489c:	00000306 	br	100048ac <main+0x78c>
	{
		// TASK: Call the appropriate function again if it wasn't processed successfully.
		UsbGetConfigDesc2();
100048a0:	0005bd40 	call	10005bd4 <UsbGetConfigDesc2>
		usleep(10*1000);
100048a4:	0109c404 	movi	r4,10000
100048a8:	00231340 	call	10023134 <usleep>
	while (!(IO_read(HPI_STATUS) & HPI_STATUS_SIE1msg_FLAG) )  //read sie1 msg register
100048ac:	010000c4 	movi	r4,3
100048b0:	00006840 	call	10000684 <IO_read>
100048b4:	10bfffcc 	andi	r2,r2,65535
100048b8:	1080040c 	andi	r2,r2,16
100048bc:	103ff826 	beq	r2,zero,100048a0 <main+0x780>
	}

	UsbWaitTDListDone();
100048c0:	00064c40 	call	100064c4 <UsbWaitTDListDone>

	IO_write(HPI_ADDR,0x0506);
100048c4:	01414184 	movi	r5,1286
100048c8:	01000084 	movi	r4,2
100048cc:	00006100 	call	10000610 <IO_write>
	printf("[ENUM PROCESS]:step 6 TD Status Byte is %x\n",IO_read(HPI_DATA));
100048d0:	0009883a 	mov	r4,zero
100048d4:	00006840 	call	10000684 <IO_read>
100048d8:	10bfffcc 	andi	r2,r2,65535
100048dc:	100b883a 	mov	r5,r2
100048e0:	010400b4 	movhi	r4,4098
100048e4:	21157204 	addi	r4,r4,21960
100048e8:	0016f900 	call	10016f90 <printf>

	IO_write(HPI_ADDR,0x0508);
100048ec:	01414204 	movi	r5,1288
100048f0:	01000084 	movi	r4,2
100048f4:	00006100 	call	10000610 <IO_write>
	usb_ctl_val = IO_read(HPI_DATA);
100048f8:	0009883a 	mov	r4,zero
100048fc:	00006840 	call	10000684 <IO_read>
10004900:	e0bfff8d 	sth	r2,-2(fp)
	printf("[ENUM PROCESS]:step 6 TD Control Byte is %x\n",usb_ctl_val);
10004904:	e0bfff8b 	ldhu	r2,-2(fp)
10004908:	100b883a 	mov	r5,r2
1000490c:	010400b4 	movhi	r4,4098
10004910:	21157d04 	addi	r4,r4,22004
10004914:	0016f900 	call	10016f90 <printf>
	while (usb_ctl_val != 0x03)
10004918:	e0bfff8b 	ldhu	r2,-2(fp)
1000491c:	108000e0 	cmpeqi	r2,r2,3
10004920:	1000061e 	bne	r2,zero,1000493c <main+0x81c>
	{
		usb_ctl_val = UsbGetRetryCnt();
10004924:	00065480 	call	10006548 <UsbGetRetryCnt>
10004928:	e0bfff8d 	sth	r2,-2(fp)

		// Fatal problem; try again
		printf ("Encountered Fatal Error, restarting\n");
1000492c:	010400b4 	movhi	r4,4098
10004930:	21151904 	addi	r4,r4,21604
10004934:	00170b40 	call	100170b4 <puts>
		goto USB_HOT_PLUG;
10004938:	003e1906 	br	100041a0 <main+0x80>
	}


	printf("-----------[ENUM PROCESS]:get configuration descriptor-2 done!------------\n");
1000493c:	010400b4 	movhi	r4,4098
10004940:	21158904 	addi	r4,r4,22052
10004944:	00170b40 	call	100170b4 <puts>


	// ---------------------------------get device info---------------------------------------------//

	// TASK: Write the address to read from the memory for byte 7 of the interface descriptor to HPI_ADDR.
	IO_write(HPI_ADDR,0x056c);
10004948:	01415b04 	movi	r5,1388
1000494c:	01000084 	movi	r4,2
10004950:	00006100 	call	10000610 <IO_write>
	code = IO_read(HPI_DATA);
10004954:	0009883a 	mov	r4,zero
10004958:	00006840 	call	10000684 <IO_read>
1000495c:	e0bffb0d 	sth	r2,-20(fp)
	code = code & 0x003;
10004960:	e0bffb0b 	ldhu	r2,-20(fp)
10004964:	108000cc 	andi	r2,r2,3
10004968:	e0bffb0d 	sth	r2,-20(fp)
	printf("\ncode = %x\n", code);
1000496c:	e0bffb0b 	ldhu	r2,-20(fp)
10004970:	100b883a 	mov	r5,r2
10004974:	010400b4 	movhi	r4,4098
10004978:	21159c04 	addi	r4,r4,22128
1000497c:	0016f900 	call	10016f90 <printf>

	if (code == 0x01)
10004980:	e0bffb0b 	ldhu	r2,-20(fp)
10004984:	10800058 	cmpnei	r2,r2,1
10004988:	1000041e 	bne	r2,zero,1000499c <main+0x87c>
	{
		printf("\n[INFO]:check TD rec data7 \n[INFO]:Keyboard Detected!!!\n\n");
1000498c:	010400b4 	movhi	r4,4098
10004990:	21159f04 	addi	r4,r4,22140
10004994:	00170b40 	call	100170b4 <puts>
10004998:	00000306 	br	100049a8 <main+0x888>
	}
	else
	{
		printf("\n[INFO]:Keyboard Not Detected!!! \n\n");
1000499c:	010400b4 	movhi	r4,4098
100049a0:	2115ae04 	addi	r4,r4,22200
100049a4:	00170b40 	call	100170b4 <puts>
	}

	// TASK: Write the address to read from the memory for the endpoint descriptor to HPI_ADDR.

	IO_write(HPI_ADDR,0x0576);
100049a8:	01415d84 	movi	r5,1398
100049ac:	01000084 	movi	r4,2
100049b0:	00006100 	call	10000610 <IO_write>
	IO_write(HPI_DATA,0x073F);
100049b4:	0141cfc4 	movi	r5,1855
100049b8:	0009883a 	mov	r4,zero
100049bc:	00006100 	call	10000610 <IO_write>
	IO_write(HPI_DATA,0x8105);
100049c0:	01604154 	movui	r5,33029
100049c4:	0009883a 	mov	r4,zero
100049c8:	00006100 	call	10000610 <IO_write>
	IO_write(HPI_DATA,0x0003);
100049cc:	014000c4 	movi	r5,3
100049d0:	0009883a 	mov	r4,zero
100049d4:	00006100 	call	10000610 <IO_write>
	IO_write(HPI_DATA,0x0008);
100049d8:	01400204 	movi	r5,8
100049dc:	0009883a 	mov	r4,zero
100049e0:	00006100 	call	10000610 <IO_write>
	IO_write(HPI_DATA,0xAC0A);
100049e4:	016b0294 	movui	r5,44042
100049e8:	0009883a 	mov	r4,zero
100049ec:	00006100 	call	10000610 <IO_write>
	UsbWrite(HUSB_SIE1_pCurrentTDPtr,0x0576); //HUSB_SIE1_pCurrentTDPtr
100049f0:	01415d84 	movi	r5,1398
100049f4:	01006c04 	movi	r4,432
100049f8:	00054d00 	call	100054d0 <UsbWrite>

	//data_size = (IO_read(HPI_DATA)>>8)&0x0ff;
	//data_size = 0x08;//(IO_read(HPI_DATA))&0x0ff;
	//UsbPrintMem();
	IO_write(HPI_ADDR,0x057c);
100049fc:	01415f04 	movi	r5,1404
10004a00:	01000084 	movi	r4,2
10004a04:	00006100 	call	10000610 <IO_write>
	data_size = (IO_read(HPI_DATA))&0x0ff;
10004a08:	0009883a 	mov	r4,zero
10004a0c:	00006840 	call	10000684 <IO_read>
10004a10:	e0bffac5 	stb	r2,-21(fp)
	printf("[ENUM PROCESS]:data packet size is %d\n",data_size);
10004a14:	e0bffac3 	ldbu	r2,-21(fp)
10004a18:	100b883a 	mov	r5,r2
10004a1c:	010400b4 	movhi	r4,4098
10004a20:	2115b704 	addi	r4,r4,22236
10004a24:	0016f900 	call	10016f90 <printf>
	// STEP 7 begin
	//------------------------------------set configuration -----------------------------------------//
	// TASK: Call the appropriate function for this step.
	UsbSetConfig();		// Set Configuration
10004a28:	0005e3c0 	call	10005e3c <UsbSetConfig>

	while (!(IO_read(HPI_STATUS) & HPI_STATUS_SIE1msg_FLAG) )  //read sie1 msg register
10004a2c:	00000306 	br	10004a3c <main+0x91c>
	{
		// TASK: Call the appropriate function again if it wasn't processed successfully.
		UsbSetConfig();		// Set Configuration
10004a30:	0005e3c0 	call	10005e3c <UsbSetConfig>
		usleep(10*1000);
10004a34:	0109c404 	movi	r4,10000
10004a38:	00231340 	call	10023134 <usleep>
	while (!(IO_read(HPI_STATUS) & HPI_STATUS_SIE1msg_FLAG) )  //read sie1 msg register
10004a3c:	010000c4 	movi	r4,3
10004a40:	00006840 	call	10000684 <IO_read>
10004a44:	10bfffcc 	andi	r2,r2,65535
10004a48:	1080040c 	andi	r2,r2,16
10004a4c:	103ff826 	beq	r2,zero,10004a30 <main+0x910>
	}

	UsbWaitTDListDone();
10004a50:	00064c40 	call	100064c4 <UsbWaitTDListDone>

	IO_write(HPI_ADDR,0x0506);
10004a54:	01414184 	movi	r5,1286
10004a58:	01000084 	movi	r4,2
10004a5c:	00006100 	call	10000610 <IO_write>
	printf("[ENUM PROCESS]:step 7 TD Status Byte is %x\n",IO_read(HPI_DATA));
10004a60:	0009883a 	mov	r4,zero
10004a64:	00006840 	call	10000684 <IO_read>
10004a68:	10bfffcc 	andi	r2,r2,65535
10004a6c:	100b883a 	mov	r5,r2
10004a70:	010400b4 	movhi	r4,4098
10004a74:	2115c104 	addi	r4,r4,22276
10004a78:	0016f900 	call	10016f90 <printf>

	IO_write(HPI_ADDR,0x0508);
10004a7c:	01414204 	movi	r5,1288
10004a80:	01000084 	movi	r4,2
10004a84:	00006100 	call	10000610 <IO_write>
	usb_ctl_val = IO_read(HPI_DATA);
10004a88:	0009883a 	mov	r4,zero
10004a8c:	00006840 	call	10000684 <IO_read>
10004a90:	e0bfff8d 	sth	r2,-2(fp)
	printf("[ENUM PROCESS]:step 7 TD Control Byte is %x\n",usb_ctl_val);
10004a94:	e0bfff8b 	ldhu	r2,-2(fp)
10004a98:	100b883a 	mov	r5,r2
10004a9c:	010400b4 	movhi	r4,4098
10004aa0:	2115cc04 	addi	r4,r4,22320
10004aa4:	0016f900 	call	10016f90 <printf>
	while (usb_ctl_val != 0x03)
10004aa8:	e0bfff8b 	ldhu	r2,-2(fp)
10004aac:	108000e0 	cmpeqi	r2,r2,3
10004ab0:	1000061e 	bne	r2,zero,10004acc <main+0x9ac>
	{
		usb_ctl_val = UsbGetRetryCnt();
10004ab4:	00065480 	call	10006548 <UsbGetRetryCnt>
10004ab8:	e0bfff8d 	sth	r2,-2(fp)

		// Fatal problem; try again
		printf ("Encountered Fatal Error, restarting\n");
10004abc:	010400b4 	movhi	r4,4098
10004ac0:	21151904 	addi	r4,r4,21604
10004ac4:	00170b40 	call	100170b4 <puts>
		goto USB_HOT_PLUG;
10004ac8:	003db506 	br	100041a0 <main+0x80>
	}

	printf("------------[ENUM PROCESS]:set configuration done!-------------------\n");
10004acc:	010400b4 	movhi	r4,4098
10004ad0:	2115d804 	addi	r4,r4,22368
10004ad4:	00170b40 	call	100170b4 <puts>

	//----------------------------------------------class request out ------------------------------------------//
	// TASK: Call the appropriate function for this step.
	UsbClassRequest();
10004ad8:	0005f3c0 	call	10005f3c <UsbClassRequest>

	while (!(IO_read(HPI_STATUS) & HPI_STATUS_SIE1msg_FLAG) )  //read sie1 msg register
10004adc:	00000306 	br	10004aec <main+0x9cc>
	{
		// TASK: Call the appropriate function again if it wasn't processed successfully.
		UsbClassRequest();
10004ae0:	0005f3c0 	call	10005f3c <UsbClassRequest>
		usleep(10*1000);
10004ae4:	0109c404 	movi	r4,10000
10004ae8:	00231340 	call	10023134 <usleep>
	while (!(IO_read(HPI_STATUS) & HPI_STATUS_SIE1msg_FLAG) )  //read sie1 msg register
10004aec:	010000c4 	movi	r4,3
10004af0:	00006840 	call	10000684 <IO_read>
10004af4:	10bfffcc 	andi	r2,r2,65535
10004af8:	1080040c 	andi	r2,r2,16
10004afc:	103ff826 	beq	r2,zero,10004ae0 <main+0x9c0>
	}

	UsbWaitTDListDone();
10004b00:	00064c40 	call	100064c4 <UsbWaitTDListDone>

	IO_write(HPI_ADDR,0x0506);
10004b04:	01414184 	movi	r5,1286
10004b08:	01000084 	movi	r4,2
10004b0c:	00006100 	call	10000610 <IO_write>
	printf("[ENUM PROCESS]:step 8 TD Status Byte is %x\n",IO_read(HPI_DATA));
10004b10:	0009883a 	mov	r4,zero
10004b14:	00006840 	call	10000684 <IO_read>
10004b18:	10bfffcc 	andi	r2,r2,65535
10004b1c:	100b883a 	mov	r5,r2
10004b20:	010400b4 	movhi	r4,4098
10004b24:	2115ea04 	addi	r4,r4,22440
10004b28:	0016f900 	call	10016f90 <printf>

	IO_write(HPI_ADDR,0x0508);
10004b2c:	01414204 	movi	r5,1288
10004b30:	01000084 	movi	r4,2
10004b34:	00006100 	call	10000610 <IO_write>
	usb_ctl_val = IO_read(HPI_DATA);
10004b38:	0009883a 	mov	r4,zero
10004b3c:	00006840 	call	10000684 <IO_read>
10004b40:	e0bfff8d 	sth	r2,-2(fp)
	printf("[ENUM PROCESS]:step 8 TD Control Byte is %x\n",usb_ctl_val);
10004b44:	e0bfff8b 	ldhu	r2,-2(fp)
10004b48:	100b883a 	mov	r5,r2
10004b4c:	010400b4 	movhi	r4,4098
10004b50:	2115f504 	addi	r4,r4,22484
10004b54:	0016f900 	call	10016f90 <printf>
	while (usb_ctl_val != 0x03)
10004b58:	e0bfff8b 	ldhu	r2,-2(fp)
10004b5c:	108000e0 	cmpeqi	r2,r2,3
10004b60:	1000061e 	bne	r2,zero,10004b7c <main+0xa5c>
	{
		usb_ctl_val = UsbGetRetryCnt();
10004b64:	00065480 	call	10006548 <UsbGetRetryCnt>
10004b68:	e0bfff8d 	sth	r2,-2(fp)

		// Fatal problem; try again
		printf ("Encountered Fatal Error, restarting\n");
10004b6c:	010400b4 	movhi	r4,4098
10004b70:	21151904 	addi	r4,r4,21604
10004b74:	00170b40 	call	100170b4 <puts>
		goto USB_HOT_PLUG;
10004b78:	003d8906 	br	100041a0 <main+0x80>
	}


	printf("------------[ENUM PROCESS]:class request out done!-------------------\n");
10004b7c:	010400b4 	movhi	r4,4098
10004b80:	21160104 	addi	r4,r4,22532
10004b84:	00170b40 	call	100170b4 <puts>

	// STEP 8 begin
	//----------------------------------get descriptor(class 0x21 = HID) request out --------------------------------//
	// TASK: Call the appropriate function for this step.
	UsbGetHidDesc();
10004b88:	000603c0 	call	1000603c <UsbGetHidDesc>

	while (!(IO_read(HPI_STATUS) & HPI_STATUS_SIE1msg_FLAG) )  //read sie1 msg register
10004b8c:	00000306 	br	10004b9c <main+0xa7c>
	{
		// TASK: Call the appropriate function again if it wasn't processed successfully.
		UsbGetHidDesc();
10004b90:	000603c0 	call	1000603c <UsbGetHidDesc>
		usleep(10*1000);
10004b94:	0109c404 	movi	r4,10000
10004b98:	00231340 	call	10023134 <usleep>
	while (!(IO_read(HPI_STATUS) & HPI_STATUS_SIE1msg_FLAG) )  //read sie1 msg register
10004b9c:	010000c4 	movi	r4,3
10004ba0:	00006840 	call	10000684 <IO_read>
10004ba4:	10bfffcc 	andi	r2,r2,65535
10004ba8:	1080040c 	andi	r2,r2,16
10004bac:	103ff826 	beq	r2,zero,10004b90 <main+0xa70>
	}

	UsbWaitTDListDone();
10004bb0:	00064c40 	call	100064c4 <UsbWaitTDListDone>

	IO_write(HPI_ADDR,0x0506);
10004bb4:	01414184 	movi	r5,1286
10004bb8:	01000084 	movi	r4,2
10004bbc:	00006100 	call	10000610 <IO_write>
	printf("[ENUM PROCESS]:step 8 TD Status Byte is %x\n",IO_read(HPI_DATA));
10004bc0:	0009883a 	mov	r4,zero
10004bc4:	00006840 	call	10000684 <IO_read>
10004bc8:	10bfffcc 	andi	r2,r2,65535
10004bcc:	100b883a 	mov	r5,r2
10004bd0:	010400b4 	movhi	r4,4098
10004bd4:	2115ea04 	addi	r4,r4,22440
10004bd8:	0016f900 	call	10016f90 <printf>

	IO_write(HPI_ADDR,0x0508);
10004bdc:	01414204 	movi	r5,1288
10004be0:	01000084 	movi	r4,2
10004be4:	00006100 	call	10000610 <IO_write>
	usb_ctl_val = IO_read(HPI_DATA);
10004be8:	0009883a 	mov	r4,zero
10004bec:	00006840 	call	10000684 <IO_read>
10004bf0:	e0bfff8d 	sth	r2,-2(fp)
	printf("[ENUM PROCESS]:step 8 TD Control Byte is %x\n",usb_ctl_val);
10004bf4:	e0bfff8b 	ldhu	r2,-2(fp)
10004bf8:	100b883a 	mov	r5,r2
10004bfc:	010400b4 	movhi	r4,4098
10004c00:	2115f504 	addi	r4,r4,22484
10004c04:	0016f900 	call	10016f90 <printf>
	while (usb_ctl_val != 0x03)
10004c08:	e0bfff8b 	ldhu	r2,-2(fp)
10004c0c:	108000e0 	cmpeqi	r2,r2,3
10004c10:	1000061e 	bne	r2,zero,10004c2c <main+0xb0c>
	{
		usb_ctl_val = UsbGetRetryCnt();
10004c14:	00065480 	call	10006548 <UsbGetRetryCnt>
10004c18:	e0bfff8d 	sth	r2,-2(fp)

		// Fatal problem; try again
		printf ("Encountered Fatal Error, restarting\n");
10004c1c:	010400b4 	movhi	r4,4098
10004c20:	21151904 	addi	r4,r4,21604
10004c24:	00170b40 	call	100170b4 <puts>
		goto USB_HOT_PLUG;
10004c28:	003d5d06 	br	100041a0 <main+0x80>
	}

	printf("------------[ENUM PROCESS]:get descriptor (class 0x21) done!-------------------\n");
10004c2c:	010400b4 	movhi	r4,4098
10004c30:	21161304 	addi	r4,r4,22604
10004c34:	00170b40 	call	100170b4 <puts>

	// STEP 9 begin
	//-------------------------------get descriptor (class 0x22 = report)-------------------------------------------//
	// TASK: Call the appropriate function for this step.
	UsbGetReportDesc();
10004c38:	00061840 	call	10006184 <UsbGetReportDesc>
	//if no message
	while (!(IO_read(HPI_STATUS) & HPI_STATUS_SIE1msg_FLAG) )  //read sie1 msg register
10004c3c:	00000306 	br	10004c4c <main+0xb2c>
	{
		// TASK: Call the appropriate function again if it wasn't processed successfully.
		UsbGetReportDesc();
10004c40:	00061840 	call	10006184 <UsbGetReportDesc>
		usleep(10*1000);
10004c44:	0109c404 	movi	r4,10000
10004c48:	00231340 	call	10023134 <usleep>
	while (!(IO_read(HPI_STATUS) & HPI_STATUS_SIE1msg_FLAG) )  //read sie1 msg register
10004c4c:	010000c4 	movi	r4,3
10004c50:	00006840 	call	10000684 <IO_read>
10004c54:	10bfffcc 	andi	r2,r2,65535
10004c58:	1080040c 	andi	r2,r2,16
10004c5c:	103ff826 	beq	r2,zero,10004c40 <main+0xb20>
	}

	UsbWaitTDListDone();
10004c60:	00064c40 	call	100064c4 <UsbWaitTDListDone>

	IO_write(HPI_ADDR,0x0506);
10004c64:	01414184 	movi	r5,1286
10004c68:	01000084 	movi	r4,2
10004c6c:	00006100 	call	10000610 <IO_write>
	printf("[ENUM PROCESS]: step 9 TD Status Byte is %x\n",IO_read(HPI_DATA));
10004c70:	0009883a 	mov	r4,zero
10004c74:	00006840 	call	10000684 <IO_read>
10004c78:	10bfffcc 	andi	r2,r2,65535
10004c7c:	100b883a 	mov	r5,r2
10004c80:	010400b4 	movhi	r4,4098
10004c84:	21162704 	addi	r4,r4,22684
10004c88:	0016f900 	call	10016f90 <printf>

	IO_write(HPI_ADDR,0x0508);
10004c8c:	01414204 	movi	r5,1288
10004c90:	01000084 	movi	r4,2
10004c94:	00006100 	call	10000610 <IO_write>
	usb_ctl_val = IO_read(HPI_DATA);
10004c98:	0009883a 	mov	r4,zero
10004c9c:	00006840 	call	10000684 <IO_read>
10004ca0:	e0bfff8d 	sth	r2,-2(fp)
	printf("[ENUM PROCESS]: step 9 TD Control Byte is %x\n",usb_ctl_val);
10004ca4:	e0bfff8b 	ldhu	r2,-2(fp)
10004ca8:	100b883a 	mov	r5,r2
10004cac:	010400b4 	movhi	r4,4098
10004cb0:	21163304 	addi	r4,r4,22732
10004cb4:	0016f900 	call	10016f90 <printf>
	while (usb_ctl_val != 0x03)
10004cb8:	e0bfff8b 	ldhu	r2,-2(fp)
10004cbc:	108000e0 	cmpeqi	r2,r2,3
10004cc0:	1000061e 	bne	r2,zero,10004cdc <main+0xbbc>
	{
		usb_ctl_val = UsbGetRetryCnt();
10004cc4:	00065480 	call	10006548 <UsbGetRetryCnt>
10004cc8:	e0bfff8d 	sth	r2,-2(fp)

		// Fatal problem; try again
		printf ("Encountered Fatal Error, restarting\n");
10004ccc:	010400b4 	movhi	r4,4098
10004cd0:	21151904 	addi	r4,r4,21604
10004cd4:	00170b40 	call	100170b4 <puts>
		goto USB_HOT_PLUG;
10004cd8:	003d3106 	br	100041a0 <main+0x80>
	}

	printf("---------------[ENUM PROCESS]:get descriptor (class 0x22) done!----------------\n");
10004cdc:	010400b4 	movhi	r4,4098
10004ce0:	21163f04 	addi	r4,r4,22780
10004ce4:	00170b40 	call	100170b4 <puts>



	//-----------------------------------get keycode value------------------------------------------------//
	usleep(10000);
10004ce8:	0109c404 	movi	r4,10000
10004cec:	00231340 	call	10023134 <usleep>
	while(1)
	{
		toggle++;
10004cf0:	e0bfff43 	ldbu	r2,-3(fp)
10004cf4:	10800044 	addi	r2,r2,1
10004cf8:	e0bfff45 	stb	r2,-3(fp)
		IO_write(HPI_ADDR,0x0500); //the start address
10004cfc:	01414004 	movi	r5,1280
10004d00:	01000084 	movi	r4,2
10004d04:	00006100 	call	10000610 <IO_write>
		//data phase IN-1
		IO_write(HPI_DATA,0x051c); //500
10004d08:	01414704 	movi	r5,1308
10004d0c:	0009883a 	mov	r4,zero
10004d10:	00006100 	call	10000610 <IO_write>

		IO_write(HPI_DATA,0x000f & data_size);//2 data length
10004d14:	e0bffac3 	ldbu	r2,-21(fp)
10004d18:	108003cc 	andi	r2,r2,15
10004d1c:	100b883a 	mov	r5,r2
10004d20:	0009883a 	mov	r4,zero
10004d24:	00006100 	call	10000610 <IO_write>

		IO_write(HPI_DATA,0x0291);//4 //endpoint 1
10004d28:	0140a444 	movi	r5,657
10004d2c:	0009883a 	mov	r4,zero
10004d30:	00006100 	call	10000610 <IO_write>
		if(toggle%2)
10004d34:	e0bfff43 	ldbu	r2,-3(fp)
10004d38:	1080004c 	andi	r2,r2,1
10004d3c:	10803fcc 	andi	r2,r2,255
10004d40:	10000426 	beq	r2,zero,10004d54 <main+0xc34>
		{
			IO_write(HPI_DATA,0x0001);//6 //data 1
10004d44:	01400044 	movi	r5,1
10004d48:	0009883a 	mov	r4,zero
10004d4c:	00006100 	call	10000610 <IO_write>
10004d50:	00000306 	br	10004d60 <main+0xc40>
		}
		else
		{
			IO_write(HPI_DATA,0x0041);//6 //data 1
10004d54:	01401044 	movi	r5,65
10004d58:	0009883a 	mov	r4,zero
10004d5c:	00006100 	call	10000610 <IO_write>
		}
		IO_write(HPI_DATA,0x0013);//8
10004d60:	014004c4 	movi	r5,19
10004d64:	0009883a 	mov	r4,zero
10004d68:	00006100 	call	10000610 <IO_write>
		IO_write(HPI_DATA,0x0000);//a
10004d6c:	000b883a 	mov	r5,zero
10004d70:	0009883a 	mov	r4,zero
10004d74:	00006100 	call	10000610 <IO_write>
		UsbWrite(HUSB_SIE1_pCurrentTDPtr,0x0500); //HUSB_SIE1_pCurrentTDPtr
10004d78:	01414004 	movi	r5,1280
10004d7c:	01006c04 	movi	r4,432
10004d80:	00054d00 	call	100054d0 <UsbWrite>
		
		while (!(IO_read(HPI_STATUS) & HPI_STATUS_SIE1msg_FLAG) )  //read sie1 msg register
10004d84:	00002406 	br	10004e18 <main+0xcf8>
		{
			IO_write(HPI_ADDR,0x0500); //the start address
10004d88:	01414004 	movi	r5,1280
10004d8c:	01000084 	movi	r4,2
10004d90:	00006100 	call	10000610 <IO_write>
			//data phase IN-1
			IO_write(HPI_DATA,0x051c); //500
10004d94:	01414704 	movi	r5,1308
10004d98:	0009883a 	mov	r4,zero
10004d9c:	00006100 	call	10000610 <IO_write>

			IO_write(HPI_DATA,0x000f & data_size);//2 data length
10004da0:	e0bffac3 	ldbu	r2,-21(fp)
10004da4:	108003cc 	andi	r2,r2,15
10004da8:	100b883a 	mov	r5,r2
10004dac:	0009883a 	mov	r4,zero
10004db0:	00006100 	call	10000610 <IO_write>

			IO_write(HPI_DATA,0x0291);//4 //endpoint 1
10004db4:	0140a444 	movi	r5,657
10004db8:	0009883a 	mov	r4,zero
10004dbc:	00006100 	call	10000610 <IO_write>
			if(toggle%2)
10004dc0:	e0bfff43 	ldbu	r2,-3(fp)
10004dc4:	1080004c 	andi	r2,r2,1
10004dc8:	10803fcc 	andi	r2,r2,255
10004dcc:	10000426 	beq	r2,zero,10004de0 <main+0xcc0>
			{
				IO_write(HPI_DATA,0x0001);//6 //data 1
10004dd0:	01400044 	movi	r5,1
10004dd4:	0009883a 	mov	r4,zero
10004dd8:	00006100 	call	10000610 <IO_write>
10004ddc:	00000306 	br	10004dec <main+0xccc>
			}
			else
			{
				IO_write(HPI_DATA,0x0041);//6 //data 1
10004de0:	01401044 	movi	r5,65
10004de4:	0009883a 	mov	r4,zero
10004de8:	00006100 	call	10000610 <IO_write>
			}
			IO_write(HPI_DATA,0x0013);//8
10004dec:	014004c4 	movi	r5,19
10004df0:	0009883a 	mov	r4,zero
10004df4:	00006100 	call	10000610 <IO_write>
			IO_write(HPI_DATA,0x0000);//
10004df8:	000b883a 	mov	r5,zero
10004dfc:	0009883a 	mov	r4,zero
10004e00:	00006100 	call	10000610 <IO_write>
			UsbWrite(HUSB_SIE1_pCurrentTDPtr,0x0500); //HUSB_SIE1_pCurrentTDPtr
10004e04:	01414004 	movi	r5,1280
10004e08:	01006c04 	movi	r4,432
10004e0c:	00054d00 	call	100054d0 <UsbWrite>
			usleep(10*1000);
10004e10:	0109c404 	movi	r4,10000
10004e14:	00231340 	call	10023134 <usleep>
		while (!(IO_read(HPI_STATUS) & HPI_STATUS_SIE1msg_FLAG) )  //read sie1 msg register
10004e18:	010000c4 	movi	r4,3
10004e1c:	00006840 	call	10000684 <IO_read>
10004e20:	10bfffcc 	andi	r2,r2,65535
10004e24:	1080040c 	andi	r2,r2,16
10004e28:	103fd726 	beq	r2,zero,10004d88 <main+0xc68>
		}//end while

		usb_ctl_val = UsbWaitTDListDone();
10004e2c:	00064c40 	call	100064c4 <UsbWaitTDListDone>
10004e30:	e0bfff8d 	sth	r2,-2(fp)

		// The first two keycodes are stored in 0x051E. Other keycodes are in 
		// subsequent addresses.
		keycode = UsbRead(0x051e);
10004e34:	01014784 	movi	r4,1310
10004e38:	000552c0 	call	1000552c <UsbRead>
10004e3c:	10bfffcc 	andi	r2,r2,65535
10004e40:	e0bffc15 	stw	r2,-16(fp)
		printf("\nfirst two keycode values are %04x\n",keycode);
10004e44:	e17ffc17 	ldw	r5,-16(fp)
10004e48:	010400b4 	movhi	r4,4098
10004e4c:	21165304 	addi	r4,r4,22860
10004e50:	0016f900 	call	10016f90 <printf>
		// We only need the first keycode, which is at the lower byte of keycode.
		// Send the keycode to hardware via PIO.

		usleep(200);//usleep(5000);
10004e54:	01003204 	movi	r4,200
10004e58:	00231340 	call	10023134 <usleep>
		usb_ctl_val = UsbRead(ctl_reg);
10004e5c:	d0a7ce8b 	ldhu	r2,-24774(gp)
10004e60:	10bfffcc 	andi	r2,r2,65535
10004e64:	1009883a 	mov	r4,r2
10004e68:	000552c0 	call	1000552c <UsbRead>
10004e6c:	e0bfff8d 	sth	r2,-2(fp)

		if(!(usb_ctl_val & no_device))
10004e70:	d0a7cf0b 	ldhu	r2,-24772(gp)
10004e74:	e0ffff8b 	ldhu	r3,-2(fp)
10004e78:	1884703a 	and	r2,r3,r2
10004e7c:	10bfffcc 	andi	r2,r2,65535
10004e80:	10003f1e 	bne	r2,zero,10004f80 <main+0xe60>
		{
			//USB hot plug routine
			for(hot_plug_count = 0 ; hot_plug_count < 7 ; hot_plug_count++)
10004e84:	e03fff05 	stb	zero,-4(fp)
10004e88:	00000f06 	br	10004ec8 <main+0xda8>
			{
				usleep(5*1000);
10004e8c:	0104e204 	movi	r4,5000
10004e90:	00231340 	call	10023134 <usleep>
				usb_ctl_val = UsbRead(ctl_reg);
10004e94:	d0a7ce8b 	ldhu	r2,-24774(gp)
10004e98:	10bfffcc 	andi	r2,r2,65535
10004e9c:	1009883a 	mov	r4,r2
10004ea0:	000552c0 	call	1000552c <UsbRead>
10004ea4:	e0bfff8d 	sth	r2,-2(fp)
				if(usb_ctl_val & no_device) break;
10004ea8:	d0a7cf0b 	ldhu	r2,-24772(gp)
10004eac:	e0ffff8b 	ldhu	r3,-2(fp)
10004eb0:	1884703a 	and	r2,r3,r2
10004eb4:	10bfffcc 	andi	r2,r2,65535
10004eb8:	1000071e 	bne	r2,zero,10004ed8 <main+0xdb8>
			for(hot_plug_count = 0 ; hot_plug_count < 7 ; hot_plug_count++)
10004ebc:	e0bfff03 	ldbu	r2,-4(fp)
10004ec0:	10800044 	addi	r2,r2,1
10004ec4:	e0bfff05 	stb	r2,-4(fp)
10004ec8:	e0bfff03 	ldbu	r2,-4(fp)
10004ecc:	108001f0 	cmpltui	r2,r2,7
10004ed0:	103fee1e 	bne	r2,zero,10004e8c <main+0xd6c>
10004ed4:	00000106 	br	10004edc <main+0xdbc>
				if(usb_ctl_val & no_device) break;
10004ed8:	0001883a 	nop
			}
			if(!(usb_ctl_val & no_device))
10004edc:	d0a7cf0b 	ldhu	r2,-24772(gp)
10004ee0:	e0ffff8b 	ldhu	r3,-2(fp)
10004ee4:	1884703a 	and	r2,r3,r2
10004ee8:	10bfffcc 	andi	r2,r2,65535
10004eec:	1000241e 	bne	r2,zero,10004f80 <main+0xe60>
			{
				printf("\n[INFO]: the keyboard has been removed!!! \n");
10004ef0:	010400b4 	movhi	r4,4098
10004ef4:	21165c04 	addi	r4,r4,22896
10004ef8:	00170b40 	call	100170b4 <puts>
				printf("[INFO]: please insert again!!! \n");
10004efc:	010400b4 	movhi	r4,4098
10004f00:	21166704 	addi	r4,r4,22940
10004f04:	00170b40 	call	100170b4 <puts>
			}
		}

		while (!(usb_ctl_val & no_device))
10004f08:	00001d06 	br	10004f80 <main+0xe60>
		{

			usb_ctl_val = UsbRead(ctl_reg);
10004f0c:	d0a7ce8b 	ldhu	r2,-24774(gp)
10004f10:	10bfffcc 	andi	r2,r2,65535
10004f14:	1009883a 	mov	r4,r2
10004f18:	000552c0 	call	1000552c <UsbRead>
10004f1c:	e0bfff8d 	sth	r2,-2(fp)
			usleep(5*1000);
10004f20:	0104e204 	movi	r4,5000
10004f24:	00231340 	call	10023134 <usleep>
			usb_ctl_val = UsbRead(ctl_reg);
10004f28:	d0a7ce8b 	ldhu	r2,-24774(gp)
10004f2c:	10bfffcc 	andi	r2,r2,65535
10004f30:	1009883a 	mov	r4,r2
10004f34:	000552c0 	call	1000552c <UsbRead>
10004f38:	e0bfff8d 	sth	r2,-2(fp)
			usleep(5*1000);
10004f3c:	0104e204 	movi	r4,5000
10004f40:	00231340 	call	10023134 <usleep>
			usb_ctl_val = UsbRead(ctl_reg);
10004f44:	d0a7ce8b 	ldhu	r2,-24774(gp)
10004f48:	10bfffcc 	andi	r2,r2,65535
10004f4c:	1009883a 	mov	r4,r2
10004f50:	000552c0 	call	1000552c <UsbRead>
10004f54:	e0bfff8d 	sth	r2,-2(fp)
			usleep(5*1000);
10004f58:	0104e204 	movi	r4,5000
10004f5c:	00231340 	call	10023134 <usleep>

			if(usb_ctl_val & no_device)
10004f60:	d0a7cf0b 	ldhu	r2,-24772(gp)
10004f64:	e0ffff8b 	ldhu	r3,-2(fp)
10004f68:	1884703a 	and	r2,r3,r2
10004f6c:	10bfffcc 	andi	r2,r2,65535
10004f70:	10000126 	beq	r2,zero,10004f78 <main+0xe58>
				goto USB_HOT_PLUG;
10004f74:	003c8a06 	br	100041a0 <main+0x80>

			usleep(200);
10004f78:	01003204 	movi	r4,200
10004f7c:	00231340 	call	10023134 <usleep>
		while (!(usb_ctl_val & no_device))
10004f80:	d0a7cf0b 	ldhu	r2,-24772(gp)
10004f84:	e0ffff8b 	ldhu	r3,-2(fp)
10004f88:	1884703a 	and	r2,r3,r2
10004f8c:	10bfffcc 	andi	r2,r2,65535
10004f90:	103fde26 	beq	r2,zero,10004f0c <main+0xdec>
		toggle++;
10004f94:	003f5606 	br	10004cf0 <main+0xbd0>

10004f98 <drawTile>:
#include "tile_eng_driver.h"
#include <stdint.h>
#include <stdio.h>
#include <string.h>

void drawTile(int x, int y, int paletteId, int spriteId) {
10004f98:	defffa04 	addi	sp,sp,-24
10004f9c:	df000515 	stw	fp,20(sp)
10004fa0:	df000504 	addi	fp,sp,20
10004fa4:	e13ffe15 	stw	r4,-8(fp)
10004fa8:	e17ffd15 	stw	r5,-12(fp)
10004fac:	e1bffc15 	stw	r6,-16(fp)
10004fb0:	e1fffb15 	stw	r7,-20(fp)
	uint16_t tt_addr = ((y & 0xFF)<<8) | (x & 0xFF);
10004fb4:	e0bffd17 	ldw	r2,-12(fp)
10004fb8:	1004923a 	slli	r2,r2,8
10004fbc:	1007883a 	mov	r3,r2
10004fc0:	e0bffe17 	ldw	r2,-8(fp)
10004fc4:	10803fcc 	andi	r2,r2,255
10004fc8:	1884b03a 	or	r2,r3,r2
10004fcc:	e0bfff8d 	sth	r2,-2(fp)
	uint16_t tt_data = ((paletteId & 0x7)<<8) | (spriteId & 0xFF);
10004fd0:	e0bffc17 	ldw	r2,-16(fp)
10004fd4:	1004923a 	slli	r2,r2,8
10004fd8:	1081c00c 	andi	r2,r2,1792
10004fdc:	1007883a 	mov	r3,r2
10004fe0:	e0bffb17 	ldw	r2,-20(fp)
10004fe4:	10803fcc 	andi	r2,r2,255
10004fe8:	1884b03a 	or	r2,r3,r2
10004fec:	e0bfff0d 	sth	r2,-4(fp)
	tiletable_ptr[tt_addr] = tt_data;
10004ff0:	e0bfff8b 	ldhu	r2,-2(fp)
10004ff4:	100690ba 	slli	r3,r2,2
10004ff8:	00a00014 	movui	r2,32768
10004ffc:	1885883a 	add	r2,r3,r2
10005000:	e0ffff0b 	ldhu	r3,-4(fp)
10005004:	10c00015 	stw	r3,0(r2)
}
10005008:	0001883a 	nop
1000500c:	e037883a 	mov	sp,fp
10005010:	df000017 	ldw	fp,0(sp)
10005014:	dec00104 	addi	sp,sp,4
10005018:	f800283a 	ret

1000501c <writePaletteHelper>:

// Internal function. Can be used but no need.
void writePaletteHelper(uint8_t paletteId, uint8_t colorIndex, int rgbColor) {
1000501c:	defffa04 	addi	sp,sp,-24
10005020:	dfc00515 	stw	ra,20(sp)
10005024:	df000415 	stw	fp,16(sp)
10005028:	df000404 	addi	fp,sp,16
1000502c:	2005883a 	mov	r2,r4
10005030:	2807883a 	mov	r3,r5
10005034:	e1bffc15 	stw	r6,-16(fp)
10005038:	e0bffe05 	stb	r2,-8(fp)
1000503c:	1805883a 	mov	r2,r3
10005040:	e0bffd05 	stb	r2,-12(fp)
	uint8_t paletteAddr = ((paletteId & 0x7) << 2) | (colorIndex & 0x3);
10005044:	e0bffe03 	ldbu	r2,-8(fp)
10005048:	100490ba 	slli	r2,r2,2
1000504c:	1080070c 	andi	r2,r2,28
10005050:	1007883a 	mov	r3,r2
10005054:	e0bffd03 	ldbu	r2,-12(fp)
10005058:	108000cc 	andi	r2,r2,3
1000505c:	1884b03a 	or	r2,r3,r2
10005060:	e0bfffc5 	stb	r2,-1(fp)
	palette_ptr[paletteAddr] = rgbColor & 0x00FFFFFF;
10005064:	e0bfffc3 	ldbu	r2,-1(fp)
10005068:	100490ba 	slli	r2,r2,2
1000506c:	10c02004 	addi	r3,r2,128
10005070:	e13ffc17 	ldw	r4,-16(fp)
10005074:	00804034 	movhi	r2,256
10005078:	10bfffc4 	addi	r2,r2,-1
1000507c:	2084703a 	and	r2,r4,r2
10005080:	18800015 	stw	r2,0(r3)
	printf("palette_ptr[%02x]=%06x\n",paletteAddr, rgbColor & 0x00FFFFFF);
10005084:	e13fffc3 	ldbu	r4,-1(fp)
10005088:	e0fffc17 	ldw	r3,-16(fp)
1000508c:	00804034 	movhi	r2,256
10005090:	10bfffc4 	addi	r2,r2,-1
10005094:	1884703a 	and	r2,r3,r2
10005098:	100d883a 	mov	r6,r2
1000509c:	200b883a 	mov	r5,r4
100050a0:	010400b4 	movhi	r4,4098
100050a4:	21166f04 	addi	r4,r4,22972
100050a8:	0016f900 	call	10016f90 <printf>
}
100050ac:	0001883a 	nop
100050b0:	e037883a 	mov	sp,fp
100050b4:	dfc00117 	ldw	ra,4(sp)
100050b8:	df000017 	ldw	fp,0(sp)
100050bc:	dec00204 	addi	sp,sp,8
100050c0:	f800283a 	ret

100050c4 <writePalette>:

// Write an entire palette to the palette storage.
void writePalette(Palette* toWrite) {
100050c4:	defffd04 	addi	sp,sp,-12
100050c8:	dfc00215 	stw	ra,8(sp)
100050cc:	df000115 	stw	fp,4(sp)
100050d0:	df000104 	addi	fp,sp,4
100050d4:	e13fff15 	stw	r4,-4(fp)
	writePaletteHelper(toWrite->paletteId, 0, toWrite->colors[0]);
100050d8:	e0bfff17 	ldw	r2,-4(fp)
100050dc:	10800017 	ldw	r2,0(r2)
100050e0:	10c03fcc 	andi	r3,r2,255
100050e4:	e0bfff17 	ldw	r2,-4(fp)
100050e8:	10800117 	ldw	r2,4(r2)
100050ec:	100d883a 	mov	r6,r2
100050f0:	000b883a 	mov	r5,zero
100050f4:	1809883a 	mov	r4,r3
100050f8:	000501c0 	call	1000501c <writePaletteHelper>
	writePaletteHelper(toWrite->paletteId, 1, toWrite->colors[1]);
100050fc:	e0bfff17 	ldw	r2,-4(fp)
10005100:	10800017 	ldw	r2,0(r2)
10005104:	10c03fcc 	andi	r3,r2,255
10005108:	e0bfff17 	ldw	r2,-4(fp)
1000510c:	10800217 	ldw	r2,8(r2)
10005110:	100d883a 	mov	r6,r2
10005114:	01400044 	movi	r5,1
10005118:	1809883a 	mov	r4,r3
1000511c:	000501c0 	call	1000501c <writePaletteHelper>
	writePaletteHelper(toWrite->paletteId, 2, toWrite->colors[2]);
10005120:	e0bfff17 	ldw	r2,-4(fp)
10005124:	10800017 	ldw	r2,0(r2)
10005128:	10c03fcc 	andi	r3,r2,255
1000512c:	e0bfff17 	ldw	r2,-4(fp)
10005130:	10800317 	ldw	r2,12(r2)
10005134:	100d883a 	mov	r6,r2
10005138:	01400084 	movi	r5,2
1000513c:	1809883a 	mov	r4,r3
10005140:	000501c0 	call	1000501c <writePaletteHelper>
	writePaletteHelper(toWrite->paletteId, 3, toWrite->colors[3]);
10005144:	e0bfff17 	ldw	r2,-4(fp)
10005148:	10800017 	ldw	r2,0(r2)
1000514c:	10c03fcc 	andi	r3,r2,255
10005150:	e0bfff17 	ldw	r2,-4(fp)
10005154:	10800417 	ldw	r2,16(r2)
10005158:	100d883a 	mov	r6,r2
1000515c:	014000c4 	movi	r5,3
10005160:	1809883a 	mov	r4,r3
10005164:	000501c0 	call	1000501c <writePaletteHelper>
	printf("\n");
10005168:	01000284 	movi	r4,10
1000516c:	0016fd00 	call	10016fd0 <putchar>
}
10005170:	0001883a 	nop
10005174:	e037883a 	mov	sp,fp
10005178:	dfc00117 	ldw	ra,4(sp)
1000517c:	df000017 	ldw	fp,0(sp)
10005180:	dec00204 	addi	sp,sp,8
10005184:	f800283a 	ret

10005188 <parseSpriteLine>:

// " " - 00, "@" - 01. "#" - 10, "*" - 11.
void parseSpriteLine(Sprite *sprite, uint8_t linenum, char data[8]) {
10005188:	defffb04 	addi	sp,sp,-20
1000518c:	df000415 	stw	fp,16(sp)
10005190:	df000404 	addi	fp,sp,16
10005194:	e13ffe15 	stw	r4,-8(fp)
10005198:	2805883a 	mov	r2,r5
1000519c:	e1bffc15 	stw	r6,-16(fp)
100051a0:	e0bffd05 	stb	r2,-12(fp)
	uint16_t result_line;
	for(uint8_t i=0; i<8; i++) {
100051a4:	e03fff45 	stb	zero,-3(fp)
100051a8:	00002306 	br	10005238 <parseSpriteLine+0xb0>
		switch(data[i]) {
100051ac:	e0bfff43 	ldbu	r2,-3(fp)
100051b0:	e0fffc17 	ldw	r3,-16(fp)
100051b4:	1885883a 	add	r2,r3,r2
100051b8:	10800003 	ldbu	r2,0(r2)
100051bc:	10803fcc 	andi	r2,r2,255
100051c0:	1080201c 	xori	r2,r2,128
100051c4:	10bfe004 	addi	r2,r2,-128
100051c8:	10c00aa0 	cmpeqi	r3,r2,42
100051cc:	1800051e 	bne	r3,zero,100051e4 <parseSpriteLine+0x5c>
100051d0:	10c01020 	cmpeqi	r3,r2,64
100051d4:	18000d1e 	bne	r3,zero,1000520c <parseSpriteLine+0x84>
100051d8:	108008e0 	cmpeqi	r2,r2,35
100051dc:	1000061e 	bne	r2,zero,100051f8 <parseSpriteLine+0x70>
100051e0:	00000f06 	br	10005220 <parseSpriteLine+0x98>
			case '*': {
				result_line = (result_line<<2) | 0b11;
100051e4:	e0bfff8b 	ldhu	r2,-2(fp)
100051e8:	100490ba 	slli	r2,r2,2
100051ec:	108000d4 	ori	r2,r2,3
100051f0:	e0bfff8d 	sth	r2,-2(fp)
				break;
100051f4:	00000d06 	br	1000522c <parseSpriteLine+0xa4>
			}
			case '#': {
				result_line = (result_line<<2) | 0b10;
100051f8:	e0bfff8b 	ldhu	r2,-2(fp)
100051fc:	100490ba 	slli	r2,r2,2
10005200:	10800094 	ori	r2,r2,2
10005204:	e0bfff8d 	sth	r2,-2(fp)
				break;
10005208:	00000806 	br	1000522c <parseSpriteLine+0xa4>
			}
			case '@': {
				result_line = (result_line<<2) | 0b01;
1000520c:	e0bfff8b 	ldhu	r2,-2(fp)
10005210:	100490ba 	slli	r2,r2,2
10005214:	10800054 	ori	r2,r2,1
10005218:	e0bfff8d 	sth	r2,-2(fp)
				break;
1000521c:	00000306 	br	1000522c <parseSpriteLine+0xa4>
			}
			default: {
				result_line = (result_line<<2) | 0b00;
10005220:	e0bfff8b 	ldhu	r2,-2(fp)
10005224:	100490ba 	slli	r2,r2,2
10005228:	e0bfff8d 	sth	r2,-2(fp)
	for(uint8_t i=0; i<8; i++) {
1000522c:	e0bfff43 	ldbu	r2,-3(fp)
10005230:	10800044 	addi	r2,r2,1
10005234:	e0bfff45 	stb	r2,-3(fp)
10005238:	e0bfff43 	ldbu	r2,-3(fp)
1000523c:	10800230 	cmpltui	r2,r2,8
10005240:	103fda1e 	bne	r2,zero,100051ac <parseSpriteLine+0x24>
			}
		}
	}
	sprite -> lines[linenum] = result_line;
10005244:	e0bffd03 	ldbu	r2,-12(fp)
10005248:	e0fffe17 	ldw	r3,-8(fp)
1000524c:	1085883a 	add	r2,r2,r2
10005250:	1885883a 	add	r2,r3,r2
10005254:	e0ffff8b 	ldhu	r3,-2(fp)
10005258:	10c0008d 	sth	r3,2(r2)
}
1000525c:	0001883a 	nop
10005260:	e037883a 	mov	sp,fp
10005264:	df000017 	ldw	fp,0(sp)
10005268:	dec00104 	addi	sp,sp,4
1000526c:	f800283a 	ret

10005270 <parseSprite>:

// Parses all 128 characters in a custom sprite
void parseSprite(Sprite *target, char datas[16][8]) {
10005270:	defffb04 	addi	sp,sp,-20
10005274:	dfc00415 	stw	ra,16(sp)
10005278:	df000315 	stw	fp,12(sp)
1000527c:	df000304 	addi	fp,sp,12
10005280:	e13ffe15 	stw	r4,-8(fp)
10005284:	e17ffd15 	stw	r5,-12(fp)
	for(int i=0; i<16; i++) {
10005288:	e03fff15 	stw	zero,-4(fp)
1000528c:	00000d06 	br	100052c4 <parseSprite+0x54>
		parseSpriteLine(target,i,datas[i]);
10005290:	e0bfff17 	ldw	r2,-4(fp)
10005294:	11003fcc 	andi	r4,r2,255
10005298:	e0bfff17 	ldw	r2,-4(fp)
1000529c:	100490fa 	slli	r2,r2,3
100052a0:	e0fffd17 	ldw	r3,-12(fp)
100052a4:	1885883a 	add	r2,r3,r2
100052a8:	100d883a 	mov	r6,r2
100052ac:	200b883a 	mov	r5,r4
100052b0:	e13ffe17 	ldw	r4,-8(fp)
100052b4:	00051880 	call	10005188 <parseSpriteLine>
	for(int i=0; i<16; i++) {
100052b8:	e0bfff17 	ldw	r2,-4(fp)
100052bc:	10800044 	addi	r2,r2,1
100052c0:	e0bfff15 	stw	r2,-4(fp)
100052c4:	e0bfff17 	ldw	r2,-4(fp)
100052c8:	10800410 	cmplti	r2,r2,16
100052cc:	103ff01e 	bne	r2,zero,10005290 <parseSprite+0x20>
	}
}
100052d0:	0001883a 	nop
100052d4:	e037883a 	mov	sp,fp
100052d8:	dfc00117 	ldw	ra,4(sp)
100052dc:	df000017 	ldw	fp,0(sp)
100052e0:	dec00204 	addi	sp,sp,8
100052e4:	f800283a 	ret

100052e8 <writeSprite>:

void writeSprite(Sprite* target) {
100052e8:	defffb04 	addi	sp,sp,-20
100052ec:	dfc00415 	stw	ra,16(sp)
100052f0:	df000315 	stw	fp,12(sp)
100052f4:	df000304 	addi	fp,sp,12
100052f8:	e13ffd15 	stw	r4,-12(fp)
	for(int i=0; i<8; i+=1) {
100052fc:	e03fff15 	stw	zero,-4(fp)
10005300:	00002506 	br	10005398 <writeSprite+0xb0>
		int prepare_dualine = (((int)(target->lines[2*i]) & 0xFFFF)<< 16) | (((int)(target->lines[2*i+1]) & 0xFFFF));
10005304:	e0bfff17 	ldw	r2,-4(fp)
10005308:	1085883a 	add	r2,r2,r2
1000530c:	e0fffd17 	ldw	r3,-12(fp)
10005310:	1085883a 	add	r2,r2,r2
10005314:	1885883a 	add	r2,r3,r2
10005318:	1080008b 	ldhu	r2,2(r2)
1000531c:	10bfffcc 	andi	r2,r2,65535
10005320:	1006943a 	slli	r3,r2,16
10005324:	e0bfff17 	ldw	r2,-4(fp)
10005328:	1085883a 	add	r2,r2,r2
1000532c:	10800044 	addi	r2,r2,1
10005330:	e13ffd17 	ldw	r4,-12(fp)
10005334:	1085883a 	add	r2,r2,r2
10005338:	2085883a 	add	r2,r4,r2
1000533c:	1080008b 	ldhu	r2,2(r2)
10005340:	10bfffcc 	andi	r2,r2,65535
10005344:	1884b03a 	or	r2,r3,r2
10005348:	e0bffe15 	stw	r2,-8(fp)
		printf("%08x\n",prepare_dualine);
1000534c:	e17ffe17 	ldw	r5,-8(fp)
10005350:	010400b4 	movhi	r4,4098
10005354:	21167504 	addi	r4,r4,22996
10005358:	0016f900 	call	10016f90 <printf>
		spriteram_ptr[((target->sprite_id & 0x3F) << 3) | (i&0x7)] = prepare_dualine;
1000535c:	e0bffd17 	ldw	r2,-12(fp)
10005360:	1080000b 	ldhu	r2,0(r2)
10005364:	10bfffcc 	andi	r2,r2,65535
10005368:	100490fa 	slli	r2,r2,3
1000536c:	10c07e0c 	andi	r3,r2,504
10005370:	e0bfff17 	ldw	r2,-4(fp)
10005374:	108001cc 	andi	r2,r2,7
10005378:	1884b03a 	or	r2,r3,r2
1000537c:	100490ba 	slli	r2,r2,2
10005380:	10860004 	addi	r2,r2,6144
10005384:	e0fffe17 	ldw	r3,-8(fp)
10005388:	10c00015 	stw	r3,0(r2)
	for(int i=0; i<8; i+=1) {
1000538c:	e0bfff17 	ldw	r2,-4(fp)
10005390:	10800044 	addi	r2,r2,1
10005394:	e0bfff15 	stw	r2,-4(fp)
10005398:	e0bfff17 	ldw	r2,-4(fp)
1000539c:	10800210 	cmplti	r2,r2,8
100053a0:	103fd81e 	bne	r2,zero,10005304 <writeSprite+0x1c>
	}
}
100053a4:	0001883a 	nop
100053a8:	e037883a 	mov	sp,fp
100053ac:	dfc00117 	ldw	ra,4(sp)
100053b0:	df000017 	ldw	fp,0(sp)
100053b4:	dec00204 	addi	sp,sp,8
100053b8:	f800283a 	ret

100053bc <writeText>:

void writeText(int beginningX, int Y, char text[], int paletteId) {
100053bc:	defff804 	addi	sp,sp,-32
100053c0:	dfc00715 	stw	ra,28(sp)
100053c4:	df000615 	stw	fp,24(sp)
100053c8:	df000604 	addi	fp,sp,24
100053cc:	e13ffd15 	stw	r4,-12(fp)
100053d0:	e17ffc15 	stw	r5,-16(fp)
100053d4:	e1bffb15 	stw	r6,-20(fp)
100053d8:	e1fffa15 	stw	r7,-24(fp)
	int length = strlen(text);
100053dc:	e13ffb17 	ldw	r4,-20(fp)
100053e0:	001789c0 	call	1001789c <strlen>
100053e4:	e0bffe15 	stw	r2,-8(fp)
	for(int i=0;i<length;i+=1) {
100053e8:	e03fff15 	stw	zero,-4(fp)
100053ec:	00001006 	br	10005430 <writeText+0x74>
		drawTile(beginningX+i, Y, paletteId, text[i]&0x7F);
100053f0:	e0fffd17 	ldw	r3,-12(fp)
100053f4:	e0bfff17 	ldw	r2,-4(fp)
100053f8:	1889883a 	add	r4,r3,r2
100053fc:	e0bfff17 	ldw	r2,-4(fp)
10005400:	e0fffb17 	ldw	r3,-20(fp)
10005404:	1885883a 	add	r2,r3,r2
10005408:	10800003 	ldbu	r2,0(r2)
1000540c:	10803fcc 	andi	r2,r2,255
10005410:	10801fcc 	andi	r2,r2,127
10005414:	100f883a 	mov	r7,r2
10005418:	e1bffa17 	ldw	r6,-24(fp)
1000541c:	e17ffc17 	ldw	r5,-16(fp)
10005420:	0004f980 	call	10004f98 <drawTile>
	for(int i=0;i<length;i+=1) {
10005424:	e0bfff17 	ldw	r2,-4(fp)
10005428:	10800044 	addi	r2,r2,1
1000542c:	e0bfff15 	stw	r2,-4(fp)
10005430:	e0ffff17 	ldw	r3,-4(fp)
10005434:	e0bffe17 	ldw	r2,-8(fp)
10005438:	18bfed16 	blt	r3,r2,100053f0 <writeText+0x34>
	}
}
1000543c:	0001883a 	nop
10005440:	e037883a 	mov	sp,fp
10005444:	dfc00117 	ldw	ra,4(sp)
10005448:	df000017 	ldw	fp,0(sp)
1000544c:	dec00204 	addi	sp,sp,8
10005450:	f800283a 	ret

10005454 <clearScreen>:

void clearScreen() {
10005454:	defffc04 	addi	sp,sp,-16
10005458:	dfc00315 	stw	ra,12(sp)
1000545c:	df000215 	stw	fp,8(sp)
10005460:	df000204 	addi	fp,sp,8
	for(int i=0; i<30; i++){
10005464:	e03fff15 	stw	zero,-4(fp)
10005468:	00001006 	br	100054ac <clearScreen+0x58>
		for(int j=0; j<80; j++) {
1000546c:	e03ffe15 	stw	zero,-8(fp)
10005470:	00000806 	br	10005494 <clearScreen+0x40>
			drawTile(j,i,0,0);
10005474:	000f883a 	mov	r7,zero
10005478:	000d883a 	mov	r6,zero
1000547c:	e17fff17 	ldw	r5,-4(fp)
10005480:	e13ffe17 	ldw	r4,-8(fp)
10005484:	0004f980 	call	10004f98 <drawTile>
		for(int j=0; j<80; j++) {
10005488:	e0bffe17 	ldw	r2,-8(fp)
1000548c:	10800044 	addi	r2,r2,1
10005490:	e0bffe15 	stw	r2,-8(fp)
10005494:	e0bffe17 	ldw	r2,-8(fp)
10005498:	10801410 	cmplti	r2,r2,80
1000549c:	103ff51e 	bne	r2,zero,10005474 <clearScreen+0x20>
	for(int i=0; i<30; i++){
100054a0:	e0bfff17 	ldw	r2,-4(fp)
100054a4:	10800044 	addi	r2,r2,1
100054a8:	e0bfff15 	stw	r2,-4(fp)
100054ac:	e0bfff17 	ldw	r2,-4(fp)
100054b0:	10800790 	cmplti	r2,r2,30
100054b4:	103fed1e 	bne	r2,zero,1000546c <clearScreen+0x18>
		}
	}
}
100054b8:	0001883a 	nop
100054bc:	e037883a 	mov	sp,fp
100054c0:	dfc00117 	ldw	ra,4(sp)
100054c4:	df000017 	ldw	fp,0(sp)
100054c8:	dec00204 	addi	sp,sp,8
100054cc:	f800283a 	ret

100054d0 <UsbWrite>:
 *
 * @note     None
 *
 ******************************************************************************/
void UsbWrite(alt_u16 Address, alt_u16 Data)
{
100054d0:	defffc04 	addi	sp,sp,-16
100054d4:	dfc00315 	stw	ra,12(sp)
100054d8:	df000215 	stw	fp,8(sp)
100054dc:	df000204 	addi	fp,sp,8
100054e0:	2005883a 	mov	r2,r4
100054e4:	2807883a 	mov	r3,r5
100054e8:	e0bfff0d 	sth	r2,-4(fp)
100054ec:	1805883a 	mov	r2,r3
100054f0:	e0bffe0d 	sth	r2,-8(fp)
//*************************************************************************//
//									TASK								   //
//*************************************************************************//
//							Write this function							   //
//*************************************************************************//
	IO_write(HPI_ADDR, Address);
100054f4:	e0bfff0b 	ldhu	r2,-4(fp)
100054f8:	100b883a 	mov	r5,r2
100054fc:	01000084 	movi	r4,2
10005500:	00006100 	call	10000610 <IO_write>
	IO_write(HPI_DATA, Data);
10005504:	e0bffe0b 	ldhu	r2,-8(fp)
10005508:	100b883a 	mov	r5,r2
1000550c:	0009883a 	mov	r4,zero
10005510:	00006100 	call	10000610 <IO_write>
}
10005514:	0001883a 	nop
10005518:	e037883a 	mov	sp,fp
1000551c:	dfc00117 	ldw	ra,4(sp)
10005520:	df000017 	ldw	fp,0(sp)
10005524:	dec00204 	addi	sp,sp,8
10005528:	f800283a 	ret

1000552c <UsbRead>:
 *
 * @note     None
 *
 ******************************************************************************/
alt_u16 UsbRead(alt_u16 Address)
{
1000552c:	defffd04 	addi	sp,sp,-12
10005530:	dfc00215 	stw	ra,8(sp)
10005534:	df000115 	stw	fp,4(sp)
10005538:	df000104 	addi	fp,sp,4
1000553c:	2005883a 	mov	r2,r4
10005540:	e0bfff0d 	sth	r2,-4(fp)
//*************************************************************************//
//									TASK								   //
//*************************************************************************//
//							Write this function							   //
//*************************************************************************//
	IO_write(HPI_ADDR, Address);
10005544:	e0bfff0b 	ldhu	r2,-4(fp)
10005548:	100b883a 	mov	r5,r2
1000554c:	01000084 	movi	r4,2
10005550:	00006100 	call	10000610 <IO_write>
	return IO_read(HPI_DATA);
10005554:	0009883a 	mov	r4,zero
10005558:	00006840 	call	10000684 <IO_read>
}
1000555c:	e037883a 	mov	sp,fp
10005560:	dfc00117 	ldw	ra,4(sp)
10005564:	df000017 	ldw	fp,0(sp)
10005568:	dec00204 	addi	sp,sp,8
1000556c:	f800283a 	ret

10005570 <UsbSoftReset>:
 *
 * @note     None
 *
 ******************************************************************************/
void UsbSoftReset()
{
10005570:	defffe04 	addi	sp,sp,-8
10005574:	dfc00115 	stw	ra,4(sp)
10005578:	df000015 	stw	fp,0(sp)
1000557c:	d839883a 	mov	fp,sp
	//XIo_Out16(USB_MAILBOX, COMM_RESET);
	IO_write(HPI_MAILBOX,COMM_RESET); //COMM_JUMP2CODE
10005580:	017e9414 	movui	r5,64080
10005584:	01000044 	movi	r4,1
10005588:	00006100 	call	10000610 <IO_write>
	usleep(100000);
1000558c:	010000b4 	movhi	r4,2
10005590:	2121a804 	addi	r4,r4,-31072
10005594:	00231340 	call	10023134 <usleep>
	printf("[USB INIT]:reset finished!\n");
10005598:	010400b4 	movhi	r4,4098
1000559c:	21167704 	addi	r4,r4,23004
100055a0:	00170b40 	call	100170b4 <puts>

	usleep(500000);
100055a4:	01000234 	movhi	r4,8
100055a8:	21284804 	addi	r4,r4,-24288
100055ac:	00231340 	call	10023134 <usleep>
	printf("[USB INIT]:Clear up the interrupt\r\n");
100055b0:	010400b4 	movhi	r4,4098
100055b4:	21167e04 	addi	r4,r4,23032
100055b8:	00170b40 	call	100170b4 <puts>
	IO_read(HPI_MAILBOX);
100055bc:	01000044 	movi	r4,1
100055c0:	00006840 	call	10000684 <IO_read>
	IO_read(HPI_STATUS);
100055c4:	010000c4 	movi	r4,3
100055c8:	00006840 	call	10000684 <IO_read>

	// Had to add the write due to a bug in BIOS where they overwrite
	// the mailbox after initialization with garbage.  The read clears
	// any pending interrupts.
	UsbRead (HPI_SIE1_MSG_ADR);
100055cc:	01005104 	movi	r4,324
100055d0:	000552c0 	call	1000552c <UsbRead>
	UsbWrite (HPI_SIE1_MSG_ADR, 0);
100055d4:	000b883a 	mov	r5,zero
100055d8:	01005104 	movi	r4,324
100055dc:	00054d00 	call	100054d0 <UsbWrite>
	UsbRead (HPI_SIE2_MSG_ADR);
100055e0:	01005204 	movi	r4,328
100055e4:	000552c0 	call	1000552c <UsbRead>
	UsbWrite (HPI_SIE2_MSG_ADR, 0);
100055e8:	000b883a 	mov	r5,zero
100055ec:	01005204 	movi	r4,328
100055f0:	00054d00 	call	100054d0 <UsbWrite>


	UsbWrite (HOST1_STAT_REG, 0xFFFF);
100055f4:	017fffd4 	movui	r5,65535
100055f8:	01302414 	movui	r4,49296
100055fc:	00054d00 	call	100054d0 <UsbWrite>
	UsbWrite (HOST2_STAT_REG, 0xFFFF);
10005600:	017fffd4 	movui	r5,65535
10005604:	01302c14 	movui	r4,49328
10005608:	00054d00 	call	100054d0 <UsbWrite>
}
1000560c:	0001883a 	nop
10005610:	e037883a 	mov	sp,fp
10005614:	dfc00117 	ldw	ra,4(sp)
10005618:	df000017 	ldw	fp,0(sp)
1000561c:	dec00204 	addi	sp,sp,8
10005620:	f800283a 	ret

10005624 <UsbSetAddress>:


void UsbSetAddress()
{
10005624:	defffe04 	addi	sp,sp,-8
10005628:	dfc00115 	stw	ra,4(sp)
1000562c:	df000015 	stw	fp,0(sp)
10005630:	d839883a 	mov	fp,sp
	//the starting address
	IO_write(HPI_ADDR,0x0500); //the start address
10005634:	01414004 	movi	r5,1280
10005638:	01000084 	movi	r4,2
1000563c:	00006100 	call	10000610 <IO_write>
	// TD #1: 6 writes
	IO_write(HPI_DATA,0x050C);
10005640:	01414304 	movi	r5,1292
10005644:	0009883a 	mov	r4,zero
10005648:	00006100 	call	10000610 <IO_write>
	IO_write(HPI_DATA,0x0008); //4 port number
1000564c:	01400204 	movi	r5,8
10005650:	0009883a 	mov	r4,zero
10005654:	00006100 	call	10000610 <IO_write>
	// TASK: Complete with 4 more IOWR functions
	IO_write(HPI_DATA,0x00D0);
10005658:	01403404 	movi	r5,208
1000565c:	0009883a 	mov	r4,zero
10005660:	00006100 	call	10000610 <IO_write>
	IO_write(HPI_DATA,0x0001);
10005664:	01400044 	movi	r5,1
10005668:	0009883a 	mov	r4,zero
1000566c:	00006100 	call	10000610 <IO_write>
	IO_write(HPI_DATA,0x0013);
10005670:	014004c4 	movi	r5,19
10005674:	0009883a 	mov	r4,zero
10005678:	00006100 	call	10000610 <IO_write>
	IO_write(HPI_DATA,0x0514);
1000567c:	01414504 	movi	r5,1300
10005680:	0009883a 	mov	r4,zero
10005684:	00006100 	call	10000610 <IO_write>
	// TD #2: 4 writes
	// TASK: Complete with 4 IOWR functions
	IO_write(HPI_DATA,0x0500);
10005688:	01414004 	movi	r5,1280
1000568c:	0009883a 	mov	r4,zero
10005690:	00006100 	call	10000610 <IO_write>
	IO_write(HPI_DATA,0x0002);
10005694:	01400084 	movi	r5,2
10005698:	0009883a 	mov	r4,zero
1000569c:	00006100 	call	10000610 <IO_write>
	IO_write(HPI_DATA,0x0000);
100056a0:	000b883a 	mov	r5,zero
100056a4:	0009883a 	mov	r4,zero
100056a8:	00006100 	call	10000610 <IO_write>
	IO_write(HPI_DATA,0x0000);
100056ac:	000b883a 	mov	r5,zero
100056b0:	0009883a 	mov	r4,zero
100056b4:	00006100 	call	10000610 <IO_write>
	// TD #3: 6 writes
	// TASK: Complete with 6 IOWR functions
	IO_write(HPI_DATA,0x0000); //
100056b8:	000b883a 	mov	r5,zero
100056bc:	0009883a 	mov	r4,zero
100056c0:	00006100 	call	10000610 <IO_write>
	IO_write(HPI_DATA,0x0000);//
100056c4:	000b883a 	mov	r5,zero
100056c8:	0009883a 	mov	r4,zero
100056cc:	00006100 	call	10000610 <IO_write>
	IO_write(HPI_DATA,0x0090);//
100056d0:	01402404 	movi	r5,144
100056d4:	0009883a 	mov	r4,zero
100056d8:	00006100 	call	10000610 <IO_write>
	IO_write(HPI_DATA,0x0041);
100056dc:	01401044 	movi	r5,65
100056e0:	0009883a 	mov	r4,zero
100056e4:	00006100 	call	10000610 <IO_write>
	IO_write(HPI_DATA,0x0013);
100056e8:	014004c4 	movi	r5,19
100056ec:	0009883a 	mov	r4,zero
100056f0:	00006100 	call	10000610 <IO_write>
	IO_write(HPI_DATA,0x0000);
100056f4:	000b883a 	mov	r5,zero
100056f8:	0009883a 	mov	r4,zero
100056fc:	00006100 	call	10000610 <IO_write>

	UsbWrite(HUSB_SIE1_pCurrentTDPtr,0x0500); //HUSB_SIE1_pCurrentTDPtr
10005700:	01414004 	movi	r5,1280
10005704:	01006c04 	movi	r4,432
10005708:	00054d00 	call	100054d0 <UsbWrite>
}
1000570c:	0001883a 	nop
10005710:	e037883a 	mov	sp,fp
10005714:	dfc00117 	ldw	ra,4(sp)
10005718:	df000017 	ldw	fp,0(sp)
1000571c:	dec00204 	addi	sp,sp,8
10005720:	f800283a 	ret

10005724 <UsbGetDeviceDesc1>:


void UsbGetDeviceDesc1()
{
10005724:	defffe04 	addi	sp,sp,-8
10005728:	dfc00115 	stw	ra,4(sp)
1000572c:	df000015 	stw	fp,0(sp)
10005730:	d839883a 	mov	fp,sp
	//the starting address
	IO_write(HPI_ADDR,0x0500); //the start address
10005734:	01414004 	movi	r5,1280
10005738:	01000084 	movi	r4,2
1000573c:	00006100 	call	10000610 <IO_write>
	IO_write(HPI_DATA,0x050C);
10005740:	01414304 	movi	r5,1292
10005744:	0009883a 	mov	r4,zero
10005748:	00006100 	call	10000610 <IO_write>
	IO_write(HPI_DATA,0x0008); //4 port number
1000574c:	01400204 	movi	r5,8
10005750:	0009883a 	mov	r4,zero
10005754:	00006100 	call	10000610 <IO_write>
	IO_write(HPI_DATA,0x02D0); //device address
10005758:	0140b404 	movi	r5,720
1000575c:	0009883a 	mov	r4,zero
10005760:	00006100 	call	10000610 <IO_write>
	IO_write(HPI_DATA,0x0001);
10005764:	01400044 	movi	r5,1
10005768:	0009883a 	mov	r4,zero
1000576c:	00006100 	call	10000610 <IO_write>
	IO_write(HPI_DATA,0x0013);
10005770:	014004c4 	movi	r5,19
10005774:	0009883a 	mov	r4,zero
10005778:	00006100 	call	10000610 <IO_write>
	IO_write(HPI_DATA,0x0514);
1000577c:	01414504 	movi	r5,1300
10005780:	0009883a 	mov	r4,zero
10005784:	00006100 	call	10000610 <IO_write>

	//td content 4 bytes
	IO_write(HPI_DATA,0x0680);//c
10005788:	0141a004 	movi	r5,1664
1000578c:	0009883a 	mov	r4,zero
10005790:	00006100 	call	10000610 <IO_write>
	IO_write(HPI_DATA,0x0100); //device 0x01
10005794:	01404004 	movi	r5,256
10005798:	0009883a 	mov	r4,zero
1000579c:	00006100 	call	10000610 <IO_write>
	IO_write(HPI_DATA,0x0000);
100057a0:	000b883a 	mov	r5,zero
100057a4:	0009883a 	mov	r4,zero
100057a8:	00006100 	call	10000610 <IO_write>
	IO_write(HPI_DATA,0x0008);
100057ac:	01400204 	movi	r5,8
100057b0:	0009883a 	mov	r4,zero
100057b4:	00006100 	call	10000610 <IO_write>

	//data phase IN
	IO_write(HPI_DATA,0x052C); //
100057b8:	01414b04 	movi	r5,1324
100057bc:	0009883a 	mov	r4,zero
100057c0:	00006100 	call	10000610 <IO_write>
	IO_write(HPI_DATA,0x0008);//
100057c4:	01400204 	movi	r5,8
100057c8:	0009883a 	mov	r4,zero
100057cc:	00006100 	call	10000610 <IO_write>
	IO_write(HPI_DATA,0x0290);//
100057d0:	0140a404 	movi	r5,656
100057d4:	0009883a 	mov	r4,zero
100057d8:	00006100 	call	10000610 <IO_write>
	IO_write(HPI_DATA,0x0041);
100057dc:	01401044 	movi	r5,65
100057e0:	0009883a 	mov	r4,zero
100057e4:	00006100 	call	10000610 <IO_write>
	IO_write(HPI_DATA,0x0013);
100057e8:	014004c4 	movi	r5,19
100057ec:	0009883a 	mov	r4,zero
100057f0:	00006100 	call	10000610 <IO_write>
	IO_write(HPI_DATA,0x0520);
100057f4:	01414804 	movi	r5,1312
100057f8:	0009883a 	mov	r4,zero
100057fc:	00006100 	call	10000610 <IO_write>

	//    //status phase
	IO_write(HPI_DATA,0x0000); //don't care
10005800:	000b883a 	mov	r5,zero
10005804:	0009883a 	mov	r4,zero
10005808:	00006100 	call	10000610 <IO_write>
	IO_write(HPI_DATA,0x0000);//port number
1000580c:	000b883a 	mov	r5,zero
10005810:	0009883a 	mov	r4,zero
10005814:	00006100 	call	10000610 <IO_write>
	IO_write(HPI_DATA,0x0210);//device address
10005818:	01408404 	movi	r5,528
1000581c:	0009883a 	mov	r4,zero
10005820:	00006100 	call	10000610 <IO_write>
	IO_write(HPI_DATA,0x0041);
10005824:	01401044 	movi	r5,65
10005828:	0009883a 	mov	r4,zero
1000582c:	00006100 	call	10000610 <IO_write>
	IO_write(HPI_DATA,0x0013);
10005830:	014004c4 	movi	r5,19
10005834:	0009883a 	mov	r4,zero
10005838:	00006100 	call	10000610 <IO_write>
	IO_write(HPI_DATA,0x0000);
1000583c:	000b883a 	mov	r5,zero
10005840:	0009883a 	mov	r4,zero
10005844:	00006100 	call	10000610 <IO_write>

	UsbWrite(HUSB_SIE1_pCurrentTDPtr,0x0500); //HUSB_SIE1_pCurrentTDPtr
10005848:	01414004 	movi	r5,1280
1000584c:	01006c04 	movi	r4,432
10005850:	00054d00 	call	100054d0 <UsbWrite>
}
10005854:	0001883a 	nop
10005858:	e037883a 	mov	sp,fp
1000585c:	dfc00117 	ldw	ra,4(sp)
10005860:	df000017 	ldw	fp,0(sp)
10005864:	dec00204 	addi	sp,sp,8
10005868:	f800283a 	ret

1000586c <UsbGetDeviceDesc2>:

void UsbGetDeviceDesc2()
{
1000586c:	defffe04 	addi	sp,sp,-8
10005870:	dfc00115 	stw	ra,4(sp)
10005874:	df000015 	stw	fp,0(sp)
10005878:	d839883a 	mov	fp,sp
	//the starting address
	IO_write(HPI_ADDR,0x0500); //the start address
1000587c:	01414004 	movi	r5,1280
10005880:	01000084 	movi	r4,2
10005884:	00006100 	call	10000610 <IO_write>
	IO_write(HPI_DATA,0x050C);
10005888:	01414304 	movi	r5,1292
1000588c:	0009883a 	mov	r4,zero
10005890:	00006100 	call	10000610 <IO_write>
	IO_write(HPI_DATA,0x0008); //4 port number
10005894:	01400204 	movi	r5,8
10005898:	0009883a 	mov	r4,zero
1000589c:	00006100 	call	10000610 <IO_write>
	IO_write(HPI_DATA,0x02D0); //device address
100058a0:	0140b404 	movi	r5,720
100058a4:	0009883a 	mov	r4,zero
100058a8:	00006100 	call	10000610 <IO_write>
	IO_write(HPI_DATA,0x0001);
100058ac:	01400044 	movi	r5,1
100058b0:	0009883a 	mov	r4,zero
100058b4:	00006100 	call	10000610 <IO_write>
	IO_write(HPI_DATA,0x0013);
100058b8:	014004c4 	movi	r5,19
100058bc:	0009883a 	mov	r4,zero
100058c0:	00006100 	call	10000610 <IO_write>
	IO_write(HPI_DATA,0x0514);
100058c4:	01414504 	movi	r5,1300
100058c8:	0009883a 	mov	r4,zero
100058cc:	00006100 	call	10000610 <IO_write>

	//td content 4 bytes
	IO_write(HPI_DATA,0x0680);//c
100058d0:	0141a004 	movi	r5,1664
100058d4:	0009883a 	mov	r4,zero
100058d8:	00006100 	call	10000610 <IO_write>
	IO_write(HPI_DATA,0x0100);//e //device 0x01
100058dc:	01404004 	movi	r5,256
100058e0:	0009883a 	mov	r4,zero
100058e4:	00006100 	call	10000610 <IO_write>
	IO_write(HPI_DATA,0x0000);//0
100058e8:	000b883a 	mov	r5,zero
100058ec:	0009883a 	mov	r4,zero
100058f0:	00006100 	call	10000610 <IO_write>
	IO_write(HPI_DATA,0x0012);//2
100058f4:	01400484 	movi	r5,18
100058f8:	0009883a 	mov	r4,zero
100058fc:	00006100 	call	10000610 <IO_write>

	//data phase IN-1
	IO_write(HPI_DATA,0x0544); //514
10005900:	01415104 	movi	r5,1348
10005904:	0009883a 	mov	r4,zero
10005908:	00006100 	call	10000610 <IO_write>
	IO_write(HPI_DATA,0x0008);//6
1000590c:	01400204 	movi	r5,8
10005910:	0009883a 	mov	r4,zero
10005914:	00006100 	call	10000610 <IO_write>
	IO_write(HPI_DATA,0x0290);//8
10005918:	0140a404 	movi	r5,656
1000591c:	0009883a 	mov	r4,zero
10005920:	00006100 	call	10000610 <IO_write>
	IO_write(HPI_DATA,0x0041);//a
10005924:	01401044 	movi	r5,65
10005928:	0009883a 	mov	r4,zero
1000592c:	00006100 	call	10000610 <IO_write>
	IO_write(HPI_DATA,0x0013);//c
10005930:	014004c4 	movi	r5,19
10005934:	0009883a 	mov	r4,zero
10005938:	00006100 	call	10000610 <IO_write>
	IO_write(HPI_DATA,0x0520);//e
1000593c:	01414804 	movi	r5,1312
10005940:	0009883a 	mov	r4,zero
10005944:	00006100 	call	10000610 <IO_write>

	//data phase IN-2
	IO_write(HPI_DATA,0x054c); //520
10005948:	01415304 	movi	r5,1356
1000594c:	0009883a 	mov	r4,zero
10005950:	00006100 	call	10000610 <IO_write>
	IO_write(HPI_DATA,0x0008);//2
10005954:	01400204 	movi	r5,8
10005958:	0009883a 	mov	r4,zero
1000595c:	00006100 	call	10000610 <IO_write>
	IO_write(HPI_DATA,0x0290);//4
10005960:	0140a404 	movi	r5,656
10005964:	0009883a 	mov	r4,zero
10005968:	00006100 	call	10000610 <IO_write>
	IO_write(HPI_DATA,0x0001);//6
1000596c:	01400044 	movi	r5,1
10005970:	0009883a 	mov	r4,zero
10005974:	00006100 	call	10000610 <IO_write>
	IO_write(HPI_DATA,0x0013);//8
10005978:	014004c4 	movi	r5,19
1000597c:	0009883a 	mov	r4,zero
10005980:	00006100 	call	10000610 <IO_write>
	IO_write(HPI_DATA,0x052c);//a
10005984:	01414b04 	movi	r5,1324
10005988:	0009883a 	mov	r4,zero
1000598c:	00006100 	call	10000610 <IO_write>

	//data phase IN-3
	IO_write(HPI_DATA,0x0554); //c
10005990:	01415504 	movi	r5,1364
10005994:	0009883a 	mov	r4,zero
10005998:	00006100 	call	10000610 <IO_write>
	IO_write(HPI_DATA,0x0002);//e
1000599c:	01400084 	movi	r5,2
100059a0:	0009883a 	mov	r4,zero
100059a4:	00006100 	call	10000610 <IO_write>
	IO_write(HPI_DATA,0x0290);//530
100059a8:	0140a404 	movi	r5,656
100059ac:	0009883a 	mov	r4,zero
100059b0:	00006100 	call	10000610 <IO_write>
	IO_write(HPI_DATA,0x0041);//2
100059b4:	01401044 	movi	r5,65
100059b8:	0009883a 	mov	r4,zero
100059bc:	00006100 	call	10000610 <IO_write>
	IO_write(HPI_DATA,0x0013);//4
100059c0:	014004c4 	movi	r5,19
100059c4:	0009883a 	mov	r4,zero
100059c8:	00006100 	call	10000610 <IO_write>
	IO_write(HPI_DATA,0x0538);//6
100059cc:	01414e04 	movi	r5,1336
100059d0:	0009883a 	mov	r4,zero
100059d4:	00006100 	call	10000610 <IO_write>

	//status phase
	IO_write(HPI_DATA,0x0000); //538
100059d8:	000b883a 	mov	r5,zero
100059dc:	0009883a 	mov	r4,zero
100059e0:	00006100 	call	10000610 <IO_write>
	IO_write(HPI_DATA,0x0000);//a
100059e4:	000b883a 	mov	r5,zero
100059e8:	0009883a 	mov	r4,zero
100059ec:	00006100 	call	10000610 <IO_write>
	IO_write(HPI_DATA,0x0210);//c
100059f0:	01408404 	movi	r5,528
100059f4:	0009883a 	mov	r4,zero
100059f8:	00006100 	call	10000610 <IO_write>
	IO_write(HPI_DATA,0x0041);//e
100059fc:	01401044 	movi	r5,65
10005a00:	0009883a 	mov	r4,zero
10005a04:	00006100 	call	10000610 <IO_write>
	IO_write(HPI_DATA,0x0013);//540
10005a08:	014004c4 	movi	r5,19
10005a0c:	0009883a 	mov	r4,zero
10005a10:	00006100 	call	10000610 <IO_write>
	IO_write(HPI_DATA,0x0000);//2
10005a14:	000b883a 	mov	r5,zero
10005a18:	0009883a 	mov	r4,zero
10005a1c:	00006100 	call	10000610 <IO_write>

	UsbWrite(HUSB_SIE1_pCurrentTDPtr,0x0500); //HUSB_SIE1_pCurrentTDPtr
10005a20:	01414004 	movi	r5,1280
10005a24:	01006c04 	movi	r4,432
10005a28:	00054d00 	call	100054d0 <UsbWrite>
}
10005a2c:	0001883a 	nop
10005a30:	e037883a 	mov	sp,fp
10005a34:	dfc00117 	ldw	ra,4(sp)
10005a38:	df000017 	ldw	fp,0(sp)
10005a3c:	dec00204 	addi	sp,sp,8
10005a40:	f800283a 	ret

10005a44 <UsbGetConfigDesc1>:


void UsbGetConfigDesc1()
{
10005a44:	defffe04 	addi	sp,sp,-8
10005a48:	dfc00115 	stw	ra,4(sp)
10005a4c:	df000015 	stw	fp,0(sp)
10005a50:	d839883a 	mov	fp,sp
	//the starting address
	IO_write(HPI_ADDR,0x0500); //the start address
10005a54:	01414004 	movi	r5,1280
10005a58:	01000084 	movi	r4,2
10005a5c:	00006100 	call	10000610 <IO_write>
	IO_write(HPI_DATA,0x050C);
10005a60:	01414304 	movi	r5,1292
10005a64:	0009883a 	mov	r4,zero
10005a68:	00006100 	call	10000610 <IO_write>
	IO_write(HPI_DATA,0x0008); //4 port number
10005a6c:	01400204 	movi	r5,8
10005a70:	0009883a 	mov	r4,zero
10005a74:	00006100 	call	10000610 <IO_write>
	IO_write(HPI_DATA,0x02D0); //device address
10005a78:	0140b404 	movi	r5,720
10005a7c:	0009883a 	mov	r4,zero
10005a80:	00006100 	call	10000610 <IO_write>
	IO_write(HPI_DATA,0x0001);
10005a84:	01400044 	movi	r5,1
10005a88:	0009883a 	mov	r4,zero
10005a8c:	00006100 	call	10000610 <IO_write>
	IO_write(HPI_DATA,0x0013);
10005a90:	014004c4 	movi	r5,19
10005a94:	0009883a 	mov	r4,zero
10005a98:	00006100 	call	10000610 <IO_write>
	IO_write(HPI_DATA,0x0514);
10005a9c:	01414504 	movi	r5,1300
10005aa0:	0009883a 	mov	r4,zero
10005aa4:	00006100 	call	10000610 <IO_write>

	//td content 4 bytes
	IO_write(HPI_DATA,0x0680);//c
10005aa8:	0141a004 	movi	r5,1664
10005aac:	0009883a 	mov	r4,zero
10005ab0:	00006100 	call	10000610 <IO_write>
	IO_write(HPI_DATA,0x0200);//e //config 0x02
10005ab4:	01408004 	movi	r5,512
10005ab8:	0009883a 	mov	r4,zero
10005abc:	00006100 	call	10000610 <IO_write>
	IO_write(HPI_DATA,0x0000);//0
10005ac0:	000b883a 	mov	r5,zero
10005ac4:	0009883a 	mov	r4,zero
10005ac8:	00006100 	call	10000610 <IO_write>
	IO_write(HPI_DATA,0x0009);//2
10005acc:	01400244 	movi	r5,9
10005ad0:	0009883a 	mov	r4,zero
10005ad4:	00006100 	call	10000610 <IO_write>

	//data phase IN-1
	IO_write(HPI_DATA,0x0544); //514
10005ad8:	01415104 	movi	r5,1348
10005adc:	0009883a 	mov	r4,zero
10005ae0:	00006100 	call	10000610 <IO_write>
	IO_write(HPI_DATA,0x0008);//6
10005ae4:	01400204 	movi	r5,8
10005ae8:	0009883a 	mov	r4,zero
10005aec:	00006100 	call	10000610 <IO_write>
	IO_write(HPI_DATA,0x0290);//8
10005af0:	0140a404 	movi	r5,656
10005af4:	0009883a 	mov	r4,zero
10005af8:	00006100 	call	10000610 <IO_write>
	IO_write(HPI_DATA,0x0041);//a
10005afc:	01401044 	movi	r5,65
10005b00:	0009883a 	mov	r4,zero
10005b04:	00006100 	call	10000610 <IO_write>
	IO_write(HPI_DATA,0x0013);//c
10005b08:	014004c4 	movi	r5,19
10005b0c:	0009883a 	mov	r4,zero
10005b10:	00006100 	call	10000610 <IO_write>
	IO_write(HPI_DATA,0x0520);//e
10005b14:	01414804 	movi	r5,1312
10005b18:	0009883a 	mov	r4,zero
10005b1c:	00006100 	call	10000610 <IO_write>

	//data phase IN-2
	IO_write(HPI_DATA,0x054c); //520
10005b20:	01415304 	movi	r5,1356
10005b24:	0009883a 	mov	r4,zero
10005b28:	00006100 	call	10000610 <IO_write>
	IO_write(HPI_DATA,0x0001);//2
10005b2c:	01400044 	movi	r5,1
10005b30:	0009883a 	mov	r4,zero
10005b34:	00006100 	call	10000610 <IO_write>
	IO_write(HPI_DATA,0x0290);//4
10005b38:	0140a404 	movi	r5,656
10005b3c:	0009883a 	mov	r4,zero
10005b40:	00006100 	call	10000610 <IO_write>
	IO_write(HPI_DATA,0x0001);//6 //data0
10005b44:	01400044 	movi	r5,1
10005b48:	0009883a 	mov	r4,zero
10005b4c:	00006100 	call	10000610 <IO_write>
	IO_write(HPI_DATA,0x0013);//8
10005b50:	014004c4 	movi	r5,19
10005b54:	0009883a 	mov	r4,zero
10005b58:	00006100 	call	10000610 <IO_write>
	IO_write(HPI_DATA,0x052c);//a
10005b5c:	01414b04 	movi	r5,1324
10005b60:	0009883a 	mov	r4,zero
10005b64:	00006100 	call	10000610 <IO_write>

	//status phase
	IO_write(HPI_DATA,0x0000); //52c
10005b68:	000b883a 	mov	r5,zero
10005b6c:	0009883a 	mov	r4,zero
10005b70:	00006100 	call	10000610 <IO_write>
	IO_write(HPI_DATA,0x0000);//e
10005b74:	000b883a 	mov	r5,zero
10005b78:	0009883a 	mov	r4,zero
10005b7c:	00006100 	call	10000610 <IO_write>
	IO_write(HPI_DATA,0x0210);//530
10005b80:	01408404 	movi	r5,528
10005b84:	0009883a 	mov	r4,zero
10005b88:	00006100 	call	10000610 <IO_write>
	IO_write(HPI_DATA,0x0041);//2
10005b8c:	01401044 	movi	r5,65
10005b90:	0009883a 	mov	r4,zero
10005b94:	00006100 	call	10000610 <IO_write>
	IO_write(HPI_DATA,0x0013);//4
10005b98:	014004c4 	movi	r5,19
10005b9c:	0009883a 	mov	r4,zero
10005ba0:	00006100 	call	10000610 <IO_write>
	IO_write(HPI_DATA,0x0000);//6
10005ba4:	000b883a 	mov	r5,zero
10005ba8:	0009883a 	mov	r4,zero
10005bac:	00006100 	call	10000610 <IO_write>

	UsbWrite(HUSB_SIE1_pCurrentTDPtr,0x0500); //HUSB_SIE1_pCurrentTDPtr
10005bb0:	01414004 	movi	r5,1280
10005bb4:	01006c04 	movi	r4,432
10005bb8:	00054d00 	call	100054d0 <UsbWrite>
}
10005bbc:	0001883a 	nop
10005bc0:	e037883a 	mov	sp,fp
10005bc4:	dfc00117 	ldw	ra,4(sp)
10005bc8:	df000017 	ldw	fp,0(sp)
10005bcc:	dec00204 	addi	sp,sp,8
10005bd0:	f800283a 	ret

10005bd4 <UsbGetConfigDesc2>:


void UsbGetConfigDesc2()
{
10005bd4:	defffe04 	addi	sp,sp,-8
10005bd8:	dfc00115 	stw	ra,4(sp)
10005bdc:	df000015 	stw	fp,0(sp)
10005be0:	d839883a 	mov	fp,sp
	//the starting address
	IO_write(HPI_ADDR,0x0500); //the start address
10005be4:	01414004 	movi	r5,1280
10005be8:	01000084 	movi	r4,2
10005bec:	00006100 	call	10000610 <IO_write>
	IO_write(HPI_DATA,0x050C);
10005bf0:	01414304 	movi	r5,1292
10005bf4:	0009883a 	mov	r4,zero
10005bf8:	00006100 	call	10000610 <IO_write>
	IO_write(HPI_DATA,0x0008); //4 port number
10005bfc:	01400204 	movi	r5,8
10005c00:	0009883a 	mov	r4,zero
10005c04:	00006100 	call	10000610 <IO_write>
	IO_write(HPI_DATA,0x02D0); //device address
10005c08:	0140b404 	movi	r5,720
10005c0c:	0009883a 	mov	r4,zero
10005c10:	00006100 	call	10000610 <IO_write>
	IO_write(HPI_DATA,0x0001);
10005c14:	01400044 	movi	r5,1
10005c18:	0009883a 	mov	r4,zero
10005c1c:	00006100 	call	10000610 <IO_write>
	IO_write(HPI_DATA,0x0013);
10005c20:	014004c4 	movi	r5,19
10005c24:	0009883a 	mov	r4,zero
10005c28:	00006100 	call	10000610 <IO_write>
	IO_write(HPI_DATA,0x0514);
10005c2c:	01414504 	movi	r5,1300
10005c30:	0009883a 	mov	r4,zero
10005c34:	00006100 	call	10000610 <IO_write>

	//td content 4 bytes
	IO_write(HPI_DATA,0x0680);//c
10005c38:	0141a004 	movi	r5,1664
10005c3c:	0009883a 	mov	r4,zero
10005c40:	00006100 	call	10000610 <IO_write>
	IO_write(HPI_DATA,0x0200);//e //config 0x02
10005c44:	01408004 	movi	r5,512
10005c48:	0009883a 	mov	r4,zero
10005c4c:	00006100 	call	10000610 <IO_write>
	IO_write(HPI_DATA,0x0000);//0
10005c50:	000b883a 	mov	r5,zero
10005c54:	0009883a 	mov	r4,zero
10005c58:	00006100 	call	10000610 <IO_write>
	IO_write(HPI_DATA,0x00FF);//2
10005c5c:	01403fc4 	movi	r5,255
10005c60:	0009883a 	mov	r4,zero
10005c64:	00006100 	call	10000610 <IO_write>

	//data phase IN-1
	IO_write(HPI_DATA,0x055c); //514
10005c68:	01415704 	movi	r5,1372
10005c6c:	0009883a 	mov	r4,zero
10005c70:	00006100 	call	10000610 <IO_write>
	IO_write(HPI_DATA,0x0008);//6
10005c74:	01400204 	movi	r5,8
10005c78:	0009883a 	mov	r4,zero
10005c7c:	00006100 	call	10000610 <IO_write>
	IO_write(HPI_DATA,0x0290);//8
10005c80:	0140a404 	movi	r5,656
10005c84:	0009883a 	mov	r4,zero
10005c88:	00006100 	call	10000610 <IO_write>
	IO_write(HPI_DATA,0x0041);//a
10005c8c:	01401044 	movi	r5,65
10005c90:	0009883a 	mov	r4,zero
10005c94:	00006100 	call	10000610 <IO_write>
	IO_write(HPI_DATA,0x0013);//c
10005c98:	014004c4 	movi	r5,19
10005c9c:	0009883a 	mov	r4,zero
10005ca0:	00006100 	call	10000610 <IO_write>
	IO_write(HPI_DATA,0x0520);//e
10005ca4:	01414804 	movi	r5,1312
10005ca8:	0009883a 	mov	r4,zero
10005cac:	00006100 	call	10000610 <IO_write>

	//data phase IN-2
	IO_write(HPI_DATA,0x0564); //520
10005cb0:	01415904 	movi	r5,1380
10005cb4:	0009883a 	mov	r4,zero
10005cb8:	00006100 	call	10000610 <IO_write>
	IO_write(HPI_DATA,0x0008);//2
10005cbc:	01400204 	movi	r5,8
10005cc0:	0009883a 	mov	r4,zero
10005cc4:	00006100 	call	10000610 <IO_write>
	IO_write(HPI_DATA,0x0290);//4
10005cc8:	0140a404 	movi	r5,656
10005ccc:	0009883a 	mov	r4,zero
10005cd0:	00006100 	call	10000610 <IO_write>
	IO_write(HPI_DATA,0x0001);//6 //data0
10005cd4:	01400044 	movi	r5,1
10005cd8:	0009883a 	mov	r4,zero
10005cdc:	00006100 	call	10000610 <IO_write>
	IO_write(HPI_DATA,0x0013);//8
10005ce0:	014004c4 	movi	r5,19
10005ce4:	0009883a 	mov	r4,zero
10005ce8:	00006100 	call	10000610 <IO_write>
	IO_write(HPI_DATA,0x052c);//a
10005cec:	01414b04 	movi	r5,1324
10005cf0:	0009883a 	mov	r4,zero
10005cf4:	00006100 	call	10000610 <IO_write>

	//data phase IN-3
	IO_write(HPI_DATA,0x056c); //52c
10005cf8:	01415b04 	movi	r5,1388
10005cfc:	0009883a 	mov	r4,zero
10005d00:	00006100 	call	10000610 <IO_write>
	IO_write(HPI_DATA,0x0008);//e
10005d04:	01400204 	movi	r5,8
10005d08:	0009883a 	mov	r4,zero
10005d0c:	00006100 	call	10000610 <IO_write>
	IO_write(HPI_DATA,0x0290);//530
10005d10:	0140a404 	movi	r5,656
10005d14:	0009883a 	mov	r4,zero
10005d18:	00006100 	call	10000610 <IO_write>
	IO_write(HPI_DATA,0x0041);//2
10005d1c:	01401044 	movi	r5,65
10005d20:	0009883a 	mov	r4,zero
10005d24:	00006100 	call	10000610 <IO_write>
	IO_write(HPI_DATA,0x0013);//4
10005d28:	014004c4 	movi	r5,19
10005d2c:	0009883a 	mov	r4,zero
10005d30:	00006100 	call	10000610 <IO_write>
	IO_write(HPI_DATA,0x0538);//6
10005d34:	01414e04 	movi	r5,1336
10005d38:	0009883a 	mov	r4,zero
10005d3c:	00006100 	call	10000610 <IO_write>

	//data phase IN-4
	IO_write(HPI_DATA,0x0574); //538
10005d40:	01415d04 	movi	r5,1396
10005d44:	0009883a 	mov	r4,zero
10005d48:	00006100 	call	10000610 <IO_write>
	IO_write(HPI_DATA,0x0008);//a
10005d4c:	01400204 	movi	r5,8
10005d50:	0009883a 	mov	r4,zero
10005d54:	00006100 	call	10000610 <IO_write>
	IO_write(HPI_DATA,0x0290);//c
10005d58:	0140a404 	movi	r5,656
10005d5c:	0009883a 	mov	r4,zero
10005d60:	00006100 	call	10000610 <IO_write>
	IO_write(HPI_DATA,0x0001);//e //data0
10005d64:	01400044 	movi	r5,1
10005d68:	0009883a 	mov	r4,zero
10005d6c:	00006100 	call	10000610 <IO_write>
	IO_write(HPI_DATA,0x0013);//540
10005d70:	014004c4 	movi	r5,19
10005d74:	0009883a 	mov	r4,zero
10005d78:	00006100 	call	10000610 <IO_write>
	IO_write(HPI_DATA,0x0544);//2
10005d7c:	01415104 	movi	r5,1348
10005d80:	0009883a 	mov	r4,zero
10005d84:	00006100 	call	10000610 <IO_write>

	//data phase IN-5
	IO_write(HPI_DATA,0x057c); //544
10005d88:	01415f04 	movi	r5,1404
10005d8c:	0009883a 	mov	r4,zero
10005d90:	00006100 	call	10000610 <IO_write>
	IO_write(HPI_DATA,0x0002);//6
10005d94:	01400084 	movi	r5,2
10005d98:	0009883a 	mov	r4,zero
10005d9c:	00006100 	call	10000610 <IO_write>
	IO_write(HPI_DATA,0x0290);//8
10005da0:	0140a404 	movi	r5,656
10005da4:	0009883a 	mov	r4,zero
10005da8:	00006100 	call	10000610 <IO_write>
	IO_write(HPI_DATA,0x0041);//a //data1
10005dac:	01401044 	movi	r5,65
10005db0:	0009883a 	mov	r4,zero
10005db4:	00006100 	call	10000610 <IO_write>
	IO_write(HPI_DATA,0x0013);//c
10005db8:	014004c4 	movi	r5,19
10005dbc:	0009883a 	mov	r4,zero
10005dc0:	00006100 	call	10000610 <IO_write>
	IO_write(HPI_DATA,0x0550);//e
10005dc4:	01415404 	movi	r5,1360
10005dc8:	0009883a 	mov	r4,zero
10005dcc:	00006100 	call	10000610 <IO_write>

	//status phase
	IO_write(HPI_DATA,0x0000); //550
10005dd0:	000b883a 	mov	r5,zero
10005dd4:	0009883a 	mov	r4,zero
10005dd8:	00006100 	call	10000610 <IO_write>
	IO_write(HPI_DATA,0x0000);//2
10005ddc:	000b883a 	mov	r5,zero
10005de0:	0009883a 	mov	r4,zero
10005de4:	00006100 	call	10000610 <IO_write>
	IO_write(HPI_DATA,0x0210);//4
10005de8:	01408404 	movi	r5,528
10005dec:	0009883a 	mov	r4,zero
10005df0:	00006100 	call	10000610 <IO_write>
	IO_write(HPI_DATA,0x0041);//6
10005df4:	01401044 	movi	r5,65
10005df8:	0009883a 	mov	r4,zero
10005dfc:	00006100 	call	10000610 <IO_write>
	IO_write(HPI_DATA,0x0013);//8
10005e00:	014004c4 	movi	r5,19
10005e04:	0009883a 	mov	r4,zero
10005e08:	00006100 	call	10000610 <IO_write>
	IO_write(HPI_DATA,0x0000);//a
10005e0c:	000b883a 	mov	r5,zero
10005e10:	0009883a 	mov	r4,zero
10005e14:	00006100 	call	10000610 <IO_write>

	UsbWrite(HUSB_SIE1_pCurrentTDPtr,0x0500); //HUSB_SIE1_pCurrentTDPtr
10005e18:	01414004 	movi	r5,1280
10005e1c:	01006c04 	movi	r4,432
10005e20:	00054d00 	call	100054d0 <UsbWrite>
}
10005e24:	0001883a 	nop
10005e28:	e037883a 	mov	sp,fp
10005e2c:	dfc00117 	ldw	ra,4(sp)
10005e30:	df000017 	ldw	fp,0(sp)
10005e34:	dec00204 	addi	sp,sp,8
10005e38:	f800283a 	ret

10005e3c <UsbSetConfig>:

void UsbSetConfig()
{
10005e3c:	defffe04 	addi	sp,sp,-8
10005e40:	dfc00115 	stw	ra,4(sp)
10005e44:	df000015 	stw	fp,0(sp)
10005e48:	d839883a 	mov	fp,sp
	//the starting address
	IO_write(HPI_ADDR,0x0500); //the start address
10005e4c:	01414004 	movi	r5,1280
10005e50:	01000084 	movi	r4,2
10005e54:	00006100 	call	10000610 <IO_write>
	IO_write(HPI_DATA,0x050C);
10005e58:	01414304 	movi	r5,1292
10005e5c:	0009883a 	mov	r4,zero
10005e60:	00006100 	call	10000610 <IO_write>
	IO_write(HPI_DATA,0x0008); //4 port number
10005e64:	01400204 	movi	r5,8
10005e68:	0009883a 	mov	r4,zero
10005e6c:	00006100 	call	10000610 <IO_write>
	IO_write(HPI_DATA,0x02D0); //port address
10005e70:	0140b404 	movi	r5,720
10005e74:	0009883a 	mov	r4,zero
10005e78:	00006100 	call	10000610 <IO_write>
	IO_write(HPI_DATA,0x0001);
10005e7c:	01400044 	movi	r5,1
10005e80:	0009883a 	mov	r4,zero
10005e84:	00006100 	call	10000610 <IO_write>
	IO_write(HPI_DATA,0x0013);
10005e88:	014004c4 	movi	r5,19
10005e8c:	0009883a 	mov	r4,zero
10005e90:	00006100 	call	10000610 <IO_write>
	IO_write(HPI_DATA,0x0514);
10005e94:	01414504 	movi	r5,1300
10005e98:	0009883a 	mov	r4,zero
10005e9c:	00006100 	call	10000610 <IO_write>

	//td content 4 bytes
	IO_write(HPI_DATA,0x0900);
10005ea0:	01424004 	movi	r5,2304
10005ea4:	0009883a 	mov	r4,zero
10005ea8:	00006100 	call	10000610 <IO_write>
	IO_write(HPI_DATA,0x0001);//device address
10005eac:	01400044 	movi	r5,1
10005eb0:	0009883a 	mov	r4,zero
10005eb4:	00006100 	call	10000610 <IO_write>
	IO_write(HPI_DATA,0x0000);
10005eb8:	000b883a 	mov	r5,zero
10005ebc:	0009883a 	mov	r4,zero
10005ec0:	00006100 	call	10000610 <IO_write>
	IO_write(HPI_DATA,0x0000);
10005ec4:	000b883a 	mov	r5,zero
10005ec8:	0009883a 	mov	r4,zero
10005ecc:	00006100 	call	10000610 <IO_write>
	//in packet
	IO_write(HPI_DATA,0x0000); //don't care
10005ed0:	000b883a 	mov	r5,zero
10005ed4:	0009883a 	mov	r4,zero
10005ed8:	00006100 	call	10000610 <IO_write>
	IO_write(HPI_DATA,0x0000);//port number
10005edc:	000b883a 	mov	r5,zero
10005ee0:	0009883a 	mov	r4,zero
10005ee4:	00006100 	call	10000610 <IO_write>
	IO_write(HPI_DATA,0x0290);//device address
10005ee8:	0140a404 	movi	r5,656
10005eec:	0009883a 	mov	r4,zero
10005ef0:	00006100 	call	10000610 <IO_write>
	IO_write(HPI_DATA,0x0041); //data 1
10005ef4:	01401044 	movi	r5,65
10005ef8:	0009883a 	mov	r4,zero
10005efc:	00006100 	call	10000610 <IO_write>
	IO_write(HPI_DATA,0x0013);
10005f00:	014004c4 	movi	r5,19
10005f04:	0009883a 	mov	r4,zero
10005f08:	00006100 	call	10000610 <IO_write>
	IO_write(HPI_DATA,0x0000);
10005f0c:	000b883a 	mov	r5,zero
10005f10:	0009883a 	mov	r4,zero
10005f14:	00006100 	call	10000610 <IO_write>

	UsbWrite(HUSB_SIE1_pCurrentTDPtr,0x0500); //HUSB_SIE1_pCurrentTDPtr
10005f18:	01414004 	movi	r5,1280
10005f1c:	01006c04 	movi	r4,432
10005f20:	00054d00 	call	100054d0 <UsbWrite>

}
10005f24:	0001883a 	nop
10005f28:	e037883a 	mov	sp,fp
10005f2c:	dfc00117 	ldw	ra,4(sp)
10005f30:	df000017 	ldw	fp,0(sp)
10005f34:	dec00204 	addi	sp,sp,8
10005f38:	f800283a 	ret

10005f3c <UsbClassRequest>:

void UsbClassRequest()
{
10005f3c:	defffe04 	addi	sp,sp,-8
10005f40:	dfc00115 	stw	ra,4(sp)
10005f44:	df000015 	stw	fp,0(sp)
10005f48:	d839883a 	mov	fp,sp
	//the starting address
	IO_write(HPI_ADDR,0x0500); //the start address
10005f4c:	01414004 	movi	r5,1280
10005f50:	01000084 	movi	r4,2
10005f54:	00006100 	call	10000610 <IO_write>
	IO_write(HPI_DATA,0x050C);
10005f58:	01414304 	movi	r5,1292
10005f5c:	0009883a 	mov	r4,zero
10005f60:	00006100 	call	10000610 <IO_write>
	IO_write(HPI_DATA,0x0008); //4 port number
10005f64:	01400204 	movi	r5,8
10005f68:	0009883a 	mov	r4,zero
10005f6c:	00006100 	call	10000610 <IO_write>
	IO_write(HPI_DATA,0x02D0); //port address
10005f70:	0140b404 	movi	r5,720
10005f74:	0009883a 	mov	r4,zero
10005f78:	00006100 	call	10000610 <IO_write>
	IO_write(HPI_DATA,0x0001);
10005f7c:	01400044 	movi	r5,1
10005f80:	0009883a 	mov	r4,zero
10005f84:	00006100 	call	10000610 <IO_write>
	IO_write(HPI_DATA,0x0013);
10005f88:	014004c4 	movi	r5,19
10005f8c:	0009883a 	mov	r4,zero
10005f90:	00006100 	call	10000610 <IO_write>
	IO_write(HPI_DATA,0x0514);
10005f94:	01414504 	movi	r5,1300
10005f98:	0009883a 	mov	r4,zero
10005f9c:	00006100 	call	10000610 <IO_write>

	//td content 4 bytes
	IO_write(HPI_DATA,0x0A21);
10005fa0:	01428844 	movi	r5,2593
10005fa4:	0009883a 	mov	r4,zero
10005fa8:	00006100 	call	10000610 <IO_write>
	IO_write(HPI_DATA,0x0000);//device address
10005fac:	000b883a 	mov	r5,zero
10005fb0:	0009883a 	mov	r4,zero
10005fb4:	00006100 	call	10000610 <IO_write>
	IO_write(HPI_DATA,0x0000);
10005fb8:	000b883a 	mov	r5,zero
10005fbc:	0009883a 	mov	r4,zero
10005fc0:	00006100 	call	10000610 <IO_write>
	IO_write(HPI_DATA,0x0000);
10005fc4:	000b883a 	mov	r5,zero
10005fc8:	0009883a 	mov	r4,zero
10005fcc:	00006100 	call	10000610 <IO_write>
	//in packet
	IO_write(HPI_DATA,0x0000); //don't care
10005fd0:	000b883a 	mov	r5,zero
10005fd4:	0009883a 	mov	r4,zero
10005fd8:	00006100 	call	10000610 <IO_write>
	IO_write(HPI_DATA,0x0000);//port number /data length
10005fdc:	000b883a 	mov	r5,zero
10005fe0:	0009883a 	mov	r4,zero
10005fe4:	00006100 	call	10000610 <IO_write>
	IO_write(HPI_DATA,0x0290);//device address
10005fe8:	0140a404 	movi	r5,656
10005fec:	0009883a 	mov	r4,zero
10005ff0:	00006100 	call	10000610 <IO_write>
	IO_write(HPI_DATA,0x0041); //data 1
10005ff4:	01401044 	movi	r5,65
10005ff8:	0009883a 	mov	r4,zero
10005ffc:	00006100 	call	10000610 <IO_write>
	IO_write(HPI_DATA,0x0013);
10006000:	014004c4 	movi	r5,19
10006004:	0009883a 	mov	r4,zero
10006008:	00006100 	call	10000610 <IO_write>
	IO_write(HPI_DATA,0x0000);
1000600c:	000b883a 	mov	r5,zero
10006010:	0009883a 	mov	r4,zero
10006014:	00006100 	call	10000610 <IO_write>

	UsbWrite(HUSB_SIE1_pCurrentTDPtr,0x0500); //HUSB_SIE1_pCurrentTDPtr
10006018:	01414004 	movi	r5,1280
1000601c:	01006c04 	movi	r4,432
10006020:	00054d00 	call	100054d0 <UsbWrite>
}
10006024:	0001883a 	nop
10006028:	e037883a 	mov	sp,fp
1000602c:	dfc00117 	ldw	ra,4(sp)
10006030:	df000017 	ldw	fp,0(sp)
10006034:	dec00204 	addi	sp,sp,8
10006038:	f800283a 	ret

1000603c <UsbGetHidDesc>:


void UsbGetHidDesc()
{
1000603c:	defffe04 	addi	sp,sp,-8
10006040:	dfc00115 	stw	ra,4(sp)
10006044:	df000015 	stw	fp,0(sp)
10006048:	d839883a 	mov	fp,sp
	//the starting address
	IO_write(HPI_ADDR,0x0500); //the start address
1000604c:	01414004 	movi	r5,1280
10006050:	01000084 	movi	r4,2
10006054:	00006100 	call	10000610 <IO_write>
	IO_write(HPI_DATA,0x050C);
10006058:	01414304 	movi	r5,1292
1000605c:	0009883a 	mov	r4,zero
10006060:	00006100 	call	10000610 <IO_write>
	IO_write(HPI_DATA,0x0008); //4 port number
10006064:	01400204 	movi	r5,8
10006068:	0009883a 	mov	r4,zero
1000606c:	00006100 	call	10000610 <IO_write>
	IO_write(HPI_DATA,0x02D0); //port address
10006070:	0140b404 	movi	r5,720
10006074:	0009883a 	mov	r4,zero
10006078:	00006100 	call	10000610 <IO_write>
	IO_write(HPI_DATA,0x0001);
1000607c:	01400044 	movi	r5,1
10006080:	0009883a 	mov	r4,zero
10006084:	00006100 	call	10000610 <IO_write>
	IO_write(HPI_DATA,0x0013);
10006088:	014004c4 	movi	r5,19
1000608c:	0009883a 	mov	r4,zero
10006090:	00006100 	call	10000610 <IO_write>
	IO_write(HPI_DATA,0x0514);
10006094:	01414504 	movi	r5,1300
10006098:	0009883a 	mov	r4,zero
1000609c:	00006100 	call	10000610 <IO_write>

	//td content 4 bytes
	IO_write(HPI_DATA,0x0681);//c
100060a0:	0141a044 	movi	r5,1665
100060a4:	0009883a 	mov	r4,zero
100060a8:	00006100 	call	10000610 <IO_write>
	IO_write(HPI_DATA,0x2100);//e //HID 0x21
100060ac:	01484004 	movi	r5,8448
100060b0:	0009883a 	mov	r4,zero
100060b4:	00006100 	call	10000610 <IO_write>
	IO_write(HPI_DATA,0x0000);//0
100060b8:	000b883a 	mov	r5,zero
100060bc:	0009883a 	mov	r4,zero
100060c0:	00006100 	call	10000610 <IO_write>
	IO_write(HPI_DATA,0x007B);//2
100060c4:	01401ec4 	movi	r5,123
100060c8:	0009883a 	mov	r4,zero
100060cc:	00006100 	call	10000610 <IO_write>

	//data phase IN-1
	IO_write(HPI_DATA,0x0544); //514
100060d0:	01415104 	movi	r5,1348
100060d4:	0009883a 	mov	r4,zero
100060d8:	00006100 	call	10000610 <IO_write>
	IO_write(HPI_DATA,0x0008);//6
100060dc:	01400204 	movi	r5,8
100060e0:	0009883a 	mov	r4,zero
100060e4:	00006100 	call	10000610 <IO_write>
	IO_write(HPI_DATA,0x0290);//8
100060e8:	0140a404 	movi	r5,656
100060ec:	0009883a 	mov	r4,zero
100060f0:	00006100 	call	10000610 <IO_write>
	IO_write(HPI_DATA,0x0041);//a
100060f4:	01401044 	movi	r5,65
100060f8:	0009883a 	mov	r4,zero
100060fc:	00006100 	call	10000610 <IO_write>
	IO_write(HPI_DATA,0x0013);//c
10006100:	014004c4 	movi	r5,19
10006104:	0009883a 	mov	r4,zero
10006108:	00006100 	call	10000610 <IO_write>
	IO_write(HPI_DATA,0x0520);//e
1000610c:	01414804 	movi	r5,1312
10006110:	0009883a 	mov	r4,zero
10006114:	00006100 	call	10000610 <IO_write>

	//status phase
	IO_write(HPI_DATA,0x0000); //52c
10006118:	000b883a 	mov	r5,zero
1000611c:	0009883a 	mov	r4,zero
10006120:	00006100 	call	10000610 <IO_write>
	IO_write(HPI_DATA,0x0000);//e
10006124:	000b883a 	mov	r5,zero
10006128:	0009883a 	mov	r4,zero
1000612c:	00006100 	call	10000610 <IO_write>
	IO_write(HPI_DATA,0x0210);//530
10006130:	01408404 	movi	r5,528
10006134:	0009883a 	mov	r4,zero
10006138:	00006100 	call	10000610 <IO_write>
	IO_write(HPI_DATA,0x0041);//2
1000613c:	01401044 	movi	r5,65
10006140:	0009883a 	mov	r4,zero
10006144:	00006100 	call	10000610 <IO_write>
	IO_write(HPI_DATA,0x0013);//4
10006148:	014004c4 	movi	r5,19
1000614c:	0009883a 	mov	r4,zero
10006150:	00006100 	call	10000610 <IO_write>
	IO_write(HPI_DATA,0x0000);//6
10006154:	000b883a 	mov	r5,zero
10006158:	0009883a 	mov	r4,zero
1000615c:	00006100 	call	10000610 <IO_write>

	UsbWrite(HUSB_SIE1_pCurrentTDPtr,0x0500); //HUSB_SIE1_pCurrentTDPtr
10006160:	01414004 	movi	r5,1280
10006164:	01006c04 	movi	r4,432
10006168:	00054d00 	call	100054d0 <UsbWrite>

}
1000616c:	0001883a 	nop
10006170:	e037883a 	mov	sp,fp
10006174:	dfc00117 	ldw	ra,4(sp)
10006178:	df000017 	ldw	fp,0(sp)
1000617c:	dec00204 	addi	sp,sp,8
10006180:	f800283a 	ret

10006184 <UsbGetReportDesc>:


void UsbGetReportDesc()
{
10006184:	defffe04 	addi	sp,sp,-8
10006188:	dfc00115 	stw	ra,4(sp)
1000618c:	df000015 	stw	fp,0(sp)
10006190:	d839883a 	mov	fp,sp
	//the starting address
	IO_write(HPI_ADDR,0x0500); //the start address
10006194:	01414004 	movi	r5,1280
10006198:	01000084 	movi	r4,2
1000619c:	00006100 	call	10000610 <IO_write>
	IO_write(HPI_DATA,0x050C);
100061a0:	01414304 	movi	r5,1292
100061a4:	0009883a 	mov	r4,zero
100061a8:	00006100 	call	10000610 <IO_write>
	IO_write(HPI_DATA,0x0008); //4 port number
100061ac:	01400204 	movi	r5,8
100061b0:	0009883a 	mov	r4,zero
100061b4:	00006100 	call	10000610 <IO_write>
	IO_write(HPI_DATA,0x02D0); //device address
100061b8:	0140b404 	movi	r5,720
100061bc:	0009883a 	mov	r4,zero
100061c0:	00006100 	call	10000610 <IO_write>
	IO_write(HPI_DATA,0x0001);
100061c4:	01400044 	movi	r5,1
100061c8:	0009883a 	mov	r4,zero
100061cc:	00006100 	call	10000610 <IO_write>
	IO_write(HPI_DATA,0x0013);
100061d0:	014004c4 	movi	r5,19
100061d4:	0009883a 	mov	r4,zero
100061d8:	00006100 	call	10000610 <IO_write>
	IO_write(HPI_DATA,0x0514);
100061dc:	01414504 	movi	r5,1300
100061e0:	0009883a 	mov	r4,zero
100061e4:	00006100 	call	10000610 <IO_write>

	//td content 4 bytes
	IO_write(HPI_DATA,0x0681);//c
100061e8:	0141a044 	movi	r5,1665
100061ec:	0009883a 	mov	r4,zero
100061f0:	00006100 	call	10000610 <IO_write>
	IO_write(HPI_DATA,0x2200);//e //report 0x22
100061f4:	01488004 	movi	r5,8704
100061f8:	0009883a 	mov	r4,zero
100061fc:	00006100 	call	10000610 <IO_write>
	IO_write(HPI_DATA,0x0000);//0
10006200:	000b883a 	mov	r5,zero
10006204:	0009883a 	mov	r4,zero
10006208:	00006100 	call	10000610 <IO_write>
	IO_write(HPI_DATA,0x007B);//2
1000620c:	01401ec4 	movi	r5,123
10006210:	0009883a 	mov	r4,zero
10006214:	00006100 	call	10000610 <IO_write>

	//data phase IN-1
	IO_write(HPI_DATA,0x0580); //514
10006218:	01416004 	movi	r5,1408
1000621c:	0009883a 	mov	r4,zero
10006220:	00006100 	call	10000610 <IO_write>
	IO_write(HPI_DATA,0x0008);//6
10006224:	01400204 	movi	r5,8
10006228:	0009883a 	mov	r4,zero
1000622c:	00006100 	call	10000610 <IO_write>
	IO_write(HPI_DATA,0x0290);//8
10006230:	0140a404 	movi	r5,656
10006234:	0009883a 	mov	r4,zero
10006238:	00006100 	call	10000610 <IO_write>
	IO_write(HPI_DATA,0x0041);//a
1000623c:	01401044 	movi	r5,65
10006240:	0009883a 	mov	r4,zero
10006244:	00006100 	call	10000610 <IO_write>
	IO_write(HPI_DATA,0x0013);//c
10006248:	014004c4 	movi	r5,19
1000624c:	0009883a 	mov	r4,zero
10006250:	00006100 	call	10000610 <IO_write>
	IO_write(HPI_DATA,0x0520);//e
10006254:	01414804 	movi	r5,1312
10006258:	0009883a 	mov	r4,zero
1000625c:	00006100 	call	10000610 <IO_write>

	//data phase IN-2
	IO_write(HPI_DATA,0x0588); //520
10006260:	01416204 	movi	r5,1416
10006264:	0009883a 	mov	r4,zero
10006268:	00006100 	call	10000610 <IO_write>
	IO_write(HPI_DATA,0x0008);//2
1000626c:	01400204 	movi	r5,8
10006270:	0009883a 	mov	r4,zero
10006274:	00006100 	call	10000610 <IO_write>
	IO_write(HPI_DATA,0x0290);//4
10006278:	0140a404 	movi	r5,656
1000627c:	0009883a 	mov	r4,zero
10006280:	00006100 	call	10000610 <IO_write>
	IO_write(HPI_DATA,0x0001);//6 //data0
10006284:	01400044 	movi	r5,1
10006288:	0009883a 	mov	r4,zero
1000628c:	00006100 	call	10000610 <IO_write>
	IO_write(HPI_DATA,0x0013);//8
10006290:	014004c4 	movi	r5,19
10006294:	0009883a 	mov	r4,zero
10006298:	00006100 	call	10000610 <IO_write>
	IO_write(HPI_DATA,0x052c);//a
1000629c:	01414b04 	movi	r5,1324
100062a0:	0009883a 	mov	r4,zero
100062a4:	00006100 	call	10000610 <IO_write>

	//data phase IN-3
	IO_write(HPI_DATA,0x0590); //52c
100062a8:	01416404 	movi	r5,1424
100062ac:	0009883a 	mov	r4,zero
100062b0:	00006100 	call	10000610 <IO_write>
	IO_write(HPI_DATA,0x0008);//e
100062b4:	01400204 	movi	r5,8
100062b8:	0009883a 	mov	r4,zero
100062bc:	00006100 	call	10000610 <IO_write>
	IO_write(HPI_DATA,0x0290);//530
100062c0:	0140a404 	movi	r5,656
100062c4:	0009883a 	mov	r4,zero
100062c8:	00006100 	call	10000610 <IO_write>
	IO_write(HPI_DATA,0x0041);//2
100062cc:	01401044 	movi	r5,65
100062d0:	0009883a 	mov	r4,zero
100062d4:	00006100 	call	10000610 <IO_write>
	IO_write(HPI_DATA,0x0013);//4
100062d8:	014004c4 	movi	r5,19
100062dc:	0009883a 	mov	r4,zero
100062e0:	00006100 	call	10000610 <IO_write>
	IO_write(HPI_DATA,0x0538);//6
100062e4:	01414e04 	movi	r5,1336
100062e8:	0009883a 	mov	r4,zero
100062ec:	00006100 	call	10000610 <IO_write>

	//data phase IN-4
	IO_write(HPI_DATA,0x0598); //538
100062f0:	01416604 	movi	r5,1432
100062f4:	0009883a 	mov	r4,zero
100062f8:	00006100 	call	10000610 <IO_write>
	IO_write(HPI_DATA,0x0008);//a
100062fc:	01400204 	movi	r5,8
10006300:	0009883a 	mov	r4,zero
10006304:	00006100 	call	10000610 <IO_write>
	IO_write(HPI_DATA,0x0290);//c
10006308:	0140a404 	movi	r5,656
1000630c:	0009883a 	mov	r4,zero
10006310:	00006100 	call	10000610 <IO_write>
	IO_write(HPI_DATA,0x0001);//e //data0
10006314:	01400044 	movi	r5,1
10006318:	0009883a 	mov	r4,zero
1000631c:	00006100 	call	10000610 <IO_write>
	IO_write(HPI_DATA,0x0013);//540
10006320:	014004c4 	movi	r5,19
10006324:	0009883a 	mov	r4,zero
10006328:	00006100 	call	10000610 <IO_write>
	IO_write(HPI_DATA,0x0544);//2
1000632c:	01415104 	movi	r5,1348
10006330:	0009883a 	mov	r4,zero
10006334:	00006100 	call	10000610 <IO_write>

	//data phase IN-5
	IO_write(HPI_DATA,0x05a0); //544
10006338:	01416804 	movi	r5,1440
1000633c:	0009883a 	mov	r4,zero
10006340:	00006100 	call	10000610 <IO_write>
	IO_write(HPI_DATA,0x0008);//6
10006344:	01400204 	movi	r5,8
10006348:	0009883a 	mov	r4,zero
1000634c:	00006100 	call	10000610 <IO_write>
	IO_write(HPI_DATA,0x0290);//8
10006350:	0140a404 	movi	r5,656
10006354:	0009883a 	mov	r4,zero
10006358:	00006100 	call	10000610 <IO_write>
	IO_write(HPI_DATA,0x0041);//a //data1
1000635c:	01401044 	movi	r5,65
10006360:	0009883a 	mov	r4,zero
10006364:	00006100 	call	10000610 <IO_write>
	IO_write(HPI_DATA,0x0013);//c
10006368:	014004c4 	movi	r5,19
1000636c:	0009883a 	mov	r4,zero
10006370:	00006100 	call	10000610 <IO_write>
	IO_write(HPI_DATA,0x0550);//e
10006374:	01415404 	movi	r5,1360
10006378:	0009883a 	mov	r4,zero
1000637c:	00006100 	call	10000610 <IO_write>

	//data phase IN-6
	IO_write(HPI_DATA,0x05a8); //550
10006380:	01416a04 	movi	r5,1448
10006384:	0009883a 	mov	r4,zero
10006388:	00006100 	call	10000610 <IO_write>
	IO_write(HPI_DATA,0x0008);//2
1000638c:	01400204 	movi	r5,8
10006390:	0009883a 	mov	r4,zero
10006394:	00006100 	call	10000610 <IO_write>
	IO_write(HPI_DATA,0x0290);//4
10006398:	0140a404 	movi	r5,656
1000639c:	0009883a 	mov	r4,zero
100063a0:	00006100 	call	10000610 <IO_write>
	IO_write(HPI_DATA,0x0001);//6 //data0
100063a4:	01400044 	movi	r5,1
100063a8:	0009883a 	mov	r4,zero
100063ac:	00006100 	call	10000610 <IO_write>
	IO_write(HPI_DATA,0x0013);//8
100063b0:	014004c4 	movi	r5,19
100063b4:	0009883a 	mov	r4,zero
100063b8:	00006100 	call	10000610 <IO_write>
	IO_write(HPI_DATA,0x055c);//a
100063bc:	01415704 	movi	r5,1372
100063c0:	0009883a 	mov	r4,zero
100063c4:	00006100 	call	10000610 <IO_write>

	//data phase IN-7
	IO_write(HPI_DATA,0x05b0); //c
100063c8:	01416c04 	movi	r5,1456
100063cc:	0009883a 	mov	r4,zero
100063d0:	00006100 	call	10000610 <IO_write>
	IO_write(HPI_DATA,0x0008);//e
100063d4:	01400204 	movi	r5,8
100063d8:	0009883a 	mov	r4,zero
100063dc:	00006100 	call	10000610 <IO_write>
	IO_write(HPI_DATA,0x0290);//560
100063e0:	0140a404 	movi	r5,656
100063e4:	0009883a 	mov	r4,zero
100063e8:	00006100 	call	10000610 <IO_write>
	IO_write(HPI_DATA,0x0041);//2 //data1
100063ec:	01401044 	movi	r5,65
100063f0:	0009883a 	mov	r4,zero
100063f4:	00006100 	call	10000610 <IO_write>
	IO_write(HPI_DATA,0x0013);//4
100063f8:	014004c4 	movi	r5,19
100063fc:	0009883a 	mov	r4,zero
10006400:	00006100 	call	10000610 <IO_write>
	IO_write(HPI_DATA,0x0568);//6
10006404:	01415a04 	movi	r5,1384
10006408:	0009883a 	mov	r4,zero
1000640c:	00006100 	call	10000610 <IO_write>

	//data phase IN-8
	IO_write(HPI_DATA,0x05b8); //8
10006410:	01416e04 	movi	r5,1464
10006414:	0009883a 	mov	r4,zero
10006418:	00006100 	call	10000610 <IO_write>
	IO_write(HPI_DATA,0x0003);//a
1000641c:	014000c4 	movi	r5,3
10006420:	0009883a 	mov	r4,zero
10006424:	00006100 	call	10000610 <IO_write>
	IO_write(HPI_DATA,0x0290);//c
10006428:	0140a404 	movi	r5,656
1000642c:	0009883a 	mov	r4,zero
10006430:	00006100 	call	10000610 <IO_write>
	IO_write(HPI_DATA,0x0001);//e //data0
10006434:	01400044 	movi	r5,1
10006438:	0009883a 	mov	r4,zero
1000643c:	00006100 	call	10000610 <IO_write>
	IO_write(HPI_DATA,0x0013);//570
10006440:	014004c4 	movi	r5,19
10006444:	0009883a 	mov	r4,zero
10006448:	00006100 	call	10000610 <IO_write>
	IO_write(HPI_DATA,0x0574);//2
1000644c:	01415d04 	movi	r5,1396
10006450:	0009883a 	mov	r4,zero
10006454:	00006100 	call	10000610 <IO_write>

	//status phase
	IO_write(HPI_DATA,0x0000); //574
10006458:	000b883a 	mov	r5,zero
1000645c:	0009883a 	mov	r4,zero
10006460:	00006100 	call	10000610 <IO_write>
	IO_write(HPI_DATA,0x0000);//6
10006464:	000b883a 	mov	r5,zero
10006468:	0009883a 	mov	r4,zero
1000646c:	00006100 	call	10000610 <IO_write>
	IO_write(HPI_DATA,0x0210);//8
10006470:	01408404 	movi	r5,528
10006474:	0009883a 	mov	r4,zero
10006478:	00006100 	call	10000610 <IO_write>
	IO_write(HPI_DATA,0x0041);//a
1000647c:	01401044 	movi	r5,65
10006480:	0009883a 	mov	r4,zero
10006484:	00006100 	call	10000610 <IO_write>
	IO_write(HPI_DATA,0x0013);//c
10006488:	014004c4 	movi	r5,19
1000648c:	0009883a 	mov	r4,zero
10006490:	00006100 	call	10000610 <IO_write>
	IO_write(HPI_DATA,0x0000);//e
10006494:	000b883a 	mov	r5,zero
10006498:	0009883a 	mov	r4,zero
1000649c:	00006100 	call	10000610 <IO_write>

	UsbWrite(HUSB_SIE1_pCurrentTDPtr,0x0500); //HUSB_SIE1_pCurrentTDPtr
100064a0:	01414004 	movi	r5,1280
100064a4:	01006c04 	movi	r4,432
100064a8:	00054d00 	call	100054d0 <UsbWrite>

}
100064ac:	0001883a 	nop
100064b0:	e037883a 	mov	sp,fp
100064b4:	dfc00117 	ldw	ra,4(sp)
100064b8:	df000017 	ldw	fp,0(sp)
100064bc:	dec00204 	addi	sp,sp,8
100064c0:	f800283a 	ret

100064c4 <UsbWaitTDListDone>:


alt_u16 UsbWaitTDListDone()
{
100064c4:	defffd04 	addi	sp,sp,-12
100064c8:	dfc00215 	stw	ra,8(sp)
100064cc:	df000115 	stw	fp,4(sp)
100064d0:	df000104 	addi	fp,sp,4
	alt_u16 usb_ctl_val;

	usb_ctl_val = UsbRead(HPI_SIE1_MSG_ADR); // STEP 3 j
100064d4:	01005104 	movi	r4,324
100064d8:	000552c0 	call	1000552c <UsbRead>
100064dc:	e0bfff8d 	sth	r2,-2(fp)
	UsbWrite(HPI_SIE1_MSG_ADR, 0);
100064e0:	000b883a 	mov	r5,zero
100064e4:	01005104 	movi	r4,324
100064e8:	00054d00 	call	100054d0 <UsbWrite>
	while (usb_ctl_val != HUSB_TDListDone)  // k, read sie1 msg register
100064ec:	00000d06 	br	10006524 <UsbWaitTDListDone+0x60>
	{
		if(usb_ctl_val == 0x0000)
100064f0:	e0bfff8b 	ldhu	r2,-2(fp)
100064f4:	10000526 	beq	r2,zero,1000650c <UsbWaitTDListDone+0x48>
		{
		}
		else
		{
			printf("[SIE1 MSG]:SIE1 msg reg is %x\n",usb_ctl_val);
100064f8:	e0bfff8b 	ldhu	r2,-2(fp)
100064fc:	100b883a 	mov	r5,r2
10006500:	010400b4 	movhi	r4,4098
10006504:	21168704 	addi	r4,r4,23068
10006508:	0016f900 	call	10016f90 <printf>
		}
		usb_ctl_val = UsbRead(HPI_SIE1_MSG_ADR);
1000650c:	01005104 	movi	r4,324
10006510:	000552c0 	call	1000552c <UsbRead>
10006514:	e0bfff8d 	sth	r2,-2(fp)
		UsbWrite(HPI_SIE1_MSG_ADR, 0);
10006518:	000b883a 	mov	r5,zero
1000651c:	01005104 	movi	r4,324
10006520:	00054d00 	call	100054d0 <UsbWrite>
	while (usb_ctl_val != HUSB_TDListDone)  // k, read sie1 msg register
10006524:	e0bfff8b 	ldhu	r2,-2(fp)
10006528:	10840018 	cmpnei	r2,r2,4096
1000652c:	103ff01e 	bne	r2,zero,100064f0 <UsbWaitTDListDone+0x2c>
	}

	return usb_ctl_val;
10006530:	e0bfff8b 	ldhu	r2,-2(fp)
}
10006534:	e037883a 	mov	sp,fp
10006538:	dfc00117 	ldw	ra,4(sp)
1000653c:	df000017 	ldw	fp,0(sp)
10006540:	dec00204 	addi	sp,sp,8
10006544:	f800283a 	ret

10006548 <UsbGetRetryCnt>:


alt_u16 UsbGetRetryCnt()
{
10006548:	defffd04 	addi	sp,sp,-12
1000654c:	dfc00215 	stw	ra,8(sp)
10006550:	df000115 	stw	fp,4(sp)
10006554:	df000104 	addi	fp,sp,4
	alt_u16 usb_ctl_val;

	IO_read(HPI_STATUS);
10006558:	010000c4 	movi	r4,3
1000655c:	00006840 	call	10000684 <IO_read>
	if(UsbRead(HPI_SIE1_MSG_ADR) == HUSB_TDListDone)
10006560:	01005104 	movi	r4,324
10006564:	000552c0 	call	1000552c <UsbRead>
10006568:	10bfffcc 	andi	r2,r2,65535
1000656c:	10840018 	cmpnei	r2,r2,4096
10006570:	1000091e 	bne	r2,zero,10006598 <UsbGetRetryCnt+0x50>
	{
		UsbWrite(HPI_SIE1_MSG_ADR, 0);
10006574:	000b883a 	mov	r5,zero
10006578:	01005104 	movi	r4,324
1000657c:	00054d00 	call	100054d0 <UsbWrite>

		while (!(IO_read(HPI_STATUS) & HPI_STATUS_SIE1msg_FLAG) )  //read sie1 msg register
10006580:	0001883a 	nop
10006584:	010000c4 	movi	r4,3
10006588:	00006840 	call	10000684 <IO_read>
1000658c:	10bfffcc 	andi	r2,r2,65535
10006590:	1080040c 	andi	r2,r2,16
10006594:	103ffb26 	beq	r2,zero,10006584 <UsbGetRetryCnt+0x3c>
		{
		}
	}
	//usleep(1000);
	IO_write(HPI_ADDR,0x0508);
10006598:	01414204 	movi	r5,1288
1000659c:	01000084 	movi	r4,2
100065a0:	00006100 	call	10000610 <IO_write>
	usb_ctl_val = IO_read(HPI_DATA);
100065a4:	0009883a 	mov	r4,zero
100065a8:	00006840 	call	10000684 <IO_read>
100065ac:	e0bfff8d 	sth	r2,-2(fp)

	return usb_ctl_val;
100065b0:	e0bfff8b 	ldhu	r2,-2(fp)
}
100065b4:	e037883a 	mov	sp,fp
100065b8:	dfc00117 	ldw	ra,4(sp)
100065bc:	df000017 	ldw	fp,0(sp)
100065c0:	dec00204 	addi	sp,sp,8
100065c4:	f800283a 	ret

100065c8 <UsbPrintMem>:


void UsbPrintMem()
{
100065c8:	defffc04 	addi	sp,sp,-16
100065cc:	dfc00315 	stw	ra,12(sp)
100065d0:	df000215 	stw	fp,8(sp)
100065d4:	df000204 	addi	fp,sp,8
	int i, code;
	IO_write(HPI_ADDR,0x0500); //the start address
100065d8:	01414004 	movi	r5,1280
100065dc:	01000084 	movi	r4,2
100065e0:	00006100 	call	10000610 <IO_write>
	for (i = 0; i <= 200; i += 2)
100065e4:	e03fff15 	stw	zero,-4(fp)
100065e8:	00000e06 	br	10006624 <UsbPrintMem+0x5c>
	{
		code = IO_read(HPI_DATA);
100065ec:	0009883a 	mov	r4,zero
100065f0:	00006840 	call	10000684 <IO_read>
100065f4:	10bfffcc 	andi	r2,r2,65535
100065f8:	e0bffe15 	stw	r2,-8(fp)
		printf("\naddr %x = %04x\n", 0x0500+i, code);
100065fc:	e0bfff17 	ldw	r2,-4(fp)
10006600:	10814004 	addi	r2,r2,1280
10006604:	e1bffe17 	ldw	r6,-8(fp)
10006608:	100b883a 	mov	r5,r2
1000660c:	010400b4 	movhi	r4,4098
10006610:	21168f04 	addi	r4,r4,23100
10006614:	0016f900 	call	10016f90 <printf>
	for (i = 0; i <= 200; i += 2)
10006618:	e0bfff17 	ldw	r2,-4(fp)
1000661c:	10800084 	addi	r2,r2,2
10006620:	e0bfff15 	stw	r2,-4(fp)
10006624:	e0bfff17 	ldw	r2,-4(fp)
10006628:	10803250 	cmplti	r2,r2,201
1000662c:	103fef1e 	bne	r2,zero,100065ec <UsbPrintMem+0x24>
	}
}
10006630:	0001883a 	nop
10006634:	e037883a 	mov	sp,fp
10006638:	dfc00117 	ldw	ra,4(sp)
1000663c:	df000017 	ldw	fp,0(sp)
10006640:	dec00204 	addi	sp,sp,8
10006644:	f800283a 	ret

10006648 <addToSet>:
	}
};

std::set<TileGroup> workset;

void addToSet(TileCollection k) {
10006648:	defffc04 	addi	sp,sp,-16
1000664c:	dfc00315 	stw	ra,12(sp)
10006650:	df000215 	stw	fp,8(sp)
10006654:	df000204 	addi	fp,sp,8
10006658:	e13ffe0d 	sth	r4,-8(fp)
	TileGroup toInsert(k);
1000665c:	e0bfff84 	addi	r2,fp,-2
10006660:	e17ffe17 	ldw	r5,-8(fp)
10006664:	1009883a 	mov	r4,r2
10006668:	0006a240 	call	10006a24 <_ZN9TileGroupC1E10__tile_col>
	workset.insert(toInsert);
1000666c:	e0bfff84 	addi	r2,fp,-2
10006670:	100b883a 	mov	r5,r2
10006674:	010400f4 	movhi	r4,4099
10006678:	21298b04 	addi	r4,r4,-22996
1000667c:	0006ce80 	call	10006ce8 <_ZNSt3setI9TileGroupSt4lessIS0_ESaIS0_EE6insertERKS0_>
10006680:	1009883a 	mov	r4,r2
10006684:	180b883a 	mov	r5,r3
}
10006688:	0001883a 	nop
1000668c:	e037883a 	mov	sp,fp
10006690:	dfc00117 	ldw	ra,4(sp)
10006694:	df000017 	ldw	fp,0(sp)
10006698:	dec00204 	addi	sp,sp,8
1000669c:	f800283a 	ret

100066a0 <addPendingPos>:

void addPendingPos(int16_t x, int16_t y) {
100066a0:	defffb04 	addi	sp,sp,-20
100066a4:	dfc00415 	stw	ra,16(sp)
100066a8:	df000315 	stw	fp,12(sp)
100066ac:	df000304 	addi	fp,sp,12
100066b0:	2005883a 	mov	r2,r4
100066b4:	2807883a 	mov	r3,r5
100066b8:	e0bffe0d 	sth	r2,-8(fp)
100066bc:	1805883a 	mov	r2,r3
100066c0:	e0bffd0d 	sth	r2,-12(fp)
	TileGroup toInsert(x,y);
100066c4:	e0fffe0f 	ldh	r3,-8(fp)
100066c8:	e13ffd0f 	ldh	r4,-12(fp)
100066cc:	e0bfff84 	addi	r2,fp,-2
100066d0:	200d883a 	mov	r6,r4
100066d4:	180b883a 	mov	r5,r3
100066d8:	1009883a 	mov	r4,r2
100066dc:	0006a600 	call	10006a60 <_ZN9TileGroupC1Ess>
	workset.insert(toInsert);
100066e0:	e0bfff84 	addi	r2,fp,-2
100066e4:	100b883a 	mov	r5,r2
100066e8:	010400f4 	movhi	r4,4099
100066ec:	21298b04 	addi	r4,r4,-22996
100066f0:	0006ce80 	call	10006ce8 <_ZNSt3setI9TileGroupSt4lessIS0_ESaIS0_EE6insertERKS0_>
100066f4:	1009883a 	mov	r4,r2
100066f8:	180b883a 	mov	r5,r3
}
100066fc:	0001883a 	nop
10006700:	e037883a 	mov	sp,fp
10006704:	dfc00117 	ldw	ra,4(sp)
10006708:	df000017 	ldw	fp,0(sp)
1000670c:	dec00204 	addi	sp,sp,8
10006710:	f800283a 	ret

10006714 <getOne>:

TileCollection getOne() {
10006714:	defffa04 	addi	sp,sp,-24
10006718:	dfc00515 	stw	ra,20(sp)
1000671c:	df000415 	stw	fp,16(sp)
10006720:	df000404 	addi	fp,sp,16
	std::set<TileGroup>::iterator tempit = workset.begin();
10006724:	010400f4 	movhi	r4,4099
10006728:	21298b04 	addi	r4,r4,-22996
1000672c:	0006d6c0 	call	10006d6c <_ZNKSt3setI9TileGroupSt4lessIS0_ESaIS0_EE5beginEv>
10006730:	e0bffd15 	stw	r2,-12(fp)
	if(tempit != workset.end()) {
10006734:	010400f4 	movhi	r4,4099
10006738:	21298b04 	addi	r4,r4,-22996
1000673c:	0006da00 	call	10006da0 <_ZNKSt3setI9TileGroupSt4lessIS0_ESaIS0_EE3endEv>
10006740:	e0bffe15 	stw	r2,-8(fp)
10006744:	e0fffe04 	addi	r3,fp,-8
10006748:	e0bffd04 	addi	r2,fp,-12
1000674c:	180b883a 	mov	r5,r3
10006750:	1009883a 	mov	r4,r2
10006754:	0006dd40 	call	10006dd4 <_ZNKSt23_Rb_tree_const_iteratorI9TileGroupEneERKS1_>
10006758:	10803fcc 	andi	r2,r2,255
1000675c:	10001126 	beq	r2,zero,100067a4 <getOne+0x90>
		TileCollection first = (*tempit).k;
10006760:	e0bffd04 	addi	r2,fp,-12
10006764:	1009883a 	mov	r4,r2
10006768:	0006e0c0 	call	10006e0c <_ZNKSt23_Rb_tree_const_iteratorI9TileGroupEdeEv>
1000676c:	10c00003 	ldbu	r3,0(r2)
10006770:	e0fffc85 	stb	r3,-14(fp)
10006774:	10800043 	ldbu	r2,1(r2)
10006778:	e0bffcc5 	stb	r2,-13(fp)
		workset.erase(*tempit);
1000677c:	e0bffd04 	addi	r2,fp,-12
10006780:	1009883a 	mov	r4,r2
10006784:	0006e0c0 	call	10006e0c <_ZNKSt23_Rb_tree_const_iteratorI9TileGroupEdeEv>
10006788:	100b883a 	mov	r5,r2
1000678c:	010400f4 	movhi	r4,4099
10006790:	21298b04 	addi	r4,r4,-22996
10006794:	0006e440 	call	10006e44 <_ZNSt3setI9TileGroupSt4lessIS0_ESaIS0_EE5eraseERKS0_>
		return first;
10006798:	e0bffc8b 	ldhu	r2,-14(fp)
1000679c:	e0bfff8d 	sth	r2,-2(fp)
100067a0:	00000606 	br	100067bc <getOne+0xa8>
	} else {
		TileCollection wrong;
		wrong.tile_x = -1;
100067a4:	00bfffc4 	movi	r2,-1
100067a8:	e0bffc05 	stb	r2,-16(fp)
		wrong.tile_y = -1;
100067ac:	00bfffc4 	movi	r2,-1
100067b0:	e0bffc45 	stb	r2,-15(fp)
		return wrong;
100067b4:	e0bffc0b 	ldhu	r2,-16(fp)
100067b8:	e0bfff8d 	sth	r2,-2(fp)
100067bc:	0007883a 	mov	r3,zero
100067c0:	e0bfff83 	ldbu	r2,-2(fp)
100067c4:	10803fcc 	andi	r2,r2,255
100067c8:	013fc004 	movi	r4,-256
100067cc:	1906703a 	and	r3,r3,r4
100067d0:	1884b03a 	or	r2,r3,r2
100067d4:	1007883a 	mov	r3,r2
100067d8:	e0bfffc3 	ldbu	r2,-1(fp)
100067dc:	10803fcc 	andi	r2,r2,255
100067e0:	1008923a 	slli	r4,r2,8
100067e4:	00bffff4 	movhi	r2,65535
100067e8:	10803fc4 	addi	r2,r2,255
100067ec:	1884703a 	and	r2,r3,r2
100067f0:	1104b03a 	or	r2,r2,r4
100067f4:	1007883a 	mov	r3,r2
100067f8:	1805883a 	mov	r2,r3
	}
}
100067fc:	e037883a 	mov	sp,fp
10006800:	dfc00117 	ldw	ra,4(sp)
10006804:	df000017 	ldw	fp,0(sp)
10006808:	dec00204 	addi	sp,sp,8
1000680c:	f800283a 	ret

10006810 <hasRemain>:

bool hasRemain() {
10006810:	defffc04 	addi	sp,sp,-16
10006814:	dfc00315 	stw	ra,12(sp)
10006818:	df000215 	stw	fp,8(sp)
1000681c:	df000204 	addi	fp,sp,8
	std::set<TileGroup>::iterator tempit = workset.begin();
10006820:	010400f4 	movhi	r4,4099
10006824:	21298b04 	addi	r4,r4,-22996
10006828:	0006d6c0 	call	10006d6c <_ZNKSt3setI9TileGroupSt4lessIS0_ESaIS0_EE5beginEv>
1000682c:	e0bffe15 	stw	r2,-8(fp)
	return tempit != workset.end();
10006830:	010400f4 	movhi	r4,4099
10006834:	21298b04 	addi	r4,r4,-22996
10006838:	0006da00 	call	10006da0 <_ZNKSt3setI9TileGroupSt4lessIS0_ESaIS0_EE3endEv>
1000683c:	e0bfff15 	stw	r2,-4(fp)
10006840:	e0ffff04 	addi	r3,fp,-4
10006844:	e0bffe04 	addi	r2,fp,-8
10006848:	180b883a 	mov	r5,r3
1000684c:	1009883a 	mov	r4,r2
10006850:	0006dd40 	call	10006dd4 <_ZNKSt23_Rb_tree_const_iteratorI9TileGroupEneERKS1_>
10006854:	0001883a 	nop
}
10006858:	e037883a 	mov	sp,fp
1000685c:	dfc00117 	ldw	ra,4(sp)
10006860:	df000017 	ldw	fp,0(sp)
10006864:	dec00204 	addi	sp,sp,8
10006868:	f800283a 	ret

1000686c <clearQueue>:

void clearQueue() {
1000686c:	defffe04 	addi	sp,sp,-8
10006870:	dfc00115 	stw	ra,4(sp)
10006874:	df000015 	stw	fp,0(sp)
10006878:	d839883a 	mov	fp,sp
	workset.clear();
1000687c:	010400f4 	movhi	r4,4099
10006880:	21298b04 	addi	r4,r4,-22996
10006884:	0006e800 	call	10006e80 <_ZNSt3setI9TileGroupSt4lessIS0_ESaIS0_EE5clearEv>
}
10006888:	0001883a 	nop
1000688c:	e037883a 	mov	sp,fp
10006890:	dfc00117 	ldw	ra,4(sp)
10006894:	df000017 	ldw	fp,0(sp)
10006898:	dec00204 	addi	sp,sp,8
1000689c:	f800283a 	ret

100068a0 <_Z41__static_initialization_and_destruction_0ii>:
100068a0:	defffc04 	addi	sp,sp,-16
100068a4:	dfc00315 	stw	ra,12(sp)
100068a8:	df000215 	stw	fp,8(sp)
100068ac:	df000204 	addi	fp,sp,8
100068b0:	e13fff15 	stw	r4,-4(fp)
100068b4:	e17ffe15 	stw	r5,-8(fp)
100068b8:	e0bfff17 	ldw	r2,-4(fp)
100068bc:	10800058 	cmpnei	r2,r2,1
100068c0:	1000061e 	bne	r2,zero,100068dc <_Z41__static_initialization_and_destruction_0ii+0x3c>
100068c4:	e0fffe17 	ldw	r3,-8(fp)
100068c8:	00bfffd4 	movui	r2,65535
100068cc:	1880031e 	bne	r3,r2,100068dc <_Z41__static_initialization_and_destruction_0ii+0x3c>
std::set<TileGroup> workset;
100068d0:	010400f4 	movhi	r4,4099
100068d4:	21298b04 	addi	r4,r4,-22996
100068d8:	0006bac0 	call	10006bac <_ZNSt3setI9TileGroupSt4lessIS0_ESaIS0_EEC1Ev>
100068dc:	e0bfff17 	ldw	r2,-4(fp)
100068e0:	1000061e 	bne	r2,zero,100068fc <_Z41__static_initialization_and_destruction_0ii+0x5c>
100068e4:	e0fffe17 	ldw	r3,-8(fp)
100068e8:	00bfffd4 	movui	r2,65535
100068ec:	1880031e 	bne	r3,r2,100068fc <_Z41__static_initialization_and_destruction_0ii+0x5c>
100068f0:	010400f4 	movhi	r4,4099
100068f4:	21298b04 	addi	r4,r4,-22996
100068f8:	000885c0 	call	1000885c <_ZNSt3setI9TileGroupSt4lessIS0_ESaIS0_EED1Ev>
}
100068fc:	0001883a 	nop
10006900:	e037883a 	mov	sp,fp
10006904:	dfc00117 	ldw	ra,4(sp)
10006908:	df000017 	ldw	fp,0(sp)
1000690c:	dec00204 	addi	sp,sp,8
10006910:	f800283a 	ret

10006914 <_GLOBAL__sub_I_workset>:
10006914:	defffe04 	addi	sp,sp,-8
10006918:	dfc00115 	stw	ra,4(sp)
1000691c:	df000015 	stw	fp,0(sp)
10006920:	d839883a 	mov	fp,sp
10006924:	017fffd4 	movui	r5,65535
10006928:	01000044 	movi	r4,1
1000692c:	00068a00 	call	100068a0 <_Z41__static_initialization_and_destruction_0ii>
10006930:	e037883a 	mov	sp,fp
10006934:	dfc00117 	ldw	ra,4(sp)
10006938:	df000017 	ldw	fp,0(sp)
1000693c:	dec00204 	addi	sp,sp,8
10006940:	f800283a 	ret

10006944 <_GLOBAL__sub_D_workset>:
10006944:	defffe04 	addi	sp,sp,-8
10006948:	dfc00115 	stw	ra,4(sp)
1000694c:	df000015 	stw	fp,0(sp)
10006950:	d839883a 	mov	fp,sp
10006954:	017fffd4 	movui	r5,65535
10006958:	0009883a 	mov	r4,zero
1000695c:	00068a00 	call	100068a0 <_Z41__static_initialization_and_destruction_0ii>
10006960:	e037883a 	mov	sp,fp
10006964:	dfc00117 	ldw	ra,4(sp)
10006968:	df000017 	ldw	fp,0(sp)
1000696c:	dec00204 	addi	sp,sp,8
10006970:	f800283a 	ret

10006974 <_ZnwjPv>:
#endif // __cpp_sized_deallocation
#endif // __cpp_aligned_new

// Default placement versions of operator new.
inline void* operator new(std::size_t, void* __p) _GLIBCXX_USE_NOEXCEPT
{ return __p; }
10006974:	defffd04 	addi	sp,sp,-12
10006978:	df000215 	stw	fp,8(sp)
1000697c:	df000204 	addi	fp,sp,8
10006980:	e13fff15 	stw	r4,-4(fp)
10006984:	e17ffe15 	stw	r5,-8(fp)
10006988:	e0bffe17 	ldw	r2,-8(fp)
1000698c:	e037883a 	mov	sp,fp
10006990:	df000017 	ldw	fp,0(sp)
10006994:	dec00104 	addi	sp,sp,4
10006998:	f800283a 	ret

1000699c <_ZNSt15_Rb_tree_headerC1Ev>:
  struct _Rb_tree_header
  {
    _Rb_tree_node_base	_M_header;
    size_t		_M_node_count; // Keeps track of size of tree.

    _Rb_tree_header() _GLIBCXX_NOEXCEPT
1000699c:	defffd04 	addi	sp,sp,-12
100069a0:	dfc00215 	stw	ra,8(sp)
100069a4:	df000115 	stw	fp,4(sp)
100069a8:	df000104 	addi	fp,sp,4
100069ac:	e13fff15 	stw	r4,-4(fp)
    {
      _M_header._M_color = _S_red;
100069b0:	e0bfff17 	ldw	r2,-4(fp)
100069b4:	10000015 	stw	zero,0(r2)
      _M_reset();
100069b8:	e13fff17 	ldw	r4,-4(fp)
100069bc:	00069d80 	call	100069d8 <_ZNSt15_Rb_tree_header8_M_resetEv>
    }
100069c0:	0001883a 	nop
100069c4:	e037883a 	mov	sp,fp
100069c8:	dfc00117 	ldw	ra,4(sp)
100069cc:	df000017 	ldw	fp,0(sp)
100069d0:	dec00204 	addi	sp,sp,8
100069d4:	f800283a 	ret

100069d8 <_ZNSt15_Rb_tree_header8_M_resetEv>:

      __from._M_reset();
    }

    void
    _M_reset()
100069d8:	defffe04 	addi	sp,sp,-8
100069dc:	df000115 	stw	fp,4(sp)
100069e0:	df000104 	addi	fp,sp,4
100069e4:	e13fff15 	stw	r4,-4(fp)
    {
      _M_header._M_parent = 0;
100069e8:	e0bfff17 	ldw	r2,-4(fp)
100069ec:	10000115 	stw	zero,4(r2)
      _M_header._M_left = &_M_header;
100069f0:	e0ffff17 	ldw	r3,-4(fp)
100069f4:	e0bfff17 	ldw	r2,-4(fp)
100069f8:	10c00215 	stw	r3,8(r2)
      _M_header._M_right = &_M_header;
100069fc:	e0ffff17 	ldw	r3,-4(fp)
10006a00:	e0bfff17 	ldw	r2,-4(fp)
10006a04:	10c00315 	stw	r3,12(r2)
      _M_node_count = 0;
10006a08:	e0bfff17 	ldw	r2,-4(fp)
10006a0c:	10000415 	stw	zero,16(r2)
    }
10006a10:	0001883a 	nop
10006a14:	e037883a 	mov	sp,fp
10006a18:	df000017 	ldw	fp,0(sp)
10006a1c:	dec00104 	addi	sp,sp,4
10006a20:	f800283a 	ret

10006a24 <_ZN9TileGroupC1E10__tile_col>:
	TileGroup(TileCollection i) {
10006a24:	defffd04 	addi	sp,sp,-12
10006a28:	df000215 	stw	fp,8(sp)
10006a2c:	df000204 	addi	fp,sp,8
10006a30:	e13fff15 	stw	r4,-4(fp)
10006a34:	e17ffe0d 	sth	r5,-8(fp)
		k = i;
10006a38:	e0bfff17 	ldw	r2,-4(fp)
10006a3c:	e0fffe03 	ldbu	r3,-8(fp)
10006a40:	10c00005 	stb	r3,0(r2)
10006a44:	e0fffe43 	ldbu	r3,-7(fp)
10006a48:	10c00045 	stb	r3,1(r2)
	}
10006a4c:	0001883a 	nop
10006a50:	e037883a 	mov	sp,fp
10006a54:	df000017 	ldw	fp,0(sp)
10006a58:	dec00104 	addi	sp,sp,4
10006a5c:	f800283a 	ret

10006a60 <_ZN9TileGroupC1Ess>:
	TileGroup(int16_t x, int16_t y) {
10006a60:	defffc04 	addi	sp,sp,-16
10006a64:	df000315 	stw	fp,12(sp)
10006a68:	df000304 	addi	fp,sp,12
10006a6c:	e13fff15 	stw	r4,-4(fp)
10006a70:	2805883a 	mov	r2,r5
10006a74:	3007883a 	mov	r3,r6
10006a78:	e0bffe0d 	sth	r2,-8(fp)
10006a7c:	1805883a 	mov	r2,r3
10006a80:	e0bffd0d 	sth	r2,-12(fp)
		k.tile_x = x;
10006a84:	e0bffe0b 	ldhu	r2,-8(fp)
10006a88:	1007883a 	mov	r3,r2
10006a8c:	e0bfff17 	ldw	r2,-4(fp)
10006a90:	10c00005 	stb	r3,0(r2)
		k.tile_y = y;
10006a94:	e0bffd0b 	ldhu	r2,-12(fp)
10006a98:	1007883a 	mov	r3,r2
10006a9c:	e0bfff17 	ldw	r2,-4(fp)
10006aa0:	10c00045 	stb	r3,1(r2)
	}
10006aa4:	0001883a 	nop
10006aa8:	e037883a 	mov	sp,fp
10006aac:	df000017 	ldw	fp,0(sp)
10006ab0:	dec00104 	addi	sp,sp,4
10006ab4:	f800283a 	ret

10006ab8 <_ZNK9TileGroupltERKS_>:
	bool operator<(const TileGroup& t) const {
10006ab8:	defffd04 	addi	sp,sp,-12
10006abc:	df000215 	stw	fp,8(sp)
10006ac0:	df000204 	addi	fp,sp,8
10006ac4:	e13fff15 	stw	r4,-4(fp)
10006ac8:	e17ffe15 	stw	r5,-8(fp)
		return (t.k.tile_x < this->k.tile_x) || (t.k.tile_y < k.tile_y);
10006acc:	e0bffe17 	ldw	r2,-8(fp)
10006ad0:	10c00003 	ldbu	r3,0(r2)
10006ad4:	e0bfff17 	ldw	r2,-4(fp)
10006ad8:	10800003 	ldbu	r2,0(r2)
10006adc:	18c03fcc 	andi	r3,r3,255
10006ae0:	18c0201c 	xori	r3,r3,128
10006ae4:	18ffe004 	addi	r3,r3,-128
10006ae8:	10803fcc 	andi	r2,r2,255
10006aec:	1080201c 	xori	r2,r2,128
10006af0:	10bfe004 	addi	r2,r2,-128
10006af4:	18800b16 	blt	r3,r2,10006b24 <_ZNK9TileGroupltERKS_+0x6c>
10006af8:	e0bffe17 	ldw	r2,-8(fp)
10006afc:	10c00043 	ldbu	r3,1(r2)
10006b00:	e0bfff17 	ldw	r2,-4(fp)
10006b04:	10800043 	ldbu	r2,1(r2)
10006b08:	18c03fcc 	andi	r3,r3,255
10006b0c:	18c0201c 	xori	r3,r3,128
10006b10:	18ffe004 	addi	r3,r3,-128
10006b14:	10803fcc 	andi	r2,r2,255
10006b18:	1080201c 	xori	r2,r2,128
10006b1c:	10bfe004 	addi	r2,r2,-128
10006b20:	1880020e 	bge	r3,r2,10006b2c <_ZNK9TileGroupltERKS_+0x74>
10006b24:	00800044 	movi	r2,1
10006b28:	00000106 	br	10006b30 <_ZNK9TileGroupltERKS_+0x78>
10006b2c:	0005883a 	mov	r2,zero
	}
10006b30:	e037883a 	mov	sp,fp
10006b34:	df000017 	ldw	fp,0(sp)
10006b38:	dec00104 	addi	sp,sp,4
10006b3c:	f800283a 	ret

10006b40 <_ZNSt8_Rb_treeI9TileGroupS0_St9_IdentityIS0_ESt4lessIS0_ESaIS0_EE13_Rb_tree_implIS4_Lb1EED1Ev>:
#else
      // Unused _Is_pod_comparator is kept as it is part of mangled name.
      template<typename _Key_compare,
	       bool /* _Is_pod_comparator */ = __is_pod(_Key_compare)>
#endif
	struct _Rb_tree_impl
10006b40:	defffd04 	addi	sp,sp,-12
10006b44:	dfc00215 	stw	ra,8(sp)
10006b48:	df000115 	stw	fp,4(sp)
10006b4c:	df000104 	addi	fp,sp,4
10006b50:	e13fff15 	stw	r4,-4(fp)
10006b54:	e13fff17 	ldw	r4,-4(fp)
10006b58:	0006c340 	call	10006c34 <_ZNSaISt13_Rb_tree_nodeI9TileGroupEED1Ev>
10006b5c:	0001883a 	nop
10006b60:	e037883a 	mov	sp,fp
10006b64:	dfc00117 	ldw	ra,4(sp)
10006b68:	df000017 	ldw	fp,0(sp)
10006b6c:	dec00204 	addi	sp,sp,8
10006b70:	f800283a 	ret

10006b74 <_ZNSt8_Rb_treeI9TileGroupS0_St9_IdentityIS0_ESt4lessIS0_ESaIS0_EEC1Ev>:
    public:
      // allocation/deallocation
#if __cplusplus < 201103L
      _Rb_tree() { }
#else
      _Rb_tree() = default;
10006b74:	defffd04 	addi	sp,sp,-12
10006b78:	dfc00215 	stw	ra,8(sp)
10006b7c:	df000115 	stw	fp,4(sp)
10006b80:	df000104 	addi	fp,sp,4
10006b84:	e13fff15 	stw	r4,-4(fp)
10006b88:	e0bfff17 	ldw	r2,-4(fp)
10006b8c:	1009883a 	mov	r4,r2
10006b90:	0006be40 	call	10006be4 <_ZNSt8_Rb_treeI9TileGroupS0_St9_IdentityIS0_ESt4lessIS0_ESaIS0_EE13_Rb_tree_implIS4_Lb1EEC1Ev>
10006b94:	0001883a 	nop
10006b98:	e037883a 	mov	sp,fp
10006b9c:	dfc00117 	ldw	ra,4(sp)
10006ba0:	df000017 	ldw	fp,0(sp)
10006ba4:	dec00204 	addi	sp,sp,8
10006ba8:	f800283a 	ret

10006bac <_ZNSt3setI9TileGroupSt4lessIS0_ESaIS0_EEC1Ev>:
       *  @brief  Default constructor creates no elements.
       */
#if __cplusplus < 201103L
      set() : _M_t() { }
#else
      set() = default;
10006bac:	defffd04 	addi	sp,sp,-12
10006bb0:	dfc00215 	stw	ra,8(sp)
10006bb4:	df000115 	stw	fp,4(sp)
10006bb8:	df000104 	addi	fp,sp,4
10006bbc:	e13fff15 	stw	r4,-4(fp)
10006bc0:	e0bfff17 	ldw	r2,-4(fp)
10006bc4:	1009883a 	mov	r4,r2
10006bc8:	0006b740 	call	10006b74 <_ZNSt8_Rb_treeI9TileGroupS0_St9_IdentityIS0_ESt4lessIS0_ESaIS0_EEC1Ev>
10006bcc:	0001883a 	nop
10006bd0:	e037883a 	mov	sp,fp
10006bd4:	dfc00117 	ldw	ra,4(sp)
10006bd8:	df000017 	ldw	fp,0(sp)
10006bdc:	dec00204 	addi	sp,sp,8
10006be0:	f800283a 	ret

10006be4 <_ZNSt8_Rb_treeI9TileGroupS0_St9_IdentityIS0_ESt4lessIS0_ESaIS0_EE13_Rb_tree_implIS4_Lb1EEC1Ev>:
	  _Rb_tree_impl()
10006be4:	defffd04 	addi	sp,sp,-12
10006be8:	dfc00215 	stw	ra,8(sp)
10006bec:	df000115 	stw	fp,4(sp)
10006bf0:	df000104 	addi	fp,sp,4
10006bf4:	e13fff15 	stw	r4,-4(fp)
	  : _Node_allocator()
10006bf8:	e13fff17 	ldw	r4,-4(fp)
10006bfc:	0006eb80 	call	10006eb8 <_ZNSaISt13_Rb_tree_nodeI9TileGroupEEC1Ev>
10006c00:	e0bfff17 	ldw	r2,-4(fp)
10006c04:	1009883a 	mov	r4,r2
10006c08:	0006eec0 	call	10006eec <_ZNSt20_Rb_tree_key_compareISt4lessI9TileGroupEEC1Ev>
10006c0c:	e0bfff17 	ldw	r2,-4(fp)
10006c10:	10800104 	addi	r2,r2,4
10006c14:	1009883a 	mov	r4,r2
10006c18:	000699c0 	call	1000699c <_ZNSt15_Rb_tree_headerC1Ev>
	  { }
10006c1c:	0001883a 	nop
10006c20:	e037883a 	mov	sp,fp
10006c24:	dfc00117 	ldw	ra,4(sp)
10006c28:	df000017 	ldw	fp,0(sp)
10006c2c:	dec00204 	addi	sp,sp,8
10006c30:	f800283a 	ret

10006c34 <_ZNSaISt13_Rb_tree_nodeI9TileGroupEED1Ev>:
      : __allocator_base<_Tp>(__a) { }

      template<typename _Tp1>
	allocator(const allocator<_Tp1>&) throw() { }

      ~allocator() throw() { }
10006c34:	defffd04 	addi	sp,sp,-12
10006c38:	dfc00215 	stw	ra,8(sp)
10006c3c:	df000115 	stw	fp,4(sp)
10006c40:	df000104 	addi	fp,sp,4
10006c44:	e13fff15 	stw	r4,-4(fp)
10006c48:	e13fff17 	ldw	r4,-4(fp)
10006c4c:	0006f100 	call	10006f10 <_ZN9__gnu_cxx13new_allocatorISt13_Rb_tree_nodeI9TileGroupEED1Ev>
10006c50:	0001883a 	nop
10006c54:	e037883a 	mov	sp,fp
10006c58:	dfc00117 	ldw	ra,4(sp)
10006c5c:	df000017 	ldw	fp,0(sp)
10006c60:	dec00204 	addi	sp,sp,8
10006c64:	f800283a 	ret

10006c68 <_ZNSt8_Rb_treeI9TileGroupS0_St9_IdentityIS0_ESt4lessIS0_ESaIS0_EED1Ev>:
      { }

      _Rb_tree(_Rb_tree&& __x, _Node_allocator&& __a);
#endif

      ~_Rb_tree() _GLIBCXX_NOEXCEPT
10006c68:	defff004 	addi	sp,sp,-64
10006c6c:	dfc00f15 	stw	ra,60(sp)
10006c70:	df000e15 	stw	fp,56(sp)
10006c74:	df000e04 	addi	fp,sp,56
10006c78:	e13fff15 	stw	r4,-4(fp)
10006c7c:	00840074 	movhi	r2,4097
10006c80:	10a4e004 	addi	r2,r2,-27776
10006c84:	e0bff815 	stw	r2,-32(fp)
10006c88:	008400b4 	movhi	r2,4098
10006c8c:	10933f04 	addi	r2,r2,19708
10006c90:	e0bff915 	stw	r2,-28(fp)
10006c94:	e0bff204 	addi	r2,fp,-56
10006c98:	1009883a 	mov	r4,r2
10006c9c:	0014c000 	call	10014c00 <_Unwind_SjLj_Register>
      { _M_erase(_M_begin()); }
10006ca0:	e13fff17 	ldw	r4,-4(fp)
10006ca4:	0006fa40 	call	10006fa4 <_ZNSt8_Rb_treeI9TileGroupS0_St9_IdentityIS0_ESt4lessIS0_ESaIS0_EE8_M_beginEv>
10006ca8:	e03ff315 	stw	zero,-52(fp)
10006cac:	100b883a 	mov	r5,r2
10006cb0:	e13fff17 	ldw	r4,-4(fp)
10006cb4:	0006f340 	call	10006f34 <_ZNSt8_Rb_treeI9TileGroupS0_St9_IdentityIS0_ESt4lessIS0_ESaIS0_EE8_M_eraseEPSt13_Rb_tree_nodeIS0_E>
10006cb8:	e0bfff17 	ldw	r2,-4(fp)
10006cbc:	1009883a 	mov	r4,r2
10006cc0:	0006b400 	call	10006b40 <_ZNSt8_Rb_treeI9TileGroupS0_St9_IdentityIS0_ESt4lessIS0_ESaIS0_EE13_Rb_tree_implIS4_Lb1EED1Ev>
10006cc4:	0001883a 	nop
10006cc8:	e0bff204 	addi	r2,fp,-56
10006ccc:	1009883a 	mov	r4,r2
10006cd0:	0014c180 	call	10014c18 <_Unwind_SjLj_Unregister>
10006cd4:	e037883a 	mov	sp,fp
10006cd8:	dfc00117 	ldw	ra,4(sp)
10006cdc:	df000017 	ldw	fp,0(sp)
10006ce0:	dec00204 	addi	sp,sp,8
10006ce4:	f800283a 	ret

10006ce8 <_ZNSt3setI9TileGroupSt4lessIS0_ESaIS0_EE6insertERKS0_>:
       *  not already present in the %set.
       *
       *  Insertion requires logarithmic time.
       */
      std::pair<iterator, bool>
      insert(const value_type& __x)
10006ce8:	defff804 	addi	sp,sp,-32
10006cec:	dfc00715 	stw	ra,28(sp)
10006cf0:	df000615 	stw	fp,24(sp)
10006cf4:	df000604 	addi	fp,sp,24
10006cf8:	e13ffb15 	stw	r4,-20(fp)
10006cfc:	e17ffa15 	stw	r5,-24(fp)
      {
	std::pair<typename _Rep_type::iterator, bool> __p =
10006d00:	e0bffb17 	ldw	r2,-20(fp)
10006d04:	e17ffa17 	ldw	r5,-24(fp)
10006d08:	1009883a 	mov	r4,r2
10006d0c:	0006ff00 	call	10006ff0 <_ZNSt8_Rb_treeI9TileGroupS0_St9_IdentityIS0_ESt4lessIS0_ESaIS0_EE16_M_insert_uniqueIRKS0_EESt4pairISt17_Rb_tree_iteratorIS0_EbEOT_>
10006d10:	1009883a 	mov	r4,r2
10006d14:	180b883a 	mov	r5,r3
10006d18:	e13ffc15 	stw	r4,-16(fp)
10006d1c:	e17ffd15 	stw	r5,-12(fp)
	  _M_t._M_insert_unique(__x);
	return std::pair<iterator, bool>(__p.first, __p.second);
10006d20:	e0bffc04 	addi	r2,fp,-16
10006d24:	11000104 	addi	r4,r2,4
10006d28:	e0fffc04 	addi	r3,fp,-16
10006d2c:	e0bffe04 	addi	r2,fp,-8
10006d30:	200d883a 	mov	r6,r4
10006d34:	180b883a 	mov	r5,r3
10006d38:	1009883a 	mov	r4,r2
10006d3c:	00071440 	call	10007144 <_ZNSt4pairISt23_Rb_tree_const_iteratorI9TileGroupEbEC1IRSt17_Rb_tree_iteratorIS1_ERbLb1EEEOT_OT0_>
10006d40:	e0bffe17 	ldw	r2,-8(fp)
10006d44:	e0ffff17 	ldw	r3,-4(fp)
10006d48:	1009883a 	mov	r4,r2
10006d4c:	180b883a 	mov	r5,r3
      }
10006d50:	2005883a 	mov	r2,r4
10006d54:	2807883a 	mov	r3,r5
10006d58:	e037883a 	mov	sp,fp
10006d5c:	dfc00117 	ldw	ra,4(sp)
10006d60:	df000017 	ldw	fp,0(sp)
10006d64:	dec00204 	addi	sp,sp,8
10006d68:	f800283a 	ret

10006d6c <_ZNKSt3setI9TileGroupSt4lessIS0_ESaIS0_EE5beginEv>:
      begin() const _GLIBCXX_NOEXCEPT
10006d6c:	defffd04 	addi	sp,sp,-12
10006d70:	dfc00215 	stw	ra,8(sp)
10006d74:	df000115 	stw	fp,4(sp)
10006d78:	df000104 	addi	fp,sp,4
10006d7c:	e13fff15 	stw	r4,-4(fp)
      { return _M_t.begin(); }
10006d80:	e0bfff17 	ldw	r2,-4(fp)
10006d84:	1009883a 	mov	r4,r2
10006d88:	00071ac0 	call	100071ac <_ZNKSt8_Rb_treeI9TileGroupS0_St9_IdentityIS0_ESt4lessIS0_ESaIS0_EE5beginEv>
10006d8c:	e037883a 	mov	sp,fp
10006d90:	dfc00117 	ldw	ra,4(sp)
10006d94:	df000017 	ldw	fp,0(sp)
10006d98:	dec00204 	addi	sp,sp,8
10006d9c:	f800283a 	ret

10006da0 <_ZNKSt3setI9TileGroupSt4lessIS0_ESaIS0_EE3endEv>:
      end() const _GLIBCXX_NOEXCEPT
10006da0:	defffd04 	addi	sp,sp,-12
10006da4:	dfc00215 	stw	ra,8(sp)
10006da8:	df000115 	stw	fp,4(sp)
10006dac:	df000104 	addi	fp,sp,4
10006db0:	e13fff15 	stw	r4,-4(fp)
      { return _M_t.end(); }
10006db4:	e0bfff17 	ldw	r2,-4(fp)
10006db8:	1009883a 	mov	r4,r2
10006dbc:	00071f00 	call	100071f0 <_ZNKSt8_Rb_treeI9TileGroupS0_St9_IdentityIS0_ESt4lessIS0_ESaIS0_EE3endEv>
10006dc0:	e037883a 	mov	sp,fp
10006dc4:	dfc00117 	ldw	ra,4(sp)
10006dc8:	df000017 	ldw	fp,0(sp)
10006dcc:	dec00204 	addi	sp,sp,8
10006dd0:	f800283a 	ret

10006dd4 <_ZNKSt23_Rb_tree_const_iteratorI9TileGroupEneERKS1_>:
      operator!=(const _Self& __x) const _GLIBCXX_NOEXCEPT
10006dd4:	defffd04 	addi	sp,sp,-12
10006dd8:	df000215 	stw	fp,8(sp)
10006ddc:	df000204 	addi	fp,sp,8
10006de0:	e13fff15 	stw	r4,-4(fp)
10006de4:	e17ffe15 	stw	r5,-8(fp)
      { return _M_node != __x._M_node; }
10006de8:	e0bfff17 	ldw	r2,-4(fp)
10006dec:	10c00017 	ldw	r3,0(r2)
10006df0:	e0bffe17 	ldw	r2,-8(fp)
10006df4:	10800017 	ldw	r2,0(r2)
10006df8:	1884c03a 	cmpne	r2,r3,r2
10006dfc:	e037883a 	mov	sp,fp
10006e00:	df000017 	ldw	fp,0(sp)
10006e04:	dec00104 	addi	sp,sp,4
10006e08:	f800283a 	ret

10006e0c <_ZNKSt23_Rb_tree_const_iteratorI9TileGroupEdeEv>:
      operator*() const _GLIBCXX_NOEXCEPT
10006e0c:	defffd04 	addi	sp,sp,-12
10006e10:	dfc00215 	stw	ra,8(sp)
10006e14:	df000115 	stw	fp,4(sp)
10006e18:	df000104 	addi	fp,sp,4
10006e1c:	e13fff15 	stw	r4,-4(fp)
      { return *static_cast<_Link_type>(_M_node)->_M_valptr(); }
10006e20:	e0bfff17 	ldw	r2,-4(fp)
10006e24:	10800017 	ldw	r2,0(r2)
10006e28:	1009883a 	mov	r4,r2
10006e2c:	00072340 	call	10007234 <_ZNKSt13_Rb_tree_nodeI9TileGroupE9_M_valptrEv>
10006e30:	e037883a 	mov	sp,fp
10006e34:	dfc00117 	ldw	ra,4(sp)
10006e38:	df000017 	ldw	fp,0(sp)
10006e3c:	dec00204 	addi	sp,sp,8
10006e40:	f800283a 	ret

10006e44 <_ZNSt3setI9TileGroupSt4lessIS0_ESaIS0_EE5eraseERKS0_>:
       *  Note that this function only erases the element, and that if
       *  the element is itself a pointer, the pointed-to memory is not touched
       *  in any way.  Managing the pointer is the user's responsibility.
       */
      size_type
      erase(const key_type& __x)
10006e44:	defffc04 	addi	sp,sp,-16
10006e48:	dfc00315 	stw	ra,12(sp)
10006e4c:	df000215 	stw	fp,8(sp)
10006e50:	df000204 	addi	fp,sp,8
10006e54:	e13fff15 	stw	r4,-4(fp)
10006e58:	e17ffe15 	stw	r5,-8(fp)
      { return _M_t.erase(__x); }
10006e5c:	e0bfff17 	ldw	r2,-4(fp)
10006e60:	e17ffe17 	ldw	r5,-8(fp)
10006e64:	1009883a 	mov	r4,r2
10006e68:	000726c0 	call	1000726c <_ZNSt8_Rb_treeI9TileGroupS0_St9_IdentityIS0_ESt4lessIS0_ESaIS0_EE5eraseERKS0_>
10006e6c:	e037883a 	mov	sp,fp
10006e70:	dfc00117 	ldw	ra,4(sp)
10006e74:	df000017 	ldw	fp,0(sp)
10006e78:	dec00204 	addi	sp,sp,8
10006e7c:	f800283a 	ret

10006e80 <_ZNSt3setI9TileGroupSt4lessIS0_ESaIS0_EE5clearEv>:
       *  the elements, and that if the elements themselves are pointers, the
       *  pointed-to memory is not touched in any way.  Managing the pointer is
       *  the user's responsibility.
       */
      void
      clear() _GLIBCXX_NOEXCEPT
10006e80:	defffd04 	addi	sp,sp,-12
10006e84:	dfc00215 	stw	ra,8(sp)
10006e88:	df000115 	stw	fp,4(sp)
10006e8c:	df000104 	addi	fp,sp,4
10006e90:	e13fff15 	stw	r4,-4(fp)
      { _M_t.clear(); }
10006e94:	e0bfff17 	ldw	r2,-4(fp)
10006e98:	1009883a 	mov	r4,r2
10006e9c:	00073100 	call	10007310 <_ZNSt8_Rb_treeI9TileGroupS0_St9_IdentityIS0_ESt4lessIS0_ESaIS0_EE5clearEv>
10006ea0:	0001883a 	nop
10006ea4:	e037883a 	mov	sp,fp
10006ea8:	dfc00117 	ldw	ra,4(sp)
10006eac:	df000017 	ldw	fp,0(sp)
10006eb0:	dec00204 	addi	sp,sp,8
10006eb4:	f800283a 	ret

10006eb8 <_ZNSaISt13_Rb_tree_nodeI9TileGroupEEC1Ev>:
      allocator() throw() { }
10006eb8:	defffd04 	addi	sp,sp,-12
10006ebc:	dfc00215 	stw	ra,8(sp)
10006ec0:	df000115 	stw	fp,4(sp)
10006ec4:	df000104 	addi	fp,sp,4
10006ec8:	e13fff15 	stw	r4,-4(fp)
10006ecc:	e13fff17 	ldw	r4,-4(fp)
10006ed0:	00073940 	call	10007394 <_ZN9__gnu_cxx13new_allocatorISt13_Rb_tree_nodeI9TileGroupEEC1Ev>
10006ed4:	0001883a 	nop
10006ed8:	e037883a 	mov	sp,fp
10006edc:	dfc00117 	ldw	ra,4(sp)
10006ee0:	df000017 	ldw	fp,0(sp)
10006ee4:	dec00204 	addi	sp,sp,8
10006ee8:	f800283a 	ret

10006eec <_ZNSt20_Rb_tree_key_compareISt4lessI9TileGroupEEC1Ev>:
      _Rb_tree_key_compare()
10006eec:	defffe04 	addi	sp,sp,-8
10006ef0:	df000115 	stw	fp,4(sp)
10006ef4:	df000104 	addi	fp,sp,4
10006ef8:	e13fff15 	stw	r4,-4(fp)
      { }
10006efc:	0001883a 	nop
10006f00:	e037883a 	mov	sp,fp
10006f04:	df000017 	ldw	fp,0(sp)
10006f08:	dec00104 	addi	sp,sp,4
10006f0c:	f800283a 	ret

10006f10 <_ZN9__gnu_cxx13new_allocatorISt13_Rb_tree_nodeI9TileGroupEED1Ev>:
      new_allocator(const new_allocator&) _GLIBCXX_USE_NOEXCEPT { }

      template<typename _Tp1>
	new_allocator(const new_allocator<_Tp1>&) _GLIBCXX_USE_NOEXCEPT { }

      ~new_allocator() _GLIBCXX_USE_NOEXCEPT { }
10006f10:	defffe04 	addi	sp,sp,-8
10006f14:	df000115 	stw	fp,4(sp)
10006f18:	df000104 	addi	fp,sp,4
10006f1c:	e13fff15 	stw	r4,-4(fp)
10006f20:	0001883a 	nop
10006f24:	e037883a 	mov	sp,fp
10006f28:	df000017 	ldw	fp,0(sp)
10006f2c:	dec00104 	addi	sp,sp,4
10006f30:	f800283a 	ret

10006f34 <_ZNSt8_Rb_treeI9TileGroupS0_St9_IdentityIS0_ESt4lessIS0_ESaIS0_EE8_M_eraseEPSt13_Rb_tree_nodeIS0_E>:
      }

  template<typename _Key, typename _Val, typename _KeyOfValue,
	   typename _Compare, typename _Alloc>
    void
    _Rb_tree<_Key, _Val, _KeyOfValue, _Compare, _Alloc>::
10006f34:	defffb04 	addi	sp,sp,-20
10006f38:	dfc00415 	stw	ra,16(sp)
10006f3c:	df000315 	stw	fp,12(sp)
10006f40:	df000304 	addi	fp,sp,12
10006f44:	e13ffe15 	stw	r4,-8(fp)
10006f48:	e17ffd15 	stw	r5,-12(fp)
    _M_erase(_Link_type __x)
    {
      // Erase without rebalancing.
      while (__x != 0)
10006f4c:	e0bffd17 	ldw	r2,-12(fp)
10006f50:	10000e26 	beq	r2,zero,10006f8c <_ZNSt8_Rb_treeI9TileGroupS0_St9_IdentityIS0_ESt4lessIS0_ESaIS0_EE8_M_eraseEPSt13_Rb_tree_nodeIS0_E+0x58>
	{
	  _M_erase(_S_right(__x));
10006f54:	e13ffd17 	ldw	r4,-12(fp)
10006f58:	00073b80 	call	100073b8 <_ZNSt8_Rb_treeI9TileGroupS0_St9_IdentityIS0_ESt4lessIS0_ESaIS0_EE8_S_rightEPSt18_Rb_tree_node_base>
10006f5c:	100b883a 	mov	r5,r2
10006f60:	e13ffe17 	ldw	r4,-8(fp)
10006f64:	0006f340 	call	10006f34 <_ZNSt8_Rb_treeI9TileGroupS0_St9_IdentityIS0_ESt4lessIS0_ESaIS0_EE8_M_eraseEPSt13_Rb_tree_nodeIS0_E>
	  _Link_type __y = _S_left(__x);
10006f68:	e13ffd17 	ldw	r4,-12(fp)
10006f6c:	00073e00 	call	100073e0 <_ZNSt8_Rb_treeI9TileGroupS0_St9_IdentityIS0_ESt4lessIS0_ESaIS0_EE7_S_leftEPSt18_Rb_tree_node_base>
10006f70:	e0bfff15 	stw	r2,-4(fp)
	  _M_drop_node(__x);
10006f74:	e17ffd17 	ldw	r5,-12(fp)
10006f78:	e13ffe17 	ldw	r4,-8(fp)
10006f7c:	00074080 	call	10007408 <_ZNSt8_Rb_treeI9TileGroupS0_St9_IdentityIS0_ESt4lessIS0_ESaIS0_EE12_M_drop_nodeEPSt13_Rb_tree_nodeIS0_E>
	  __x = __y;
10006f80:	e0bfff17 	ldw	r2,-4(fp)
10006f84:	e0bffd15 	stw	r2,-12(fp)
      while (__x != 0)
10006f88:	003ff006 	br	10006f4c <_ZNSt8_Rb_treeI9TileGroupS0_St9_IdentityIS0_ESt4lessIS0_ESaIS0_EE8_M_eraseEPSt13_Rb_tree_nodeIS0_E+0x18>
	}
    }
10006f8c:	0001883a 	nop
10006f90:	e037883a 	mov	sp,fp
10006f94:	dfc00117 	ldw	ra,4(sp)
10006f98:	df000017 	ldw	fp,0(sp)
10006f9c:	dec00204 	addi	sp,sp,8
10006fa0:	f800283a 	ret

10006fa4 <_ZNSt8_Rb_treeI9TileGroupS0_St9_IdentityIS0_ESt4lessIS0_ESaIS0_EE8_M_beginEv>:
      _M_begin() _GLIBCXX_NOEXCEPT
10006fa4:	defffe04 	addi	sp,sp,-8
10006fa8:	df000115 	stw	fp,4(sp)
10006fac:	df000104 	addi	fp,sp,4
10006fb0:	e13fff15 	stw	r4,-4(fp)
      { return static_cast<_Link_type>(this->_M_impl._M_header._M_parent); }
10006fb4:	e0bfff17 	ldw	r2,-4(fp)
10006fb8:	10800217 	ldw	r2,8(r2)
10006fbc:	e037883a 	mov	sp,fp
10006fc0:	df000017 	ldw	fp,0(sp)
10006fc4:	dec00104 	addi	sp,sp,4
10006fc8:	f800283a 	ret

10006fcc <_ZSt7forwardIRK9TileGroupEOT_RNSt16remove_referenceIS3_E4typeE>:
   *
   *  This function is used to implement "perfect forwarding".
   */
  template<typename _Tp>
    constexpr _Tp&&
    forward(typename std::remove_reference<_Tp>::type& __t) noexcept
10006fcc:	defffe04 	addi	sp,sp,-8
10006fd0:	df000115 	stw	fp,4(sp)
10006fd4:	df000104 	addi	fp,sp,4
10006fd8:	e13fff15 	stw	r4,-4(fp)
    { return static_cast<_Tp&&>(__t); }
10006fdc:	e0bfff17 	ldw	r2,-4(fp)
10006fe0:	e037883a 	mov	sp,fp
10006fe4:	df000017 	ldw	fp,0(sp)
10006fe8:	dec00104 	addi	sp,sp,4
10006fec:	f800283a 	ret

10006ff0 <_ZNSt8_Rb_treeI9TileGroupS0_St9_IdentityIS0_ESt4lessIS0_ESaIS0_EE16_M_insert_uniqueIRKS0_EESt4pairISt17_Rb_tree_iteratorIS0_EbEOT_>:
#if __cplusplus >= 201103L
    template<typename _Arg>
#endif
    pair<typename _Rb_tree<_Key, _Val, _KeyOfValue,
			   _Compare, _Alloc>::iterator, bool>
    _Rb_tree<_Key, _Val, _KeyOfValue, _Compare, _Alloc>::
10006ff0:	deffed04 	addi	sp,sp,-76
10006ff4:	dfc01215 	stw	ra,72(sp)
10006ff8:	df001115 	stw	fp,68(sp)
10006ffc:	dc401015 	stw	r17,64(sp)
10007000:	dc000f15 	stw	r16,60(sp)
10007004:	df001104 	addi	fp,sp,68
10007008:	e13ff115 	stw	r4,-60(fp)
1000700c:	e17ff015 	stw	r5,-64(fp)
    _M_insert_unique(const _Val& __v)
#endif
    {
      typedef pair<iterator, bool> _Res;
      pair<_Base_ptr, _Base_ptr> __res
	= _M_get_insert_unique_pos(_KeyOfValue()(__v));
10007010:	e0bff5c4 	addi	r2,fp,-41
10007014:	e17ff017 	ldw	r5,-64(fp)
10007018:	1009883a 	mov	r4,r2
1000701c:	00077000 	call	10007700 <_ZNKSt9_IdentityI9TileGroupEclERKS0_>
      pair<_Base_ptr, _Base_ptr> __res
10007020:	100b883a 	mov	r5,r2
10007024:	e13ff117 	ldw	r4,-60(fp)
10007028:	000754c0 	call	1000754c <_ZNSt8_Rb_treeI9TileGroupS0_St9_IdentityIS0_ESt4lessIS0_ESaIS0_EE24_M_get_insert_unique_posERKS0_>
1000702c:	1009883a 	mov	r4,r2
10007030:	180b883a 	mov	r5,r3
10007034:	e13ff315 	stw	r4,-52(fp)
10007038:	e17ff415 	stw	r5,-48(fp)

      if (__res.second)
1000703c:	e0bff417 	ldw	r2,-48(fp)
10007040:	10001d26 	beq	r2,zero,100070b8 <_ZNSt8_Rb_treeI9TileGroupS0_St9_IdentityIS0_ESt4lessIS0_ESaIS0_EE16_M_insert_uniqueIRKS0_EESt4pairISt17_Rb_tree_iteratorIS0_EbEOT_+0xc8>
	{
	  _Alloc_node __an(*this);
10007044:	e0bff204 	addi	r2,fp,-56
10007048:	e17ff117 	ldw	r5,-60(fp)
1000704c:	1009883a 	mov	r4,r2
10007050:	00077280 	call	10007728 <_ZNSt8_Rb_treeI9TileGroupS0_St9_IdentityIS0_ESt4lessIS0_ESaIS0_EE11_Alloc_nodeC1ERS6_>
	  return _Res(_M_insert_(__res.first, __res.second,
10007054:	e43ff317 	ldw	r16,-52(fp)
10007058:	e47ff417 	ldw	r17,-48(fp)
1000705c:	e13ff017 	ldw	r4,-64(fp)
10007060:	0006fcc0 	call	10006fcc <_ZSt7forwardIRK9TileGroupEOT_RNSt16remove_referenceIS3_E4typeE>
10007064:	1007883a 	mov	r3,r2
10007068:	e0bff204 	addi	r2,fp,-56
1000706c:	d8800015 	stw	r2,0(sp)
10007070:	180f883a 	mov	r7,r3
10007074:	880d883a 	mov	r6,r17
10007078:	800b883a 	mov	r5,r16
1000707c:	e13ff117 	ldw	r4,-60(fp)
10007080:	000775c0 	call	1000775c <_ZNSt8_Rb_treeI9TileGroupS0_St9_IdentityIS0_ESt4lessIS0_ESaIS0_EE10_M_insert_IRKS0_NS6_11_Alloc_nodeEEESt17_Rb_tree_iteratorIS0_EPSt18_Rb_tree_node_baseSE_OT_RT0_>
10007084:	e0bff815 	stw	r2,-32(fp)
				 _GLIBCXX_FORWARD(_Arg, __v), __an),
		      true);
10007088:	00800044 	movi	r2,1
1000708c:	e0bff9c5 	stb	r2,-25(fp)
10007090:	e13ff9c4 	addi	r4,fp,-25
10007094:	e0fff804 	addi	r3,fp,-32
10007098:	e0bff604 	addi	r2,fp,-40
1000709c:	200d883a 	mov	r6,r4
100070a0:	180b883a 	mov	r5,r3
100070a4:	1009883a 	mov	r4,r2
100070a8:	00078880 	call	10007888 <_ZNSt4pairISt17_Rb_tree_iteratorI9TileGroupEbEC1IS2_bLb1EEEOT_OT0_>
100070ac:	e0bff617 	ldw	r2,-40(fp)
100070b0:	e0fff717 	ldw	r3,-36(fp)
100070b4:	00000f06 	br	100070f4 <_ZNSt8_Rb_treeI9TileGroupS0_St9_IdentityIS0_ESt4lessIS0_ESaIS0_EE16_M_insert_uniqueIRKS0_EESt4pairISt17_Rb_tree_iteratorIS0_EbEOT_+0x104>
	}

      return _Res(iterator(__res.first), false);
100070b8:	e0fff317 	ldw	r3,-52(fp)
100070bc:	e0bffc04 	addi	r2,fp,-16
100070c0:	180b883a 	mov	r5,r3
100070c4:	1009883a 	mov	r4,r2
100070c8:	00078e80 	call	100078e8 <_ZNSt17_Rb_tree_iteratorI9TileGroupEC1EPSt18_Rb_tree_node_base>
100070cc:	e03ffdc5 	stb	zero,-9(fp)
100070d0:	e13ffdc4 	addi	r4,fp,-9
100070d4:	e0fffc04 	addi	r3,fp,-16
100070d8:	e0bffa04 	addi	r2,fp,-24
100070dc:	200d883a 	mov	r6,r4
100070e0:	180b883a 	mov	r5,r3
100070e4:	1009883a 	mov	r4,r2
100070e8:	00078880 	call	10007888 <_ZNSt4pairISt17_Rb_tree_iteratorI9TileGroupEbEC1IS2_bLb1EEEOT_OT0_>
100070ec:	e0bffa17 	ldw	r2,-24(fp)
100070f0:	e0fffb17 	ldw	r3,-20(fp)
100070f4:	1009883a 	mov	r4,r2
100070f8:	180b883a 	mov	r5,r3
    }
100070fc:	2005883a 	mov	r2,r4
10007100:	2807883a 	mov	r3,r5
10007104:	e6fffe04 	addi	sp,fp,-8
10007108:	dfc00317 	ldw	ra,12(sp)
1000710c:	df000217 	ldw	fp,8(sp)
10007110:	dc400117 	ldw	r17,4(sp)
10007114:	dc000017 	ldw	r16,0(sp)
10007118:	dec00404 	addi	sp,sp,16
1000711c:	f800283a 	ret

10007120 <_ZSt7forwardIRSt17_Rb_tree_iteratorI9TileGroupEEOT_RNSt16remove_referenceIS4_E4typeE>:
    forward(typename std::remove_reference<_Tp>::type& __t) noexcept
10007120:	defffe04 	addi	sp,sp,-8
10007124:	df000115 	stw	fp,4(sp)
10007128:	df000104 	addi	fp,sp,4
1000712c:	e13fff15 	stw	r4,-4(fp)
    { return static_cast<_Tp&&>(__t); }
10007130:	e0bfff17 	ldw	r2,-4(fp)
10007134:	e037883a 	mov	sp,fp
10007138:	df000017 	ldw	fp,0(sp)
1000713c:	dec00104 	addi	sp,sp,4
10007140:	f800283a 	ret

10007144 <_ZNSt4pairISt23_Rb_tree_const_iteratorI9TileGroupEbEC1IRSt17_Rb_tree_iteratorIS1_ERbLb1EEEOT_OT0_>:
	       enable_if<_PCCP::template
			   _MoveConstructiblePair<_U1, _U2>()
			  && _PCCP::template
			   _ImplicitlyMoveConvertiblePair<_U1, _U2>(),
                         bool>::type=true>
	constexpr pair(_U1&& __x, _U2&& __y)
10007144:	defffa04 	addi	sp,sp,-24
10007148:	dfc00515 	stw	ra,20(sp)
1000714c:	df000415 	stw	fp,16(sp)
10007150:	dc000315 	stw	r16,12(sp)
10007154:	df000404 	addi	fp,sp,16
10007158:	e13ffe15 	stw	r4,-8(fp)
1000715c:	e17ffd15 	stw	r5,-12(fp)
10007160:	e1bffc15 	stw	r6,-16(fp)
	: first(std::forward<_U1>(__x)), second(std::forward<_U2>(__y)) { }
10007164:	e43ffe17 	ldw	r16,-8(fp)
10007168:	e13ffd17 	ldw	r4,-12(fp)
1000716c:	00071200 	call	10007120 <_ZSt7forwardIRSt17_Rb_tree_iteratorI9TileGroupEEOT_RNSt16remove_referenceIS4_E4typeE>
10007170:	100b883a 	mov	r5,r2
10007174:	8009883a 	mov	r4,r16
10007178:	00079400 	call	10007940 <_ZNSt23_Rb_tree_const_iteratorI9TileGroupEC1ERKSt17_Rb_tree_iteratorIS0_E>
1000717c:	e13ffc17 	ldw	r4,-16(fp)
10007180:	000791c0 	call	1000791c <_ZSt7forwardIRbEOT_RNSt16remove_referenceIS1_E4typeE>
10007184:	10c00003 	ldbu	r3,0(r2)
10007188:	e0bffe17 	ldw	r2,-8(fp)
1000718c:	10c00105 	stb	r3,4(r2)
10007190:	0001883a 	nop
10007194:	e6ffff04 	addi	sp,fp,-4
10007198:	dfc00217 	ldw	ra,8(sp)
1000719c:	df000117 	ldw	fp,4(sp)
100071a0:	dc000017 	ldw	r16,0(sp)
100071a4:	dec00304 	addi	sp,sp,12
100071a8:	f800283a 	ret

100071ac <_ZNKSt8_Rb_treeI9TileGroupS0_St9_IdentityIS0_ESt4lessIS0_ESaIS0_EE5beginEv>:
      begin() const _GLIBCXX_NOEXCEPT
100071ac:	defffc04 	addi	sp,sp,-16
100071b0:	dfc00315 	stw	ra,12(sp)
100071b4:	df000215 	stw	fp,8(sp)
100071b8:	df000204 	addi	fp,sp,8
100071bc:	e13ffe15 	stw	r4,-8(fp)
      { return const_iterator(this->_M_impl._M_header._M_left); }
100071c0:	e0bffe17 	ldw	r2,-8(fp)
100071c4:	10c00317 	ldw	r3,12(r2)
100071c8:	e0bfff04 	addi	r2,fp,-4
100071cc:	180b883a 	mov	r5,r3
100071d0:	1009883a 	mov	r4,r2
100071d4:	00079780 	call	10007978 <_ZNSt23_Rb_tree_const_iteratorI9TileGroupEC1EPKSt18_Rb_tree_node_base>
100071d8:	e0bfff17 	ldw	r2,-4(fp)
100071dc:	e037883a 	mov	sp,fp
100071e0:	dfc00117 	ldw	ra,4(sp)
100071e4:	df000017 	ldw	fp,0(sp)
100071e8:	dec00204 	addi	sp,sp,8
100071ec:	f800283a 	ret

100071f0 <_ZNKSt8_Rb_treeI9TileGroupS0_St9_IdentityIS0_ESt4lessIS0_ESaIS0_EE3endEv>:
      end() const _GLIBCXX_NOEXCEPT
100071f0:	defffc04 	addi	sp,sp,-16
100071f4:	dfc00315 	stw	ra,12(sp)
100071f8:	df000215 	stw	fp,8(sp)
100071fc:	df000204 	addi	fp,sp,8
10007200:	e13ffe15 	stw	r4,-8(fp)
      { return const_iterator(&this->_M_impl._M_header); }
10007204:	e0bffe17 	ldw	r2,-8(fp)
10007208:	10c00104 	addi	r3,r2,4
1000720c:	e0bfff04 	addi	r2,fp,-4
10007210:	180b883a 	mov	r5,r3
10007214:	1009883a 	mov	r4,r2
10007218:	00079780 	call	10007978 <_ZNSt23_Rb_tree_const_iteratorI9TileGroupEC1EPKSt18_Rb_tree_node_base>
1000721c:	e0bfff17 	ldw	r2,-4(fp)
10007220:	e037883a 	mov	sp,fp
10007224:	dfc00117 	ldw	ra,4(sp)
10007228:	df000017 	ldw	fp,0(sp)
1000722c:	dec00204 	addi	sp,sp,8
10007230:	f800283a 	ret

10007234 <_ZNKSt13_Rb_tree_nodeI9TileGroupE9_M_valptrEv>:
      _M_valptr() const
10007234:	defffd04 	addi	sp,sp,-12
10007238:	dfc00215 	stw	ra,8(sp)
1000723c:	df000115 	stw	fp,4(sp)
10007240:	df000104 	addi	fp,sp,4
10007244:	e13fff15 	stw	r4,-4(fp)
      { return _M_storage._M_ptr(); }
10007248:	e0bfff17 	ldw	r2,-4(fp)
1000724c:	10800404 	addi	r2,r2,16
10007250:	1009883a 	mov	r4,r2
10007254:	00079ac0 	call	100079ac <_ZNK9__gnu_cxx16__aligned_membufI9TileGroupE6_M_ptrEv>
10007258:	e037883a 	mov	sp,fp
1000725c:	dfc00117 	ldw	ra,4(sp)
10007260:	df000017 	ldw	fp,0(sp)
10007264:	dec00204 	addi	sp,sp,8
10007268:	f800283a 	ret

1000726c <_ZNSt8_Rb_treeI9TileGroupS0_St9_IdentityIS0_ESt4lessIS0_ESaIS0_EE5eraseERKS0_>:
    }

  template<typename _Key, typename _Val, typename _KeyOfValue,
	   typename _Compare, typename _Alloc>
    typename _Rb_tree<_Key, _Val, _KeyOfValue, _Compare, _Alloc>::size_type
    _Rb_tree<_Key, _Val, _KeyOfValue, _Compare, _Alloc>::
1000726c:	defff704 	addi	sp,sp,-36
10007270:	dfc00815 	stw	ra,32(sp)
10007274:	df000715 	stw	fp,28(sp)
10007278:	df000704 	addi	fp,sp,28
1000727c:	e13ffa15 	stw	r4,-24(fp)
10007280:	e17ff915 	stw	r5,-28(fp)
    erase(const _Key& __x)
    {
      pair<iterator, iterator> __p = equal_range(__x);
10007284:	e17ff917 	ldw	r5,-28(fp)
10007288:	e13ffa17 	ldw	r4,-24(fp)
1000728c:	00079dc0 	call	100079dc <_ZNSt8_Rb_treeI9TileGroupS0_St9_IdentityIS0_ESt4lessIS0_ESaIS0_EE11equal_rangeERKS0_>
10007290:	1009883a 	mov	r4,r2
10007294:	180b883a 	mov	r5,r3
10007298:	e13ffb15 	stw	r4,-20(fp)
1000729c:	e17ffc15 	stw	r5,-16(fp)
      const size_type __old_size = size();
100072a0:	e13ffa17 	ldw	r4,-24(fp)
100072a4:	0007b7c0 	call	10007b7c <_ZNKSt8_Rb_treeI9TileGroupS0_St9_IdentityIS0_ESt4lessIS0_ESaIS0_EE4sizeEv>
100072a8:	e0bfff15 	stw	r2,-4(fp)
      _M_erase_aux(__p.first, __p.second);
100072ac:	e0fffb04 	addi	r3,fp,-20
100072b0:	e0bffd04 	addi	r2,fp,-12
100072b4:	180b883a 	mov	r5,r3
100072b8:	1009883a 	mov	r4,r2
100072bc:	00079400 	call	10007940 <_ZNSt23_Rb_tree_const_iteratorI9TileGroupEC1ERKSt17_Rb_tree_iteratorIS0_E>
100072c0:	e0bffb04 	addi	r2,fp,-20
100072c4:	10c00104 	addi	r3,r2,4
100072c8:	e0bffe04 	addi	r2,fp,-8
100072cc:	180b883a 	mov	r5,r3
100072d0:	1009883a 	mov	r4,r2
100072d4:	00079400 	call	10007940 <_ZNSt23_Rb_tree_const_iteratorI9TileGroupEC1ERKSt17_Rb_tree_iteratorIS0_E>
100072d8:	e1bffe17 	ldw	r6,-8(fp)
100072dc:	e17ffd17 	ldw	r5,-12(fp)
100072e0:	e13ffa17 	ldw	r4,-24(fp)
100072e4:	0007ba40 	call	10007ba4 <_ZNSt8_Rb_treeI9TileGroupS0_St9_IdentityIS0_ESt4lessIS0_ESaIS0_EE12_M_erase_auxESt23_Rb_tree_const_iteratorIS0_ES8_>
      return __old_size - size();
100072e8:	e13ffa17 	ldw	r4,-24(fp)
100072ec:	0007b7c0 	call	10007b7c <_ZNKSt8_Rb_treeI9TileGroupS0_St9_IdentityIS0_ESt4lessIS0_ESaIS0_EE4sizeEv>
100072f0:	1007883a 	mov	r3,r2
100072f4:	e0bfff17 	ldw	r2,-4(fp)
100072f8:	10c5c83a 	sub	r2,r2,r3
    }
100072fc:	e037883a 	mov	sp,fp
10007300:	dfc00117 	ldw	ra,4(sp)
10007304:	df000017 	ldw	fp,0(sp)
10007308:	dec00204 	addi	sp,sp,8
1000730c:	f800283a 	ret

10007310 <_ZNSt8_Rb_treeI9TileGroupS0_St9_IdentityIS0_ESt4lessIS0_ESaIS0_EE5clearEv>:
      clear() _GLIBCXX_NOEXCEPT
10007310:	defff004 	addi	sp,sp,-64
10007314:	dfc00f15 	stw	ra,60(sp)
10007318:	df000e15 	stw	fp,56(sp)
1000731c:	df000e04 	addi	fp,sp,56
10007320:	e13fff15 	stw	r4,-4(fp)
10007324:	00840074 	movhi	r2,4097
10007328:	10a4e004 	addi	r2,r2,-27776
1000732c:	e0bff815 	stw	r2,-32(fp)
10007330:	008400b4 	movhi	r2,4098
10007334:	10934004 	addi	r2,r2,19712
10007338:	e0bff915 	stw	r2,-28(fp)
1000733c:	e0bff204 	addi	r2,fp,-56
10007340:	1009883a 	mov	r4,r2
10007344:	0014c000 	call	10014c00 <_Unwind_SjLj_Register>
	_M_erase(_M_begin());
10007348:	e13fff17 	ldw	r4,-4(fp)
1000734c:	0006fa40 	call	10006fa4 <_ZNSt8_Rb_treeI9TileGroupS0_St9_IdentityIS0_ESt4lessIS0_ESaIS0_EE8_M_beginEv>
10007350:	e03ff315 	stw	zero,-52(fp)
10007354:	100b883a 	mov	r5,r2
10007358:	e13fff17 	ldw	r4,-4(fp)
1000735c:	0006f340 	call	10006f34 <_ZNSt8_Rb_treeI9TileGroupS0_St9_IdentityIS0_ESt4lessIS0_ESaIS0_EE8_M_eraseEPSt13_Rb_tree_nodeIS0_E>
	_M_impl._M_reset();
10007360:	e0bfff17 	ldw	r2,-4(fp)
10007364:	10800104 	addi	r2,r2,4
10007368:	1009883a 	mov	r4,r2
1000736c:	00069d80 	call	100069d8 <_ZNSt15_Rb_tree_header8_M_resetEv>
      }
10007370:	0001883a 	nop
10007374:	e0bff204 	addi	r2,fp,-56
10007378:	1009883a 	mov	r4,r2
1000737c:	0014c180 	call	10014c18 <_Unwind_SjLj_Unregister>
10007380:	e037883a 	mov	sp,fp
10007384:	dfc00117 	ldw	ra,4(sp)
10007388:	df000017 	ldw	fp,0(sp)
1000738c:	dec00204 	addi	sp,sp,8
10007390:	f800283a 	ret

10007394 <_ZN9__gnu_cxx13new_allocatorISt13_Rb_tree_nodeI9TileGroupEEC1Ev>:
      new_allocator() _GLIBCXX_USE_NOEXCEPT { }
10007394:	defffe04 	addi	sp,sp,-8
10007398:	df000115 	stw	fp,4(sp)
1000739c:	df000104 	addi	fp,sp,4
100073a0:	e13fff15 	stw	r4,-4(fp)
100073a4:	0001883a 	nop
100073a8:	e037883a 	mov	sp,fp
100073ac:	df000017 	ldw	fp,0(sp)
100073b0:	dec00104 	addi	sp,sp,4
100073b4:	f800283a 	ret

100073b8 <_ZNSt8_Rb_treeI9TileGroupS0_St9_IdentityIS0_ESt4lessIS0_ESaIS0_EE8_S_rightEPSt18_Rb_tree_node_base>:
      _S_right(_Base_ptr __x) _GLIBCXX_NOEXCEPT
100073b8:	defffe04 	addi	sp,sp,-8
100073bc:	df000115 	stw	fp,4(sp)
100073c0:	df000104 	addi	fp,sp,4
100073c4:	e13fff15 	stw	r4,-4(fp)
      { return static_cast<_Link_type>(__x->_M_right); }
100073c8:	e0bfff17 	ldw	r2,-4(fp)
100073cc:	10800317 	ldw	r2,12(r2)
100073d0:	e037883a 	mov	sp,fp
100073d4:	df000017 	ldw	fp,0(sp)
100073d8:	dec00104 	addi	sp,sp,4
100073dc:	f800283a 	ret

100073e0 <_ZNSt8_Rb_treeI9TileGroupS0_St9_IdentityIS0_ESt4lessIS0_ESaIS0_EE7_S_leftEPSt18_Rb_tree_node_base>:
      _S_left(_Base_ptr __x) _GLIBCXX_NOEXCEPT
100073e0:	defffe04 	addi	sp,sp,-8
100073e4:	df000115 	stw	fp,4(sp)
100073e8:	df000104 	addi	fp,sp,4
100073ec:	e13fff15 	stw	r4,-4(fp)
      { return static_cast<_Link_type>(__x->_M_left); }
100073f0:	e0bfff17 	ldw	r2,-4(fp)
100073f4:	10800217 	ldw	r2,8(r2)
100073f8:	e037883a 	mov	sp,fp
100073fc:	df000017 	ldw	fp,0(sp)
10007400:	dec00104 	addi	sp,sp,4
10007404:	f800283a 	ret

10007408 <_ZNSt8_Rb_treeI9TileGroupS0_St9_IdentityIS0_ESt4lessIS0_ESaIS0_EE12_M_drop_nodeEPSt13_Rb_tree_nodeIS0_E>:
      _M_drop_node(_Link_type __p) _GLIBCXX_NOEXCEPT
10007408:	defffc04 	addi	sp,sp,-16
1000740c:	dfc00315 	stw	ra,12(sp)
10007410:	df000215 	stw	fp,8(sp)
10007414:	df000204 	addi	fp,sp,8
10007418:	e13fff15 	stw	r4,-4(fp)
1000741c:	e17ffe15 	stw	r5,-8(fp)
	_M_destroy_node(__p);
10007420:	e17ffe17 	ldw	r5,-8(fp)
10007424:	e13fff17 	ldw	r4,-4(fp)
10007428:	0007cac0 	call	10007cac <_ZNSt8_Rb_treeI9TileGroupS0_St9_IdentityIS0_ESt4lessIS0_ESaIS0_EE15_M_destroy_nodeEPSt13_Rb_tree_nodeIS0_E>
	_M_put_node(__p);
1000742c:	e17ffe17 	ldw	r5,-8(fp)
10007430:	e13fff17 	ldw	r4,-4(fp)
10007434:	0007d380 	call	10007d38 <_ZNSt8_Rb_treeI9TileGroupS0_St9_IdentityIS0_ESt4lessIS0_ESaIS0_EE11_M_put_nodeEPSt13_Rb_tree_nodeIS0_E>
      }
10007438:	0001883a 	nop
1000743c:	e037883a 	mov	sp,fp
10007440:	dfc00117 	ldw	ra,4(sp)
10007444:	df000017 	ldw	fp,0(sp)
10007448:	dec00204 	addi	sp,sp,8
1000744c:	f800283a 	ret

10007450 <_ZNSt4pairIPSt18_Rb_tree_node_baseS1_EC1IRPSt13_Rb_tree_nodeI9TileGroupERS1_Lb1EEEOT_OT0_>:
	constexpr pair(_U1&& __x, _U2&& __y)
10007450:	defffb04 	addi	sp,sp,-20
10007454:	dfc00415 	stw	ra,16(sp)
10007458:	df000315 	stw	fp,12(sp)
1000745c:	df000304 	addi	fp,sp,12
10007460:	e13fff15 	stw	r4,-4(fp)
10007464:	e17ffe15 	stw	r5,-8(fp)
10007468:	e1bffd15 	stw	r6,-12(fp)
	: first(std::forward<_U1>(__x)), second(std::forward<_U2>(__y)) { }
1000746c:	e13ffe17 	ldw	r4,-8(fp)
10007470:	00074ac0 	call	100074ac <_ZSt7forwardIRPSt13_Rb_tree_nodeI9TileGroupEEOT_RNSt16remove_referenceIS5_E4typeE>
10007474:	10c00017 	ldw	r3,0(r2)
10007478:	e0bfff17 	ldw	r2,-4(fp)
1000747c:	10c00015 	stw	r3,0(r2)
10007480:	e13ffd17 	ldw	r4,-12(fp)
10007484:	00075280 	call	10007528 <_ZSt7forwardIRPSt18_Rb_tree_node_baseEOT_RNSt16remove_referenceIS3_E4typeE>
10007488:	10c00017 	ldw	r3,0(r2)
1000748c:	e0bfff17 	ldw	r2,-4(fp)
10007490:	10c00115 	stw	r3,4(r2)
10007494:	0001883a 	nop
10007498:	e037883a 	mov	sp,fp
1000749c:	dfc00117 	ldw	ra,4(sp)
100074a0:	df000017 	ldw	fp,0(sp)
100074a4:	dec00204 	addi	sp,sp,8
100074a8:	f800283a 	ret

100074ac <_ZSt7forwardIRPSt13_Rb_tree_nodeI9TileGroupEEOT_RNSt16remove_referenceIS5_E4typeE>:
    forward(typename std::remove_reference<_Tp>::type& __t) noexcept
100074ac:	defffe04 	addi	sp,sp,-8
100074b0:	df000115 	stw	fp,4(sp)
100074b4:	df000104 	addi	fp,sp,4
100074b8:	e13fff15 	stw	r4,-4(fp)
    { return static_cast<_Tp&&>(__t); }
100074bc:	e0bfff17 	ldw	r2,-4(fp)
100074c0:	e037883a 	mov	sp,fp
100074c4:	df000017 	ldw	fp,0(sp)
100074c8:	dec00104 	addi	sp,sp,4
100074cc:	f800283a 	ret

100074d0 <_ZNSt4pairIPSt18_Rb_tree_node_baseS1_EC1IRS1_Lb1EEEOT_RKS1_>:
       constexpr pair(_U1&& __x, const _T2& __y)
100074d0:	defffb04 	addi	sp,sp,-20
100074d4:	dfc00415 	stw	ra,16(sp)
100074d8:	df000315 	stw	fp,12(sp)
100074dc:	df000304 	addi	fp,sp,12
100074e0:	e13fff15 	stw	r4,-4(fp)
100074e4:	e17ffe15 	stw	r5,-8(fp)
100074e8:	e1bffd15 	stw	r6,-12(fp)
       : first(std::forward<_U1>(__x)), second(__y) { }
100074ec:	e13ffe17 	ldw	r4,-8(fp)
100074f0:	00075280 	call	10007528 <_ZSt7forwardIRPSt18_Rb_tree_node_baseEOT_RNSt16remove_referenceIS3_E4typeE>
100074f4:	10c00017 	ldw	r3,0(r2)
100074f8:	e0bfff17 	ldw	r2,-4(fp)
100074fc:	10c00015 	stw	r3,0(r2)
10007500:	e0bffd17 	ldw	r2,-12(fp)
10007504:	10c00017 	ldw	r3,0(r2)
10007508:	e0bfff17 	ldw	r2,-4(fp)
1000750c:	10c00115 	stw	r3,4(r2)
10007510:	0001883a 	nop
10007514:	e037883a 	mov	sp,fp
10007518:	dfc00117 	ldw	ra,4(sp)
1000751c:	df000017 	ldw	fp,0(sp)
10007520:	dec00204 	addi	sp,sp,8
10007524:	f800283a 	ret

10007528 <_ZSt7forwardIRPSt18_Rb_tree_node_baseEOT_RNSt16remove_referenceIS3_E4typeE>:
    forward(typename std::remove_reference<_Tp>::type& __t) noexcept
10007528:	defffe04 	addi	sp,sp,-8
1000752c:	df000115 	stw	fp,4(sp)
10007530:	df000104 	addi	fp,sp,4
10007534:	e13fff15 	stw	r4,-4(fp)
    { return static_cast<_Tp&&>(__t); }
10007538:	e0bfff17 	ldw	r2,-4(fp)
1000753c:	e037883a 	mov	sp,fp
10007540:	df000017 	ldw	fp,0(sp)
10007544:	dec00104 	addi	sp,sp,4
10007548:	f800283a 	ret

1000754c <_ZNSt8_Rb_treeI9TileGroupS0_St9_IdentityIS0_ESt4lessIS0_ESaIS0_EE24_M_get_insert_unique_posERKS0_>:
    _Rb_tree<_Key, _Val, _KeyOfValue, _Compare, _Alloc>::
1000754c:	deffef04 	addi	sp,sp,-68
10007550:	dfc01015 	stw	ra,64(sp)
10007554:	df000f15 	stw	fp,60(sp)
10007558:	dc000e15 	stw	r16,56(sp)
1000755c:	df000f04 	addi	fp,sp,60
10007560:	e13ff215 	stw	r4,-56(fp)
10007564:	e17ff115 	stw	r5,-60(fp)
      _Link_type __x = _M_begin();
10007568:	e13ff217 	ldw	r4,-56(fp)
1000756c:	0006fa40 	call	10006fa4 <_ZNSt8_Rb_treeI9TileGroupS0_St9_IdentityIS0_ESt4lessIS0_ESaIS0_EE8_M_beginEv>
10007570:	e0bff515 	stw	r2,-44(fp)
      _Base_ptr __y = _M_end();
10007574:	e13ff217 	ldw	r4,-56(fp)
10007578:	0007db40 	call	10007db4 <_ZNSt8_Rb_treeI9TileGroupS0_St9_IdentityIS0_ESt4lessIS0_ESaIS0_EE6_M_endEv>
1000757c:	e0bff415 	stw	r2,-48(fp)
      bool __comp = true;
10007580:	00800044 	movi	r2,1
10007584:	e0bffec5 	stb	r2,-5(fp)
      while (__x != 0)
10007588:	e0bff517 	ldw	r2,-44(fp)
1000758c:	10001626 	beq	r2,zero,100075e8 <_ZNSt8_Rb_treeI9TileGroupS0_St9_IdentityIS0_ESt4lessIS0_ESaIS0_EE24_M_get_insert_unique_posERKS0_+0x9c>
	  __y = __x;
10007590:	e0bff517 	ldw	r2,-44(fp)
10007594:	e0bff415 	stw	r2,-48(fp)
	  __comp = _M_impl._M_key_compare(__k, _S_key(__x));
10007598:	e43ff217 	ldw	r16,-56(fp)
1000759c:	e0bff517 	ldw	r2,-44(fp)
100075a0:	1009883a 	mov	r4,r2
100075a4:	0007ddc0 	call	10007ddc <_ZNSt8_Rb_treeI9TileGroupS0_St9_IdentityIS0_ESt4lessIS0_ESaIS0_EE6_S_keyEPKSt13_Rb_tree_nodeIS0_E>
100075a8:	100d883a 	mov	r6,r2
100075ac:	e17ff117 	ldw	r5,-60(fp)
100075b0:	8009883a 	mov	r4,r16
100075b4:	0007e240 	call	10007e24 <_ZNKSt4lessI9TileGroupEclERKS0_S3_>
100075b8:	e0bffec5 	stb	r2,-5(fp)
	  __x = __comp ? _S_left(__x) : _S_right(__x);
100075bc:	e0bffec3 	ldbu	r2,-5(fp)
100075c0:	10000426 	beq	r2,zero,100075d4 <_ZNSt8_Rb_treeI9TileGroupS0_St9_IdentityIS0_ESt4lessIS0_ESaIS0_EE24_M_get_insert_unique_posERKS0_+0x88>
100075c4:	e0bff517 	ldw	r2,-44(fp)
100075c8:	1009883a 	mov	r4,r2
100075cc:	00073e00 	call	100073e0 <_ZNSt8_Rb_treeI9TileGroupS0_St9_IdentityIS0_ESt4lessIS0_ESaIS0_EE7_S_leftEPSt18_Rb_tree_node_base>
100075d0:	00000306 	br	100075e0 <_ZNSt8_Rb_treeI9TileGroupS0_St9_IdentityIS0_ESt4lessIS0_ESaIS0_EE24_M_get_insert_unique_posERKS0_+0x94>
100075d4:	e0bff517 	ldw	r2,-44(fp)
100075d8:	1009883a 	mov	r4,r2
100075dc:	00073b80 	call	100073b8 <_ZNSt8_Rb_treeI9TileGroupS0_St9_IdentityIS0_ESt4lessIS0_ESaIS0_EE8_S_rightEPSt18_Rb_tree_node_base>
100075e0:	e0bff515 	stw	r2,-44(fp)
      while (__x != 0)
100075e4:	003fe806 	br	10007588 <_ZNSt8_Rb_treeI9TileGroupS0_St9_IdentityIS0_ESt4lessIS0_ESaIS0_EE24_M_get_insert_unique_posERKS0_+0x3c>
      iterator __j = iterator(__y);
100075e8:	e0fff417 	ldw	r3,-48(fp)
100075ec:	e0bff304 	addi	r2,fp,-52
100075f0:	180b883a 	mov	r5,r3
100075f4:	1009883a 	mov	r4,r2
100075f8:	00078e80 	call	100078e8 <_ZNSt17_Rb_tree_iteratorI9TileGroupEC1EPSt18_Rb_tree_node_base>
      if (__comp)
100075fc:	e0bffec3 	ldbu	r2,-5(fp)
10007600:	10001726 	beq	r2,zero,10007660 <_ZNSt8_Rb_treeI9TileGroupS0_St9_IdentityIS0_ESt4lessIS0_ESaIS0_EE24_M_get_insert_unique_posERKS0_+0x114>
	  if (__j == begin())
10007604:	e13ff217 	ldw	r4,-56(fp)
10007608:	0007e600 	call	10007e60 <_ZNSt8_Rb_treeI9TileGroupS0_St9_IdentityIS0_ESt4lessIS0_ESaIS0_EE5beginEv>
1000760c:	e0bff615 	stw	r2,-40(fp)
10007610:	e0fff604 	addi	r3,fp,-40
10007614:	e0bff304 	addi	r2,fp,-52
10007618:	180b883a 	mov	r5,r3
1000761c:	1009883a 	mov	r4,r2
10007620:	0007ea40 	call	10007ea4 <_ZNKSt17_Rb_tree_iteratorI9TileGroupEeqERKS1_>
10007624:	10803fcc 	andi	r2,r2,255
10007628:	10000a26 	beq	r2,zero,10007654 <_ZNSt8_Rb_treeI9TileGroupS0_St9_IdentityIS0_ESt4lessIS0_ESaIS0_EE24_M_get_insert_unique_posERKS0_+0x108>
	    return _Res(__x, __y);
1000762c:	e13ff404 	addi	r4,fp,-48
10007630:	e0fff504 	addi	r3,fp,-44
10007634:	e0bff704 	addi	r2,fp,-36
10007638:	200d883a 	mov	r6,r4
1000763c:	180b883a 	mov	r5,r3
10007640:	1009883a 	mov	r4,r2
10007644:	00074500 	call	10007450 <_ZNSt4pairIPSt18_Rb_tree_node_baseS1_EC1IRPSt13_Rb_tree_nodeI9TileGroupERS1_Lb1EEEOT_OT0_>
10007648:	e0bff717 	ldw	r2,-36(fp)
1000764c:	e0fff817 	ldw	r3,-32(fp)
10007650:	00002106 	br	100076d8 <_ZNSt8_Rb_treeI9TileGroupS0_St9_IdentityIS0_ESt4lessIS0_ESaIS0_EE24_M_get_insert_unique_posERKS0_+0x18c>
	    --__j;
10007654:	e0bff304 	addi	r2,fp,-52
10007658:	1009883a 	mov	r4,r2
1000765c:	0007edc0 	call	10007edc <_ZNSt17_Rb_tree_iteratorI9TileGroupEmmEv>
      if (_M_impl._M_key_compare(_S_key(__j._M_node), __k))
10007660:	e43ff217 	ldw	r16,-56(fp)
10007664:	e0bff317 	ldw	r2,-52(fp)
10007668:	1009883a 	mov	r4,r2
1000766c:	0007f240 	call	10007f24 <_ZNSt8_Rb_treeI9TileGroupS0_St9_IdentityIS0_ESt4lessIS0_ESaIS0_EE6_S_keyEPKSt18_Rb_tree_node_base>
10007670:	e1bff117 	ldw	r6,-60(fp)
10007674:	100b883a 	mov	r5,r2
10007678:	8009883a 	mov	r4,r16
1000767c:	0007e240 	call	10007e24 <_ZNKSt4lessI9TileGroupEclERKS0_S3_>
10007680:	10803fcc 	andi	r2,r2,255
10007684:	10000a26 	beq	r2,zero,100076b0 <_ZNSt8_Rb_treeI9TileGroupS0_St9_IdentityIS0_ESt4lessIS0_ESaIS0_EE24_M_get_insert_unique_posERKS0_+0x164>
	return _Res(__x, __y);
10007688:	e13ff404 	addi	r4,fp,-48
1000768c:	e0fff504 	addi	r3,fp,-44
10007690:	e0bff904 	addi	r2,fp,-28
10007694:	200d883a 	mov	r6,r4
10007698:	180b883a 	mov	r5,r3
1000769c:	1009883a 	mov	r4,r2
100076a0:	00074500 	call	10007450 <_ZNSt4pairIPSt18_Rb_tree_node_baseS1_EC1IRPSt13_Rb_tree_nodeI9TileGroupERS1_Lb1EEEOT_OT0_>
100076a4:	e0bff917 	ldw	r2,-28(fp)
100076a8:	e0fffa17 	ldw	r3,-24(fp)
100076ac:	00000a06 	br	100076d8 <_ZNSt8_Rb_treeI9TileGroupS0_St9_IdentityIS0_ESt4lessIS0_ESaIS0_EE24_M_get_insert_unique_posERKS0_+0x18c>
      return _Res(__j._M_node, 0);
100076b0:	e03ffd15 	stw	zero,-12(fp)
100076b4:	e13ffd04 	addi	r4,fp,-12
100076b8:	e0fff304 	addi	r3,fp,-52
100076bc:	e0bffb04 	addi	r2,fp,-20
100076c0:	200d883a 	mov	r6,r4
100076c4:	180b883a 	mov	r5,r3
100076c8:	1009883a 	mov	r4,r2
100076cc:	00074d00 	call	100074d0 <_ZNSt4pairIPSt18_Rb_tree_node_baseS1_EC1IRS1_Lb1EEEOT_RKS1_>
100076d0:	e0bffb17 	ldw	r2,-20(fp)
100076d4:	e0fffc17 	ldw	r3,-16(fp)
100076d8:	1009883a 	mov	r4,r2
100076dc:	180b883a 	mov	r5,r3
    }
100076e0:	2005883a 	mov	r2,r4
100076e4:	2807883a 	mov	r3,r5
100076e8:	e6ffff04 	addi	sp,fp,-4
100076ec:	dfc00217 	ldw	ra,8(sp)
100076f0:	df000117 	ldw	fp,4(sp)
100076f4:	dc000017 	ldw	r16,0(sp)
100076f8:	dec00304 	addi	sp,sp,12
100076fc:	f800283a 	ret

10007700 <_ZNKSt9_IdentityI9TileGroupEclERKS0_>:
      _Tp&
      operator()(_Tp& __x) const
      { return __x; }

      const _Tp&
      operator()(const _Tp& __x) const
10007700:	defffd04 	addi	sp,sp,-12
10007704:	df000215 	stw	fp,8(sp)
10007708:	df000204 	addi	fp,sp,8
1000770c:	e13fff15 	stw	r4,-4(fp)
10007710:	e17ffe15 	stw	r5,-8(fp)
      { return __x; }
10007714:	e0bffe17 	ldw	r2,-8(fp)
10007718:	e037883a 	mov	sp,fp
1000771c:	df000017 	ldw	fp,0(sp)
10007720:	dec00104 	addi	sp,sp,4
10007724:	f800283a 	ret

10007728 <_ZNSt8_Rb_treeI9TileGroupS0_St9_IdentityIS0_ESt4lessIS0_ESaIS0_EE11_Alloc_nodeC1ERS6_>:
	_Alloc_node(_Rb_tree& __t)
10007728:	defffd04 	addi	sp,sp,-12
1000772c:	df000215 	stw	fp,8(sp)
10007730:	df000204 	addi	fp,sp,8
10007734:	e13fff15 	stw	r4,-4(fp)
10007738:	e17ffe15 	stw	r5,-8(fp)
	  : _M_t(__t) { }
1000773c:	e0bfff17 	ldw	r2,-4(fp)
10007740:	e0fffe17 	ldw	r3,-8(fp)
10007744:	10c00015 	stw	r3,0(r2)
10007748:	0001883a 	nop
1000774c:	e037883a 	mov	sp,fp
10007750:	df000017 	ldw	fp,0(sp)
10007754:	dec00104 	addi	sp,sp,4
10007758:	f800283a 	ret

1000775c <_ZNSt8_Rb_treeI9TileGroupS0_St9_IdentityIS0_ESt4lessIS0_ESaIS0_EE10_M_insert_IRKS0_NS6_11_Alloc_nodeEEESt17_Rb_tree_iteratorIS0_EPSt18_Rb_tree_node_baseSE_OT_RT0_>:
      _Rb_tree<_Key, _Val, _KeyOfValue, _Compare, _Alloc>::
1000775c:	defff404 	addi	sp,sp,-48
10007760:	dfc00b15 	stw	ra,44(sp)
10007764:	df000a15 	stw	fp,40(sp)
10007768:	dc400915 	stw	r17,36(sp)
1000776c:	dc000815 	stw	r16,32(sp)
10007770:	df000a04 	addi	fp,sp,40
10007774:	e13ff915 	stw	r4,-28(fp)
10007778:	e17ff815 	stw	r5,-32(fp)
1000777c:	e1bff715 	stw	r6,-36(fp)
10007780:	e1fff615 	stw	r7,-40(fp)
			      || _M_impl._M_key_compare(_KeyOfValue()(__v),
10007784:	e0bff817 	ldw	r2,-32(fp)
10007788:	1000131e 	bne	r2,zero,100077d8 <_ZNSt8_Rb_treeI9TileGroupS0_St9_IdentityIS0_ESt4lessIS0_ESaIS0_EE10_M_insert_IRKS0_NS6_11_Alloc_nodeEEESt17_Rb_tree_iteratorIS0_EPSt18_Rb_tree_node_baseSE_OT_RT0_+0x7c>
	bool __insert_left = (__x != 0 || __p == _M_end()
1000778c:	e13ff917 	ldw	r4,-28(fp)
10007790:	0007db40 	call	10007db4 <_ZNSt8_Rb_treeI9TileGroupS0_St9_IdentityIS0_ESt4lessIS0_ESaIS0_EE6_M_endEv>
10007794:	1007883a 	mov	r3,r2
10007798:	e0bff717 	ldw	r2,-36(fp)
1000779c:	10c00e26 	beq	r2,r3,100077d8 <_ZNSt8_Rb_treeI9TileGroupS0_St9_IdentityIS0_ESt4lessIS0_ESaIS0_EE10_M_insert_IRKS0_NS6_11_Alloc_nodeEEESt17_Rb_tree_iteratorIS0_EPSt18_Rb_tree_node_baseSE_OT_RT0_+0x7c>
			      || _M_impl._M_key_compare(_KeyOfValue()(__v),
100077a0:	e43ff917 	ldw	r16,-28(fp)
100077a4:	e0bffac4 	addi	r2,fp,-21
100077a8:	e17ff617 	ldw	r5,-40(fp)
100077ac:	1009883a 	mov	r4,r2
100077b0:	00077000 	call	10007700 <_ZNKSt9_IdentityI9TileGroupEclERKS0_>
100077b4:	1023883a 	mov	r17,r2
100077b8:	e13ff717 	ldw	r4,-36(fp)
100077bc:	0007f240 	call	10007f24 <_ZNSt8_Rb_treeI9TileGroupS0_St9_IdentityIS0_ESt4lessIS0_ESaIS0_EE6_S_keyEPKSt18_Rb_tree_node_base>
100077c0:	100d883a 	mov	r6,r2
100077c4:	880b883a 	mov	r5,r17
100077c8:	8009883a 	mov	r4,r16
100077cc:	0007e240 	call	10007e24 <_ZNKSt4lessI9TileGroupEclERKS0_S3_>
100077d0:	10803fcc 	andi	r2,r2,255
100077d4:	10000226 	beq	r2,zero,100077e0 <_ZNSt8_Rb_treeI9TileGroupS0_St9_IdentityIS0_ESt4lessIS0_ESaIS0_EE10_M_insert_IRKS0_NS6_11_Alloc_nodeEEESt17_Rb_tree_iteratorIS0_EPSt18_Rb_tree_node_baseSE_OT_RT0_+0x84>
100077d8:	00800044 	movi	r2,1
100077dc:	00000106 	br	100077e4 <_ZNSt8_Rb_treeI9TileGroupS0_St9_IdentityIS0_ESt4lessIS0_ESaIS0_EE10_M_insert_IRKS0_NS6_11_Alloc_nodeEEESt17_Rb_tree_iteratorIS0_EPSt18_Rb_tree_node_baseSE_OT_RT0_+0x88>
100077e0:	0005883a 	mov	r2,zero
	bool __insert_left = (__x != 0 || __p == _M_end()
100077e4:	e0bffdc5 	stb	r2,-9(fp)
	_Link_type __z = __node_gen(_GLIBCXX_FORWARD(_Arg, __v));
100077e8:	e13ff617 	ldw	r4,-40(fp)
100077ec:	0006fcc0 	call	10006fcc <_ZSt7forwardIRK9TileGroupEOT_RNSt16remove_referenceIS3_E4typeE>
100077f0:	100b883a 	mov	r5,r2
100077f4:	e1000217 	ldw	r4,8(fp)
100077f8:	0007f6c0 	call	10007f6c <_ZNKSt8_Rb_treeI9TileGroupS0_St9_IdentityIS0_ESt4lessIS0_ESaIS0_EE11_Alloc_nodeclIRKS0_EEPSt13_Rb_tree_nodeIS0_EOT_>
100077fc:	e0bffc15 	stw	r2,-16(fp)
	_Rb_tree_insert_and_rebalance(__insert_left, __z, __p,
10007800:	e0fffdc3 	ldbu	r3,-9(fp)
				      this->_M_impl._M_header);
10007804:	e0bff917 	ldw	r2,-28(fp)
10007808:	10800104 	addi	r2,r2,4
	_Rb_tree_insert_and_rebalance(__insert_left, __z, __p,
1000780c:	100f883a 	mov	r7,r2
10007810:	e1bff717 	ldw	r6,-36(fp)
10007814:	e17ffc17 	ldw	r5,-16(fp)
10007818:	1809883a 	mov	r4,r3
1000781c:	0009fc80 	call	10009fc8 <_ZSt29_Rb_tree_insert_and_rebalancebPSt18_Rb_tree_node_baseS0_RS_>
	++_M_impl._M_node_count;
10007820:	e0bff917 	ldw	r2,-28(fp)
10007824:	10800517 	ldw	r2,20(r2)
10007828:	10c00044 	addi	r3,r2,1
1000782c:	e0bff917 	ldw	r2,-28(fp)
10007830:	10c00515 	stw	r3,20(r2)
	return iterator(__z);
10007834:	e0bffb04 	addi	r2,fp,-20
10007838:	e17ffc17 	ldw	r5,-16(fp)
1000783c:	1009883a 	mov	r4,r2
10007840:	00078e80 	call	100078e8 <_ZNSt17_Rb_tree_iteratorI9TileGroupEC1EPSt18_Rb_tree_node_base>
10007844:	e0bffb17 	ldw	r2,-20(fp)
      }
10007848:	e6fffe04 	addi	sp,fp,-8
1000784c:	dfc00317 	ldw	ra,12(sp)
10007850:	df000217 	ldw	fp,8(sp)
10007854:	dc400117 	ldw	r17,4(sp)
10007858:	dc000017 	ldw	r16,0(sp)
1000785c:	dec00404 	addi	sp,sp,16
10007860:	f800283a 	ret

10007864 <_ZSt7forwardISt17_Rb_tree_iteratorI9TileGroupEEOT_RNSt16remove_referenceIS3_E4typeE>:
    forward(typename std::remove_reference<_Tp>::type& __t) noexcept
10007864:	defffe04 	addi	sp,sp,-8
10007868:	df000115 	stw	fp,4(sp)
1000786c:	df000104 	addi	fp,sp,4
10007870:	e13fff15 	stw	r4,-4(fp)
    { return static_cast<_Tp&&>(__t); }
10007874:	e0bfff17 	ldw	r2,-4(fp)
10007878:	e037883a 	mov	sp,fp
1000787c:	df000017 	ldw	fp,0(sp)
10007880:	dec00104 	addi	sp,sp,4
10007884:	f800283a 	ret

10007888 <_ZNSt4pairISt17_Rb_tree_iteratorI9TileGroupEbEC1IS2_bLb1EEEOT_OT0_>:
	constexpr pair(_U1&& __x, _U2&& __y)
10007888:	defffb04 	addi	sp,sp,-20
1000788c:	dfc00415 	stw	ra,16(sp)
10007890:	df000315 	stw	fp,12(sp)
10007894:	df000304 	addi	fp,sp,12
10007898:	e13fff15 	stw	r4,-4(fp)
1000789c:	e17ffe15 	stw	r5,-8(fp)
100078a0:	e1bffd15 	stw	r6,-12(fp)
	: first(std::forward<_U1>(__x)), second(std::forward<_U2>(__y)) { }
100078a4:	e13ffe17 	ldw	r4,-8(fp)
100078a8:	00078640 	call	10007864 <_ZSt7forwardISt17_Rb_tree_iteratorI9TileGroupEEOT_RNSt16remove_referenceIS3_E4typeE>
100078ac:	1007883a 	mov	r3,r2
100078b0:	e0bfff17 	ldw	r2,-4(fp)
100078b4:	18c00017 	ldw	r3,0(r3)
100078b8:	10c00015 	stw	r3,0(r2)
100078bc:	e13ffd17 	ldw	r4,-12(fp)
100078c0:	0007fbc0 	call	10007fbc <_ZSt7forwardIbEOT_RNSt16remove_referenceIS0_E4typeE>
100078c4:	10c00003 	ldbu	r3,0(r2)
100078c8:	e0bfff17 	ldw	r2,-4(fp)
100078cc:	10c00105 	stb	r3,4(r2)
100078d0:	0001883a 	nop
100078d4:	e037883a 	mov	sp,fp
100078d8:	dfc00117 	ldw	ra,4(sp)
100078dc:	df000017 	ldw	fp,0(sp)
100078e0:	dec00204 	addi	sp,sp,8
100078e4:	f800283a 	ret

100078e8 <_ZNSt17_Rb_tree_iteratorI9TileGroupEC1EPSt18_Rb_tree_node_base>:
      _Rb_tree_iterator(_Base_ptr __x) _GLIBCXX_NOEXCEPT
100078e8:	defffd04 	addi	sp,sp,-12
100078ec:	df000215 	stw	fp,8(sp)
100078f0:	df000204 	addi	fp,sp,8
100078f4:	e13fff15 	stw	r4,-4(fp)
100078f8:	e17ffe15 	stw	r5,-8(fp)
      : _M_node(__x) { }
100078fc:	e0bfff17 	ldw	r2,-4(fp)
10007900:	e0fffe17 	ldw	r3,-8(fp)
10007904:	10c00015 	stw	r3,0(r2)
10007908:	0001883a 	nop
1000790c:	e037883a 	mov	sp,fp
10007910:	df000017 	ldw	fp,0(sp)
10007914:	dec00104 	addi	sp,sp,4
10007918:	f800283a 	ret

1000791c <_ZSt7forwardIRbEOT_RNSt16remove_referenceIS1_E4typeE>:
    forward(typename std::remove_reference<_Tp>::type& __t) noexcept
1000791c:	defffe04 	addi	sp,sp,-8
10007920:	df000115 	stw	fp,4(sp)
10007924:	df000104 	addi	fp,sp,4
10007928:	e13fff15 	stw	r4,-4(fp)
    { return static_cast<_Tp&&>(__t); }
1000792c:	e0bfff17 	ldw	r2,-4(fp)
10007930:	e037883a 	mov	sp,fp
10007934:	df000017 	ldw	fp,0(sp)
10007938:	dec00104 	addi	sp,sp,4
1000793c:	f800283a 	ret

10007940 <_ZNSt23_Rb_tree_const_iteratorI9TileGroupEC1ERKSt17_Rb_tree_iteratorIS0_E>:
      _Rb_tree_const_iterator(const iterator& __it) _GLIBCXX_NOEXCEPT
10007940:	defffd04 	addi	sp,sp,-12
10007944:	df000215 	stw	fp,8(sp)
10007948:	df000204 	addi	fp,sp,8
1000794c:	e13fff15 	stw	r4,-4(fp)
10007950:	e17ffe15 	stw	r5,-8(fp)
      : _M_node(__it._M_node) { }
10007954:	e0bffe17 	ldw	r2,-8(fp)
10007958:	10c00017 	ldw	r3,0(r2)
1000795c:	e0bfff17 	ldw	r2,-4(fp)
10007960:	10c00015 	stw	r3,0(r2)
10007964:	0001883a 	nop
10007968:	e037883a 	mov	sp,fp
1000796c:	df000017 	ldw	fp,0(sp)
10007970:	dec00104 	addi	sp,sp,4
10007974:	f800283a 	ret

10007978 <_ZNSt23_Rb_tree_const_iteratorI9TileGroupEC1EPKSt18_Rb_tree_node_base>:
      _Rb_tree_const_iterator(_Base_ptr __x) _GLIBCXX_NOEXCEPT
10007978:	defffd04 	addi	sp,sp,-12
1000797c:	df000215 	stw	fp,8(sp)
10007980:	df000204 	addi	fp,sp,8
10007984:	e13fff15 	stw	r4,-4(fp)
10007988:	e17ffe15 	stw	r5,-8(fp)
      : _M_node(__x) { }
1000798c:	e0bfff17 	ldw	r2,-4(fp)
10007990:	e0fffe17 	ldw	r3,-8(fp)
10007994:	10c00015 	stw	r3,0(r2)
10007998:	0001883a 	nop
1000799c:	e037883a 	mov	sp,fp
100079a0:	df000017 	ldw	fp,0(sp)
100079a4:	dec00104 	addi	sp,sp,4
100079a8:	f800283a 	ret

100079ac <_ZNK9__gnu_cxx16__aligned_membufI9TileGroupE6_M_ptrEv>:
      _Tp*
      _M_ptr() noexcept
      { return static_cast<_Tp*>(_M_addr()); }

      const _Tp*
      _M_ptr() const noexcept
100079ac:	defffd04 	addi	sp,sp,-12
100079b0:	dfc00215 	stw	ra,8(sp)
100079b4:	df000115 	stw	fp,4(sp)
100079b8:	df000104 	addi	fp,sp,4
100079bc:	e13fff15 	stw	r4,-4(fp)
      { return static_cast<const _Tp*>(_M_addr()); }
100079c0:	e13fff17 	ldw	r4,-4(fp)
100079c4:	0007fe00 	call	10007fe0 <_ZNK9__gnu_cxx16__aligned_membufI9TileGroupE7_M_addrEv>
100079c8:	e037883a 	mov	sp,fp
100079cc:	dfc00117 	ldw	ra,4(sp)
100079d0:	df000017 	ldw	fp,0(sp)
100079d4:	dec00204 	addi	sp,sp,8
100079d8:	f800283a 	ret

100079dc <_ZNSt8_Rb_treeI9TileGroupS0_St9_IdentityIS0_ESt4lessIS0_ESaIS0_EE11equal_rangeERKS0_>:
    _Rb_tree<_Key, _Val, _KeyOfValue, _Compare, _Alloc>::
100079dc:	deffef04 	addi	sp,sp,-68
100079e0:	dfc01015 	stw	ra,64(sp)
100079e4:	df000f15 	stw	fp,60(sp)
100079e8:	dc000e15 	stw	r16,56(sp)
100079ec:	df000f04 	addi	fp,sp,60
100079f0:	e13ff215 	stw	r4,-56(fp)
100079f4:	e17ff115 	stw	r5,-60(fp)
      _Link_type __x = _M_begin();
100079f8:	e13ff217 	ldw	r4,-56(fp)
100079fc:	0006fa40 	call	10006fa4 <_ZNSt8_Rb_treeI9TileGroupS0_St9_IdentityIS0_ESt4lessIS0_ESaIS0_EE8_M_beginEv>
10007a00:	e0bffe15 	stw	r2,-8(fp)
      _Base_ptr __y = _M_end();
10007a04:	e13ff217 	ldw	r4,-56(fp)
10007a08:	0007db40 	call	10007db4 <_ZNSt8_Rb_treeI9TileGroupS0_St9_IdentityIS0_ESt4lessIS0_ESaIS0_EE6_M_endEv>
10007a0c:	e0bffd15 	stw	r2,-12(fp)
      while (__x != 0)
10007a10:	e0bffe17 	ldw	r2,-8(fp)
10007a14:	10003e26 	beq	r2,zero,10007b10 <_ZNSt8_Rb_treeI9TileGroupS0_St9_IdentityIS0_ESt4lessIS0_ESaIS0_EE11equal_rangeERKS0_+0x134>
	  if (_M_impl._M_key_compare(_S_key(__x), __k))
10007a18:	e43ff217 	ldw	r16,-56(fp)
10007a1c:	e13ffe17 	ldw	r4,-8(fp)
10007a20:	0007ddc0 	call	10007ddc <_ZNSt8_Rb_treeI9TileGroupS0_St9_IdentityIS0_ESt4lessIS0_ESaIS0_EE6_S_keyEPKSt13_Rb_tree_nodeIS0_E>
10007a24:	e1bff117 	ldw	r6,-60(fp)
10007a28:	100b883a 	mov	r5,r2
10007a2c:	8009883a 	mov	r4,r16
10007a30:	0007e240 	call	10007e24 <_ZNKSt4lessI9TileGroupEclERKS0_S3_>
10007a34:	10803fcc 	andi	r2,r2,255
10007a38:	10000426 	beq	r2,zero,10007a4c <_ZNSt8_Rb_treeI9TileGroupS0_St9_IdentityIS0_ESt4lessIS0_ESaIS0_EE11equal_rangeERKS0_+0x70>
	    __x = _S_right(__x);
10007a3c:	e13ffe17 	ldw	r4,-8(fp)
10007a40:	00073b80 	call	100073b8 <_ZNSt8_Rb_treeI9TileGroupS0_St9_IdentityIS0_ESt4lessIS0_ESaIS0_EE8_S_rightEPSt18_Rb_tree_node_base>
10007a44:	e0bffe15 	stw	r2,-8(fp)
10007a48:	003ff106 	br	10007a10 <_ZNSt8_Rb_treeI9TileGroupS0_St9_IdentityIS0_ESt4lessIS0_ESaIS0_EE11equal_rangeERKS0_+0x34>
	  else if (_M_impl._M_key_compare(__k, _S_key(__x)))
10007a4c:	e43ff217 	ldw	r16,-56(fp)
10007a50:	e13ffe17 	ldw	r4,-8(fp)
10007a54:	0007ddc0 	call	10007ddc <_ZNSt8_Rb_treeI9TileGroupS0_St9_IdentityIS0_ESt4lessIS0_ESaIS0_EE6_S_keyEPKSt13_Rb_tree_nodeIS0_E>
10007a58:	100d883a 	mov	r6,r2
10007a5c:	e17ff117 	ldw	r5,-60(fp)
10007a60:	8009883a 	mov	r4,r16
10007a64:	0007e240 	call	10007e24 <_ZNKSt4lessI9TileGroupEclERKS0_S3_>
10007a68:	10803fcc 	andi	r2,r2,255
10007a6c:	10000626 	beq	r2,zero,10007a88 <_ZNSt8_Rb_treeI9TileGroupS0_St9_IdentityIS0_ESt4lessIS0_ESaIS0_EE11equal_rangeERKS0_+0xac>
	    __y = __x, __x = _S_left(__x);
10007a70:	e0bffe17 	ldw	r2,-8(fp)
10007a74:	e0bffd15 	stw	r2,-12(fp)
10007a78:	e13ffe17 	ldw	r4,-8(fp)
10007a7c:	00073e00 	call	100073e0 <_ZNSt8_Rb_treeI9TileGroupS0_St9_IdentityIS0_ESt4lessIS0_ESaIS0_EE7_S_leftEPSt18_Rb_tree_node_base>
10007a80:	e0bffe15 	stw	r2,-8(fp)
10007a84:	003fe206 	br	10007a10 <_ZNSt8_Rb_treeI9TileGroupS0_St9_IdentityIS0_ESt4lessIS0_ESaIS0_EE11equal_rangeERKS0_+0x34>
	      _Link_type __xu(__x);
10007a88:	e0bffe17 	ldw	r2,-8(fp)
10007a8c:	e0bffc15 	stw	r2,-16(fp)
	      _Base_ptr __yu(__y);
10007a90:	e0bffd17 	ldw	r2,-12(fp)
10007a94:	e0bffb15 	stw	r2,-20(fp)
	      __y = __x, __x = _S_left(__x);
10007a98:	e0bffe17 	ldw	r2,-8(fp)
10007a9c:	e0bffd15 	stw	r2,-12(fp)
10007aa0:	e13ffe17 	ldw	r4,-8(fp)
10007aa4:	00073e00 	call	100073e0 <_ZNSt8_Rb_treeI9TileGroupS0_St9_IdentityIS0_ESt4lessIS0_ESaIS0_EE7_S_leftEPSt18_Rb_tree_node_base>
10007aa8:	e0bffe15 	stw	r2,-8(fp)
	      __xu = _S_right(__xu);
10007aac:	e13ffc17 	ldw	r4,-16(fp)
10007ab0:	00073b80 	call	100073b8 <_ZNSt8_Rb_treeI9TileGroupS0_St9_IdentityIS0_ESt4lessIS0_ESaIS0_EE8_S_rightEPSt18_Rb_tree_node_base>
10007ab4:	e0bffc15 	stw	r2,-16(fp)
	      return pair<iterator,
10007ab8:	e1fff117 	ldw	r7,-60(fp)
10007abc:	e1bffd17 	ldw	r6,-12(fp)
10007ac0:	e17ffe17 	ldw	r5,-8(fp)
10007ac4:	e13ff217 	ldw	r4,-56(fp)
10007ac8:	00080040 	call	10008004 <_ZNSt8_Rb_treeI9TileGroupS0_St9_IdentityIS0_ESt4lessIS0_ESaIS0_EE14_M_lower_boundEPSt13_Rb_tree_nodeIS0_EPSt18_Rb_tree_node_baseRKS0_>
10007acc:	e0bff515 	stw	r2,-44(fp)
10007ad0:	e1fff117 	ldw	r7,-60(fp)
10007ad4:	e1bffb17 	ldw	r6,-20(fp)
10007ad8:	e17ffc17 	ldw	r5,-16(fp)
10007adc:	e13ff217 	ldw	r4,-56(fp)
10007ae0:	00080ac0 	call	100080ac <_ZNSt8_Rb_treeI9TileGroupS0_St9_IdentityIS0_ESt4lessIS0_ESaIS0_EE14_M_upper_boundEPSt13_Rb_tree_nodeIS0_EPSt18_Rb_tree_node_baseRKS0_>
10007ae4:	e0bff615 	stw	r2,-40(fp)
				    _M_upper_bound(__xu, __yu, __k));
10007ae8:	e13ff604 	addi	r4,fp,-40
10007aec:	e0fff504 	addi	r3,fp,-44
10007af0:	e0bff304 	addi	r2,fp,-52
10007af4:	200d883a 	mov	r6,r4
10007af8:	180b883a 	mov	r5,r3
10007afc:	1009883a 	mov	r4,r2
10007b00:	00081500 	call	10008150 <_ZNSt4pairISt17_Rb_tree_iteratorI9TileGroupES2_EC1IS2_S2_Lb1EEEOT_OT0_>
10007b04:	e0bff317 	ldw	r2,-52(fp)
10007b08:	e0fff417 	ldw	r3,-48(fp)
10007b0c:	00001106 	br	10007b54 <_ZNSt8_Rb_treeI9TileGroupS0_St9_IdentityIS0_ESt4lessIS0_ESaIS0_EE11equal_rangeERKS0_+0x178>
				      iterator(__y));
10007b10:	e0bff904 	addi	r2,fp,-28
10007b14:	e17ffd17 	ldw	r5,-12(fp)
10007b18:	1009883a 	mov	r4,r2
10007b1c:	00078e80 	call	100078e8 <_ZNSt17_Rb_tree_iteratorI9TileGroupEC1EPSt18_Rb_tree_node_base>
10007b20:	e0bffa04 	addi	r2,fp,-24
10007b24:	e17ffd17 	ldw	r5,-12(fp)
10007b28:	1009883a 	mov	r4,r2
10007b2c:	00078e80 	call	100078e8 <_ZNSt17_Rb_tree_iteratorI9TileGroupEC1EPSt18_Rb_tree_node_base>
10007b30:	e13ffa04 	addi	r4,fp,-24
10007b34:	e0fff904 	addi	r3,fp,-28
10007b38:	e0bff704 	addi	r2,fp,-36
10007b3c:	200d883a 	mov	r6,r4
10007b40:	180b883a 	mov	r5,r3
10007b44:	1009883a 	mov	r4,r2
10007b48:	00081500 	call	10008150 <_ZNSt4pairISt17_Rb_tree_iteratorI9TileGroupES2_EC1IS2_S2_Lb1EEEOT_OT0_>
10007b4c:	e0bff717 	ldw	r2,-36(fp)
10007b50:	e0fff817 	ldw	r3,-32(fp)
10007b54:	1009883a 	mov	r4,r2
10007b58:	180b883a 	mov	r5,r3
    }
10007b5c:	2005883a 	mov	r2,r4
10007b60:	2807883a 	mov	r3,r5
10007b64:	e6ffff04 	addi	sp,fp,-4
10007b68:	dfc00217 	ldw	ra,8(sp)
10007b6c:	df000117 	ldw	fp,4(sp)
10007b70:	dc000017 	ldw	r16,0(sp)
10007b74:	dec00304 	addi	sp,sp,12
10007b78:	f800283a 	ret

10007b7c <_ZNKSt8_Rb_treeI9TileGroupS0_St9_IdentityIS0_ESt4lessIS0_ESaIS0_EE4sizeEv>:
      size() const _GLIBCXX_NOEXCEPT
10007b7c:	defffe04 	addi	sp,sp,-8
10007b80:	df000115 	stw	fp,4(sp)
10007b84:	df000104 	addi	fp,sp,4
10007b88:	e13fff15 	stw	r4,-4(fp)
      { return _M_impl._M_node_count; }
10007b8c:	e0bfff17 	ldw	r2,-4(fp)
10007b90:	10800517 	ldw	r2,20(r2)
10007b94:	e037883a 	mov	sp,fp
10007b98:	df000017 	ldw	fp,0(sp)
10007b9c:	dec00104 	addi	sp,sp,4
10007ba0:	f800283a 	ret

10007ba4 <_ZNSt8_Rb_treeI9TileGroupS0_St9_IdentityIS0_ESt4lessIS0_ESaIS0_EE12_M_erase_auxESt23_Rb_tree_const_iteratorIS0_ES8_>:
    _Rb_tree<_Key, _Val, _KeyOfValue, _Compare, _Alloc>::
10007ba4:	defff704 	addi	sp,sp,-36
10007ba8:	dfc00815 	stw	ra,32(sp)
10007bac:	df000715 	stw	fp,28(sp)
10007bb0:	df000704 	addi	fp,sp,28
10007bb4:	e13ffb15 	stw	r4,-20(fp)
10007bb8:	e17ffa15 	stw	r5,-24(fp)
10007bbc:	e1bff915 	stw	r6,-28(fp)
      if (__first == begin() && __last == end())
10007bc0:	e13ffb17 	ldw	r4,-20(fp)
10007bc4:	0007e600 	call	10007e60 <_ZNSt8_Rb_treeI9TileGroupS0_St9_IdentityIS0_ESt4lessIS0_ESaIS0_EE5beginEv>
10007bc8:	e0bffd15 	stw	r2,-12(fp)
10007bcc:	e0fffd04 	addi	r3,fp,-12
10007bd0:	e0bffc04 	addi	r2,fp,-16
10007bd4:	180b883a 	mov	r5,r3
10007bd8:	1009883a 	mov	r4,r2
10007bdc:	00079400 	call	10007940 <_ZNSt23_Rb_tree_const_iteratorI9TileGroupEC1ERKSt17_Rb_tree_iteratorIS0_E>
10007be0:	e0fffc04 	addi	r3,fp,-16
10007be4:	e0bffa04 	addi	r2,fp,-24
10007be8:	180b883a 	mov	r5,r3
10007bec:	1009883a 	mov	r4,r2
10007bf0:	00081b40 	call	100081b4 <_ZNKSt23_Rb_tree_const_iteratorI9TileGroupEeqERKS1_>
10007bf4:	10803fcc 	andi	r2,r2,255
10007bf8:	10001126 	beq	r2,zero,10007c40 <_ZNSt8_Rb_treeI9TileGroupS0_St9_IdentityIS0_ESt4lessIS0_ESaIS0_EE12_M_erase_auxESt23_Rb_tree_const_iteratorIS0_ES8_+0x9c>
10007bfc:	e13ffb17 	ldw	r4,-20(fp)
10007c00:	00081ec0 	call	100081ec <_ZNSt8_Rb_treeI9TileGroupS0_St9_IdentityIS0_ESt4lessIS0_ESaIS0_EE3endEv>
10007c04:	e0bfff15 	stw	r2,-4(fp)
10007c08:	e0ffff04 	addi	r3,fp,-4
10007c0c:	e0bffe04 	addi	r2,fp,-8
10007c10:	180b883a 	mov	r5,r3
10007c14:	1009883a 	mov	r4,r2
10007c18:	00079400 	call	10007940 <_ZNSt23_Rb_tree_const_iteratorI9TileGroupEC1ERKSt17_Rb_tree_iteratorIS0_E>
10007c1c:	e0fffe04 	addi	r3,fp,-8
10007c20:	e0bff904 	addi	r2,fp,-28
10007c24:	180b883a 	mov	r5,r3
10007c28:	1009883a 	mov	r4,r2
10007c2c:	00081b40 	call	100081b4 <_ZNKSt23_Rb_tree_const_iteratorI9TileGroupEeqERKS1_>
10007c30:	10803fcc 	andi	r2,r2,255
10007c34:	10000226 	beq	r2,zero,10007c40 <_ZNSt8_Rb_treeI9TileGroupS0_St9_IdentityIS0_ESt4lessIS0_ESaIS0_EE12_M_erase_auxESt23_Rb_tree_const_iteratorIS0_ES8_+0x9c>
10007c38:	00800044 	movi	r2,1
10007c3c:	00000106 	br	10007c44 <_ZNSt8_Rb_treeI9TileGroupS0_St9_IdentityIS0_ESt4lessIS0_ESaIS0_EE12_M_erase_auxESt23_Rb_tree_const_iteratorIS0_ES8_+0xa0>
10007c40:	0005883a 	mov	r2,zero
10007c44:	10803fcc 	andi	r2,r2,255
10007c48:	10000326 	beq	r2,zero,10007c58 <_ZNSt8_Rb_treeI9TileGroupS0_St9_IdentityIS0_ESt4lessIS0_ESaIS0_EE12_M_erase_auxESt23_Rb_tree_const_iteratorIS0_ES8_+0xb4>
	clear();
10007c4c:	e13ffb17 	ldw	r4,-20(fp)
10007c50:	00073100 	call	10007310 <_ZNSt8_Rb_treeI9TileGroupS0_St9_IdentityIS0_ESt4lessIS0_ESaIS0_EE5clearEv>
    }
10007c54:	00000f06 	br	10007c94 <_ZNSt8_Rb_treeI9TileGroupS0_St9_IdentityIS0_ESt4lessIS0_ESaIS0_EE12_M_erase_auxESt23_Rb_tree_const_iteratorIS0_ES8_+0xf0>
	while (__first != __last)
10007c58:	e0fff904 	addi	r3,fp,-28
10007c5c:	e0bffa04 	addi	r2,fp,-24
10007c60:	180b883a 	mov	r5,r3
10007c64:	1009883a 	mov	r4,r2
10007c68:	0006dd40 	call	10006dd4 <_ZNKSt23_Rb_tree_const_iteratorI9TileGroupEneERKS1_>
10007c6c:	10803fcc 	andi	r2,r2,255
10007c70:	10000826 	beq	r2,zero,10007c94 <_ZNSt8_Rb_treeI9TileGroupS0_St9_IdentityIS0_ESt4lessIS0_ESaIS0_EE12_M_erase_auxESt23_Rb_tree_const_iteratorIS0_ES8_+0xf0>
	  _M_erase_aux(__first++);
10007c74:	e0bffa04 	addi	r2,fp,-24
10007c78:	000b883a 	mov	r5,zero
10007c7c:	1009883a 	mov	r4,r2
10007c80:	00082300 	call	10008230 <_ZNSt23_Rb_tree_const_iteratorI9TileGroupEppEi>
10007c84:	100b883a 	mov	r5,r2
10007c88:	e13ffb17 	ldw	r4,-20(fp)
